
Inverter.elf:     file format elf32-littlearm

Sections:
Idx Name          Size      VMA       LMA       File off  Algn
  0 .isr_vector   00000194  08000000  08000000  00010000  2**0
                  CONTENTS, ALLOC, LOAD, READONLY, DATA
  1 .text         0000eb58  080001a0  080001a0  000101a0  2**4
                  CONTENTS, ALLOC, LOAD, READONLY, CODE
  2 .rodata       000023f0  0800ecf8  0800ecf8  0001ecf8  2**3
                  CONTENTS, ALLOC, LOAD, READONLY, DATA
  3 .ARM.extab    00000000  080110e8  080110e8  000301f0  2**0
                  CONTENTS
  4 .ARM          00000000  080110e8  080110e8  000301f0  2**0
                  CONTENTS
  5 .preinit_array 00000000  080110e8  080110e8  000301f0  2**0
                  CONTENTS, ALLOC, LOAD, DATA
  6 .init_array   00000004  080110e8  080110e8  000210e8  2**2
                  CONTENTS, ALLOC, LOAD, DATA
  7 .fini_array   00000004  080110ec  080110ec  000210ec  2**2
                  CONTENTS, ALLOC, LOAD, DATA
  8 .data         000001f0  20000000  080110f0  00030000  2**2
                  CONTENTS, ALLOC, LOAD, DATA
  9 .bss          0000c93c  200001f0  080112e0  000301f0  2**2
                  ALLOC
 10 ._user_heap_stack 00000604  2000cb2c  080112e0  0003cb2c  2**0
                  ALLOC
 11 .ARM.attributes 00000030  00000000  00000000  000301f0  2**0
                  CONTENTS, READONLY
 12 .comment      00000043  00000000  00000000  00030220  2**0
                  CONTENTS, READONLY
 13 .debug_frame  0000099c  00000000  00000000  00030264  2**2
                  CONTENTS, READONLY, DEBUGGING, OCTETS

Disassembly of section .text:

080001a0 <__do_global_dtors_aux>:
 80001a0:	b510      	push	{r4, lr}
 80001a2:	4c05      	ldr	r4, [pc, #20]	; (80001b8 <__do_global_dtors_aux+0x18>)
 80001a4:	7823      	ldrb	r3, [r4, #0]
 80001a6:	b933      	cbnz	r3, 80001b6 <__do_global_dtors_aux+0x16>
 80001a8:	4b04      	ldr	r3, [pc, #16]	; (80001bc <__do_global_dtors_aux+0x1c>)
 80001aa:	b113      	cbz	r3, 80001b2 <__do_global_dtors_aux+0x12>
 80001ac:	4804      	ldr	r0, [pc, #16]	; (80001c0 <__do_global_dtors_aux+0x20>)
 80001ae:	f3af 8000 	nop.w
 80001b2:	2301      	movs	r3, #1
 80001b4:	7023      	strb	r3, [r4, #0]
 80001b6:	bd10      	pop	{r4, pc}
 80001b8:	200001f0 	.word	0x200001f0
 80001bc:	00000000 	.word	0x00000000
 80001c0:	0800ece0 	.word	0x0800ece0

080001c4 <frame_dummy>:
 80001c4:	b508      	push	{r3, lr}
 80001c6:	4b03      	ldr	r3, [pc, #12]	; (80001d4 <frame_dummy+0x10>)
 80001c8:	b11b      	cbz	r3, 80001d2 <frame_dummy+0xe>
 80001ca:	4903      	ldr	r1, [pc, #12]	; (80001d8 <frame_dummy+0x14>)
 80001cc:	4803      	ldr	r0, [pc, #12]	; (80001dc <frame_dummy+0x18>)
 80001ce:	f3af 8000 	nop.w
 80001d2:	bd08      	pop	{r3, pc}
 80001d4:	00000000 	.word	0x00000000
 80001d8:	200001f4 	.word	0x200001f4
 80001dc:	0800ece0 	.word	0x0800ece0

080001e0 <strlen>:
 80001e0:	4603      	mov	r3, r0
 80001e2:	f813 2b01 	ldrb.w	r2, [r3], #1
 80001e6:	2a00      	cmp	r2, #0
 80001e8:	d1fb      	bne.n	80001e2 <strlen+0x2>
 80001ea:	1a18      	subs	r0, r3, r0
 80001ec:	3801      	subs	r0, #1
 80001ee:	4770      	bx	lr

080001f0 <memchr>:
 80001f0:	f001 01ff 	and.w	r1, r1, #255	; 0xff
 80001f4:	2a10      	cmp	r2, #16
 80001f6:	db2b      	blt.n	8000250 <memchr+0x60>
 80001f8:	f010 0f07 	tst.w	r0, #7
 80001fc:	d008      	beq.n	8000210 <memchr+0x20>
 80001fe:	f810 3b01 	ldrb.w	r3, [r0], #1
 8000202:	3a01      	subs	r2, #1
 8000204:	428b      	cmp	r3, r1
 8000206:	d02d      	beq.n	8000264 <memchr+0x74>
 8000208:	f010 0f07 	tst.w	r0, #7
 800020c:	b342      	cbz	r2, 8000260 <memchr+0x70>
 800020e:	d1f6      	bne.n	80001fe <memchr+0xe>
 8000210:	b4f0      	push	{r4, r5, r6, r7}
 8000212:	ea41 2101 	orr.w	r1, r1, r1, lsl #8
 8000216:	ea41 4101 	orr.w	r1, r1, r1, lsl #16
 800021a:	f022 0407 	bic.w	r4, r2, #7
 800021e:	f07f 0700 	mvns.w	r7, #0
 8000222:	2300      	movs	r3, #0
 8000224:	e8f0 5602 	ldrd	r5, r6, [r0], #8
 8000228:	3c08      	subs	r4, #8
 800022a:	ea85 0501 	eor.w	r5, r5, r1
 800022e:	ea86 0601 	eor.w	r6, r6, r1
 8000232:	fa85 f547 	uadd8	r5, r5, r7
 8000236:	faa3 f587 	sel	r5, r3, r7
 800023a:	fa86 f647 	uadd8	r6, r6, r7
 800023e:	faa5 f687 	sel	r6, r5, r7
 8000242:	b98e      	cbnz	r6, 8000268 <memchr+0x78>
 8000244:	d1ee      	bne.n	8000224 <memchr+0x34>
 8000246:	bcf0      	pop	{r4, r5, r6, r7}
 8000248:	f001 01ff 	and.w	r1, r1, #255	; 0xff
 800024c:	f002 0207 	and.w	r2, r2, #7
 8000250:	b132      	cbz	r2, 8000260 <memchr+0x70>
 8000252:	f810 3b01 	ldrb.w	r3, [r0], #1
 8000256:	3a01      	subs	r2, #1
 8000258:	ea83 0301 	eor.w	r3, r3, r1
 800025c:	b113      	cbz	r3, 8000264 <memchr+0x74>
 800025e:	d1f8      	bne.n	8000252 <memchr+0x62>
 8000260:	2000      	movs	r0, #0
 8000262:	4770      	bx	lr
 8000264:	3801      	subs	r0, #1
 8000266:	4770      	bx	lr
 8000268:	2d00      	cmp	r5, #0
 800026a:	bf06      	itte	eq
 800026c:	4635      	moveq	r5, r6
 800026e:	3803      	subeq	r0, #3
 8000270:	3807      	subne	r0, #7
 8000272:	f015 0f01 	tst.w	r5, #1
 8000276:	d107      	bne.n	8000288 <memchr+0x98>
 8000278:	3001      	adds	r0, #1
 800027a:	f415 7f80 	tst.w	r5, #256	; 0x100
 800027e:	bf02      	ittt	eq
 8000280:	3001      	addeq	r0, #1
 8000282:	f415 3fc0 	tsteq.w	r5, #98304	; 0x18000
 8000286:	3001      	addeq	r0, #1
 8000288:	bcf0      	pop	{r4, r5, r6, r7}
 800028a:	3801      	subs	r0, #1
 800028c:	4770      	bx	lr
 800028e:	bf00      	nop

08000290 <__aeabi_drsub>:
 8000290:	f081 4100 	eor.w	r1, r1, #2147483648	; 0x80000000
 8000294:	e002      	b.n	800029c <__adddf3>
 8000296:	bf00      	nop

08000298 <__aeabi_dsub>:
 8000298:	f083 4300 	eor.w	r3, r3, #2147483648	; 0x80000000

0800029c <__adddf3>:
 800029c:	b530      	push	{r4, r5, lr}
 800029e:	ea4f 0441 	mov.w	r4, r1, lsl #1
 80002a2:	ea4f 0543 	mov.w	r5, r3, lsl #1
 80002a6:	ea94 0f05 	teq	r4, r5
 80002aa:	bf08      	it	eq
 80002ac:	ea90 0f02 	teqeq	r0, r2
 80002b0:	bf1f      	itttt	ne
 80002b2:	ea54 0c00 	orrsne.w	ip, r4, r0
 80002b6:	ea55 0c02 	orrsne.w	ip, r5, r2
 80002ba:	ea7f 5c64 	mvnsne.w	ip, r4, asr #21
 80002be:	ea7f 5c65 	mvnsne.w	ip, r5, asr #21
 80002c2:	f000 80e2 	beq.w	800048a <__adddf3+0x1ee>
 80002c6:	ea4f 5454 	mov.w	r4, r4, lsr #21
 80002ca:	ebd4 5555 	rsbs	r5, r4, r5, lsr #21
 80002ce:	bfb8      	it	lt
 80002d0:	426d      	neglt	r5, r5
 80002d2:	dd0c      	ble.n	80002ee <__adddf3+0x52>
 80002d4:	442c      	add	r4, r5
 80002d6:	ea80 0202 	eor.w	r2, r0, r2
 80002da:	ea81 0303 	eor.w	r3, r1, r3
 80002de:	ea82 0000 	eor.w	r0, r2, r0
 80002e2:	ea83 0101 	eor.w	r1, r3, r1
 80002e6:	ea80 0202 	eor.w	r2, r0, r2
 80002ea:	ea81 0303 	eor.w	r3, r1, r3
 80002ee:	2d36      	cmp	r5, #54	; 0x36
 80002f0:	bf88      	it	hi
 80002f2:	bd30      	pophi	{r4, r5, pc}
 80002f4:	f011 4f00 	tst.w	r1, #2147483648	; 0x80000000
 80002f8:	ea4f 3101 	mov.w	r1, r1, lsl #12
 80002fc:	f44f 1c80 	mov.w	ip, #1048576	; 0x100000
 8000300:	ea4c 3111 	orr.w	r1, ip, r1, lsr #12
 8000304:	d002      	beq.n	800030c <__adddf3+0x70>
 8000306:	4240      	negs	r0, r0
 8000308:	eb61 0141 	sbc.w	r1, r1, r1, lsl #1
 800030c:	f013 4f00 	tst.w	r3, #2147483648	; 0x80000000
 8000310:	ea4f 3303 	mov.w	r3, r3, lsl #12
 8000314:	ea4c 3313 	orr.w	r3, ip, r3, lsr #12
 8000318:	d002      	beq.n	8000320 <__adddf3+0x84>
 800031a:	4252      	negs	r2, r2
 800031c:	eb63 0343 	sbc.w	r3, r3, r3, lsl #1
 8000320:	ea94 0f05 	teq	r4, r5
 8000324:	f000 80a7 	beq.w	8000476 <__adddf3+0x1da>
 8000328:	f1a4 0401 	sub.w	r4, r4, #1
 800032c:	f1d5 0e20 	rsbs	lr, r5, #32
 8000330:	db0d      	blt.n	800034e <__adddf3+0xb2>
 8000332:	fa02 fc0e 	lsl.w	ip, r2, lr
 8000336:	fa22 f205 	lsr.w	r2, r2, r5
 800033a:	1880      	adds	r0, r0, r2
 800033c:	f141 0100 	adc.w	r1, r1, #0
 8000340:	fa03 f20e 	lsl.w	r2, r3, lr
 8000344:	1880      	adds	r0, r0, r2
 8000346:	fa43 f305 	asr.w	r3, r3, r5
 800034a:	4159      	adcs	r1, r3
 800034c:	e00e      	b.n	800036c <__adddf3+0xd0>
 800034e:	f1a5 0520 	sub.w	r5, r5, #32
 8000352:	f10e 0e20 	add.w	lr, lr, #32
 8000356:	2a01      	cmp	r2, #1
 8000358:	fa03 fc0e 	lsl.w	ip, r3, lr
 800035c:	bf28      	it	cs
 800035e:	f04c 0c02 	orrcs.w	ip, ip, #2
 8000362:	fa43 f305 	asr.w	r3, r3, r5
 8000366:	18c0      	adds	r0, r0, r3
 8000368:	eb51 71e3 	adcs.w	r1, r1, r3, asr #31
 800036c:	f001 4500 	and.w	r5, r1, #2147483648	; 0x80000000
 8000370:	d507      	bpl.n	8000382 <__adddf3+0xe6>
 8000372:	f04f 0e00 	mov.w	lr, #0
 8000376:	f1dc 0c00 	rsbs	ip, ip, #0
 800037a:	eb7e 0000 	sbcs.w	r0, lr, r0
 800037e:	eb6e 0101 	sbc.w	r1, lr, r1
 8000382:	f5b1 1f80 	cmp.w	r1, #1048576	; 0x100000
 8000386:	d31b      	bcc.n	80003c0 <__adddf3+0x124>
 8000388:	f5b1 1f00 	cmp.w	r1, #2097152	; 0x200000
 800038c:	d30c      	bcc.n	80003a8 <__adddf3+0x10c>
 800038e:	0849      	lsrs	r1, r1, #1
 8000390:	ea5f 0030 	movs.w	r0, r0, rrx
 8000394:	ea4f 0c3c 	mov.w	ip, ip, rrx
 8000398:	f104 0401 	add.w	r4, r4, #1
 800039c:	ea4f 5244 	mov.w	r2, r4, lsl #21
 80003a0:	f512 0f80 	cmn.w	r2, #4194304	; 0x400000
 80003a4:	f080 809a 	bcs.w	80004dc <__adddf3+0x240>
 80003a8:	f1bc 4f00 	cmp.w	ip, #2147483648	; 0x80000000
 80003ac:	bf08      	it	eq
 80003ae:	ea5f 0c50 	movseq.w	ip, r0, lsr #1
 80003b2:	f150 0000 	adcs.w	r0, r0, #0
 80003b6:	eb41 5104 	adc.w	r1, r1, r4, lsl #20
 80003ba:	ea41 0105 	orr.w	r1, r1, r5
 80003be:	bd30      	pop	{r4, r5, pc}
 80003c0:	ea5f 0c4c 	movs.w	ip, ip, lsl #1
 80003c4:	4140      	adcs	r0, r0
 80003c6:	eb41 0101 	adc.w	r1, r1, r1
 80003ca:	3c01      	subs	r4, #1
 80003cc:	bf28      	it	cs
 80003ce:	f5b1 1f80 	cmpcs.w	r1, #1048576	; 0x100000
 80003d2:	d2e9      	bcs.n	80003a8 <__adddf3+0x10c>
 80003d4:	f091 0f00 	teq	r1, #0
 80003d8:	bf04      	itt	eq
 80003da:	4601      	moveq	r1, r0
 80003dc:	2000      	moveq	r0, #0
 80003de:	fab1 f381 	clz	r3, r1
 80003e2:	bf08      	it	eq
 80003e4:	3320      	addeq	r3, #32
 80003e6:	f1a3 030b 	sub.w	r3, r3, #11
 80003ea:	f1b3 0220 	subs.w	r2, r3, #32
 80003ee:	da0c      	bge.n	800040a <__adddf3+0x16e>
 80003f0:	320c      	adds	r2, #12
 80003f2:	dd08      	ble.n	8000406 <__adddf3+0x16a>
 80003f4:	f102 0c14 	add.w	ip, r2, #20
 80003f8:	f1c2 020c 	rsb	r2, r2, #12
 80003fc:	fa01 f00c 	lsl.w	r0, r1, ip
 8000400:	fa21 f102 	lsr.w	r1, r1, r2
 8000404:	e00c      	b.n	8000420 <__adddf3+0x184>
 8000406:	f102 0214 	add.w	r2, r2, #20
 800040a:	bfd8      	it	le
 800040c:	f1c2 0c20 	rsble	ip, r2, #32
 8000410:	fa01 f102 	lsl.w	r1, r1, r2
 8000414:	fa20 fc0c 	lsr.w	ip, r0, ip
 8000418:	bfdc      	itt	le
 800041a:	ea41 010c 	orrle.w	r1, r1, ip
 800041e:	4090      	lslle	r0, r2
 8000420:	1ae4      	subs	r4, r4, r3
 8000422:	bfa2      	ittt	ge
 8000424:	eb01 5104 	addge.w	r1, r1, r4, lsl #20
 8000428:	4329      	orrge	r1, r5
 800042a:	bd30      	popge	{r4, r5, pc}
 800042c:	ea6f 0404 	mvn.w	r4, r4
 8000430:	3c1f      	subs	r4, #31
 8000432:	da1c      	bge.n	800046e <__adddf3+0x1d2>
 8000434:	340c      	adds	r4, #12
 8000436:	dc0e      	bgt.n	8000456 <__adddf3+0x1ba>
 8000438:	f104 0414 	add.w	r4, r4, #20
 800043c:	f1c4 0220 	rsb	r2, r4, #32
 8000440:	fa20 f004 	lsr.w	r0, r0, r4
 8000444:	fa01 f302 	lsl.w	r3, r1, r2
 8000448:	ea40 0003 	orr.w	r0, r0, r3
 800044c:	fa21 f304 	lsr.w	r3, r1, r4
 8000450:	ea45 0103 	orr.w	r1, r5, r3
 8000454:	bd30      	pop	{r4, r5, pc}
 8000456:	f1c4 040c 	rsb	r4, r4, #12
 800045a:	f1c4 0220 	rsb	r2, r4, #32
 800045e:	fa20 f002 	lsr.w	r0, r0, r2
 8000462:	fa01 f304 	lsl.w	r3, r1, r4
 8000466:	ea40 0003 	orr.w	r0, r0, r3
 800046a:	4629      	mov	r1, r5
 800046c:	bd30      	pop	{r4, r5, pc}
 800046e:	fa21 f004 	lsr.w	r0, r1, r4
 8000472:	4629      	mov	r1, r5
 8000474:	bd30      	pop	{r4, r5, pc}
 8000476:	f094 0f00 	teq	r4, #0
 800047a:	f483 1380 	eor.w	r3, r3, #1048576	; 0x100000
 800047e:	bf06      	itte	eq
 8000480:	f481 1180 	eoreq.w	r1, r1, #1048576	; 0x100000
 8000484:	3401      	addeq	r4, #1
 8000486:	3d01      	subne	r5, #1
 8000488:	e74e      	b.n	8000328 <__adddf3+0x8c>
 800048a:	ea7f 5c64 	mvns.w	ip, r4, asr #21
 800048e:	bf18      	it	ne
 8000490:	ea7f 5c65 	mvnsne.w	ip, r5, asr #21
 8000494:	d029      	beq.n	80004ea <__adddf3+0x24e>
 8000496:	ea94 0f05 	teq	r4, r5
 800049a:	bf08      	it	eq
 800049c:	ea90 0f02 	teqeq	r0, r2
 80004a0:	d005      	beq.n	80004ae <__adddf3+0x212>
 80004a2:	ea54 0c00 	orrs.w	ip, r4, r0
 80004a6:	bf04      	itt	eq
 80004a8:	4619      	moveq	r1, r3
 80004aa:	4610      	moveq	r0, r2
 80004ac:	bd30      	pop	{r4, r5, pc}
 80004ae:	ea91 0f03 	teq	r1, r3
 80004b2:	bf1e      	ittt	ne
 80004b4:	2100      	movne	r1, #0
 80004b6:	2000      	movne	r0, #0
 80004b8:	bd30      	popne	{r4, r5, pc}
 80004ba:	ea5f 5c54 	movs.w	ip, r4, lsr #21
 80004be:	d105      	bne.n	80004cc <__adddf3+0x230>
 80004c0:	0040      	lsls	r0, r0, #1
 80004c2:	4149      	adcs	r1, r1
 80004c4:	bf28      	it	cs
 80004c6:	f041 4100 	orrcs.w	r1, r1, #2147483648	; 0x80000000
 80004ca:	bd30      	pop	{r4, r5, pc}
 80004cc:	f514 0480 	adds.w	r4, r4, #4194304	; 0x400000
 80004d0:	bf3c      	itt	cc
 80004d2:	f501 1180 	addcc.w	r1, r1, #1048576	; 0x100000
 80004d6:	bd30      	popcc	{r4, r5, pc}
 80004d8:	f001 4500 	and.w	r5, r1, #2147483648	; 0x80000000
 80004dc:	f045 41fe 	orr.w	r1, r5, #2130706432	; 0x7f000000
 80004e0:	f441 0170 	orr.w	r1, r1, #15728640	; 0xf00000
 80004e4:	f04f 0000 	mov.w	r0, #0
 80004e8:	bd30      	pop	{r4, r5, pc}
 80004ea:	ea7f 5c64 	mvns.w	ip, r4, asr #21
 80004ee:	bf1a      	itte	ne
 80004f0:	4619      	movne	r1, r3
 80004f2:	4610      	movne	r0, r2
 80004f4:	ea7f 5c65 	mvnseq.w	ip, r5, asr #21
 80004f8:	bf1c      	itt	ne
 80004fa:	460b      	movne	r3, r1
 80004fc:	4602      	movne	r2, r0
 80004fe:	ea50 3401 	orrs.w	r4, r0, r1, lsl #12
 8000502:	bf06      	itte	eq
 8000504:	ea52 3503 	orrseq.w	r5, r2, r3, lsl #12
 8000508:	ea91 0f03 	teqeq	r1, r3
 800050c:	f441 2100 	orrne.w	r1, r1, #524288	; 0x80000
 8000510:	bd30      	pop	{r4, r5, pc}
 8000512:	bf00      	nop

08000514 <__aeabi_ui2d>:
 8000514:	f090 0f00 	teq	r0, #0
 8000518:	bf04      	itt	eq
 800051a:	2100      	moveq	r1, #0
 800051c:	4770      	bxeq	lr
 800051e:	b530      	push	{r4, r5, lr}
 8000520:	f44f 6480 	mov.w	r4, #1024	; 0x400
 8000524:	f104 0432 	add.w	r4, r4, #50	; 0x32
 8000528:	f04f 0500 	mov.w	r5, #0
 800052c:	f04f 0100 	mov.w	r1, #0
 8000530:	e750      	b.n	80003d4 <__adddf3+0x138>
 8000532:	bf00      	nop

08000534 <__aeabi_i2d>:
 8000534:	f090 0f00 	teq	r0, #0
 8000538:	bf04      	itt	eq
 800053a:	2100      	moveq	r1, #0
 800053c:	4770      	bxeq	lr
 800053e:	b530      	push	{r4, r5, lr}
 8000540:	f44f 6480 	mov.w	r4, #1024	; 0x400
 8000544:	f104 0432 	add.w	r4, r4, #50	; 0x32
 8000548:	f010 4500 	ands.w	r5, r0, #2147483648	; 0x80000000
 800054c:	bf48      	it	mi
 800054e:	4240      	negmi	r0, r0
 8000550:	f04f 0100 	mov.w	r1, #0
 8000554:	e73e      	b.n	80003d4 <__adddf3+0x138>
 8000556:	bf00      	nop

08000558 <__aeabi_f2d>:
 8000558:	0042      	lsls	r2, r0, #1
 800055a:	ea4f 01e2 	mov.w	r1, r2, asr #3
 800055e:	ea4f 0131 	mov.w	r1, r1, rrx
 8000562:	ea4f 7002 	mov.w	r0, r2, lsl #28
 8000566:	bf1f      	itttt	ne
 8000568:	f012 437f 	andsne.w	r3, r2, #4278190080	; 0xff000000
 800056c:	f093 4f7f 	teqne	r3, #4278190080	; 0xff000000
 8000570:	f081 5160 	eorne.w	r1, r1, #939524096	; 0x38000000
 8000574:	4770      	bxne	lr
 8000576:	f032 427f 	bics.w	r2, r2, #4278190080	; 0xff000000
 800057a:	bf08      	it	eq
 800057c:	4770      	bxeq	lr
 800057e:	f093 4f7f 	teq	r3, #4278190080	; 0xff000000
 8000582:	bf04      	itt	eq
 8000584:	f441 2100 	orreq.w	r1, r1, #524288	; 0x80000
 8000588:	4770      	bxeq	lr
 800058a:	b530      	push	{r4, r5, lr}
 800058c:	f44f 7460 	mov.w	r4, #896	; 0x380
 8000590:	f001 4500 	and.w	r5, r1, #2147483648	; 0x80000000
 8000594:	f021 4100 	bic.w	r1, r1, #2147483648	; 0x80000000
 8000598:	e71c      	b.n	80003d4 <__adddf3+0x138>
 800059a:	bf00      	nop

0800059c <__aeabi_ul2d>:
 800059c:	ea50 0201 	orrs.w	r2, r0, r1
 80005a0:	bf08      	it	eq
 80005a2:	4770      	bxeq	lr
 80005a4:	b530      	push	{r4, r5, lr}
 80005a6:	f04f 0500 	mov.w	r5, #0
 80005aa:	e00a      	b.n	80005c2 <__aeabi_l2d+0x16>

080005ac <__aeabi_l2d>:
 80005ac:	ea50 0201 	orrs.w	r2, r0, r1
 80005b0:	bf08      	it	eq
 80005b2:	4770      	bxeq	lr
 80005b4:	b530      	push	{r4, r5, lr}
 80005b6:	f011 4500 	ands.w	r5, r1, #2147483648	; 0x80000000
 80005ba:	d502      	bpl.n	80005c2 <__aeabi_l2d+0x16>
 80005bc:	4240      	negs	r0, r0
 80005be:	eb61 0141 	sbc.w	r1, r1, r1, lsl #1
 80005c2:	f44f 6480 	mov.w	r4, #1024	; 0x400
 80005c6:	f104 0432 	add.w	r4, r4, #50	; 0x32
 80005ca:	ea5f 5c91 	movs.w	ip, r1, lsr #22
 80005ce:	f43f aed8 	beq.w	8000382 <__adddf3+0xe6>
 80005d2:	f04f 0203 	mov.w	r2, #3
 80005d6:	ea5f 0cdc 	movs.w	ip, ip, lsr #3
 80005da:	bf18      	it	ne
 80005dc:	3203      	addne	r2, #3
 80005de:	ea5f 0cdc 	movs.w	ip, ip, lsr #3
 80005e2:	bf18      	it	ne
 80005e4:	3203      	addne	r2, #3
 80005e6:	eb02 02dc 	add.w	r2, r2, ip, lsr #3
 80005ea:	f1c2 0320 	rsb	r3, r2, #32
 80005ee:	fa00 fc03 	lsl.w	ip, r0, r3
 80005f2:	fa20 f002 	lsr.w	r0, r0, r2
 80005f6:	fa01 fe03 	lsl.w	lr, r1, r3
 80005fa:	ea40 000e 	orr.w	r0, r0, lr
 80005fe:	fa21 f102 	lsr.w	r1, r1, r2
 8000602:	4414      	add	r4, r2
 8000604:	e6bd      	b.n	8000382 <__adddf3+0xe6>
 8000606:	bf00      	nop

08000608 <__aeabi_dmul>:
 8000608:	b570      	push	{r4, r5, r6, lr}
 800060a:	f04f 0cff 	mov.w	ip, #255	; 0xff
 800060e:	f44c 6ce0 	orr.w	ip, ip, #1792	; 0x700
 8000612:	ea1c 5411 	ands.w	r4, ip, r1, lsr #20
 8000616:	bf1d      	ittte	ne
 8000618:	ea1c 5513 	andsne.w	r5, ip, r3, lsr #20
 800061c:	ea94 0f0c 	teqne	r4, ip
 8000620:	ea95 0f0c 	teqne	r5, ip
 8000624:	f000 f8de 	bleq	80007e4 <__aeabi_dmul+0x1dc>
 8000628:	442c      	add	r4, r5
 800062a:	ea81 0603 	eor.w	r6, r1, r3
 800062e:	ea21 514c 	bic.w	r1, r1, ip, lsl #21
 8000632:	ea23 534c 	bic.w	r3, r3, ip, lsl #21
 8000636:	ea50 3501 	orrs.w	r5, r0, r1, lsl #12
 800063a:	bf18      	it	ne
 800063c:	ea52 3503 	orrsne.w	r5, r2, r3, lsl #12
 8000640:	f441 1180 	orr.w	r1, r1, #1048576	; 0x100000
 8000644:	f443 1380 	orr.w	r3, r3, #1048576	; 0x100000
 8000648:	d038      	beq.n	80006bc <__aeabi_dmul+0xb4>
 800064a:	fba0 ce02 	umull	ip, lr, r0, r2
 800064e:	f04f 0500 	mov.w	r5, #0
 8000652:	fbe1 e502 	umlal	lr, r5, r1, r2
 8000656:	f006 4200 	and.w	r2, r6, #2147483648	; 0x80000000
 800065a:	fbe0 e503 	umlal	lr, r5, r0, r3
 800065e:	f04f 0600 	mov.w	r6, #0
 8000662:	fbe1 5603 	umlal	r5, r6, r1, r3
 8000666:	f09c 0f00 	teq	ip, #0
 800066a:	bf18      	it	ne
 800066c:	f04e 0e01 	orrne.w	lr, lr, #1
 8000670:	f1a4 04ff 	sub.w	r4, r4, #255	; 0xff
 8000674:	f5b6 7f00 	cmp.w	r6, #512	; 0x200
 8000678:	f564 7440 	sbc.w	r4, r4, #768	; 0x300
 800067c:	d204      	bcs.n	8000688 <__aeabi_dmul+0x80>
 800067e:	ea5f 0e4e 	movs.w	lr, lr, lsl #1
 8000682:	416d      	adcs	r5, r5
 8000684:	eb46 0606 	adc.w	r6, r6, r6
 8000688:	ea42 21c6 	orr.w	r1, r2, r6, lsl #11
 800068c:	ea41 5155 	orr.w	r1, r1, r5, lsr #21
 8000690:	ea4f 20c5 	mov.w	r0, r5, lsl #11
 8000694:	ea40 505e 	orr.w	r0, r0, lr, lsr #21
 8000698:	ea4f 2ece 	mov.w	lr, lr, lsl #11
 800069c:	f1b4 0cfd 	subs.w	ip, r4, #253	; 0xfd
 80006a0:	bf88      	it	hi
 80006a2:	f5bc 6fe0 	cmphi.w	ip, #1792	; 0x700
 80006a6:	d81e      	bhi.n	80006e6 <__aeabi_dmul+0xde>
 80006a8:	f1be 4f00 	cmp.w	lr, #2147483648	; 0x80000000
 80006ac:	bf08      	it	eq
 80006ae:	ea5f 0e50 	movseq.w	lr, r0, lsr #1
 80006b2:	f150 0000 	adcs.w	r0, r0, #0
 80006b6:	eb41 5104 	adc.w	r1, r1, r4, lsl #20
 80006ba:	bd70      	pop	{r4, r5, r6, pc}
 80006bc:	f006 4600 	and.w	r6, r6, #2147483648	; 0x80000000
 80006c0:	ea46 0101 	orr.w	r1, r6, r1
 80006c4:	ea40 0002 	orr.w	r0, r0, r2
 80006c8:	ea81 0103 	eor.w	r1, r1, r3
 80006cc:	ebb4 045c 	subs.w	r4, r4, ip, lsr #1
 80006d0:	bfc2      	ittt	gt
 80006d2:	ebd4 050c 	rsbsgt	r5, r4, ip
 80006d6:	ea41 5104 	orrgt.w	r1, r1, r4, lsl #20
 80006da:	bd70      	popgt	{r4, r5, r6, pc}
 80006dc:	f441 1180 	orr.w	r1, r1, #1048576	; 0x100000
 80006e0:	f04f 0e00 	mov.w	lr, #0
 80006e4:	3c01      	subs	r4, #1
 80006e6:	f300 80ab 	bgt.w	8000840 <__aeabi_dmul+0x238>
 80006ea:	f114 0f36 	cmn.w	r4, #54	; 0x36
 80006ee:	bfde      	ittt	le
 80006f0:	2000      	movle	r0, #0
 80006f2:	f001 4100 	andle.w	r1, r1, #2147483648	; 0x80000000
 80006f6:	bd70      	pople	{r4, r5, r6, pc}
 80006f8:	f1c4 0400 	rsb	r4, r4, #0
 80006fc:	3c20      	subs	r4, #32
 80006fe:	da35      	bge.n	800076c <__aeabi_dmul+0x164>
 8000700:	340c      	adds	r4, #12
 8000702:	dc1b      	bgt.n	800073c <__aeabi_dmul+0x134>
 8000704:	f104 0414 	add.w	r4, r4, #20
 8000708:	f1c4 0520 	rsb	r5, r4, #32
 800070c:	fa00 f305 	lsl.w	r3, r0, r5
 8000710:	fa20 f004 	lsr.w	r0, r0, r4
 8000714:	fa01 f205 	lsl.w	r2, r1, r5
 8000718:	ea40 0002 	orr.w	r0, r0, r2
 800071c:	f001 4200 	and.w	r2, r1, #2147483648	; 0x80000000
 8000720:	f021 4100 	bic.w	r1, r1, #2147483648	; 0x80000000
 8000724:	eb10 70d3 	adds.w	r0, r0, r3, lsr #31
 8000728:	fa21 f604 	lsr.w	r6, r1, r4
 800072c:	eb42 0106 	adc.w	r1, r2, r6
 8000730:	ea5e 0e43 	orrs.w	lr, lr, r3, lsl #1
 8000734:	bf08      	it	eq
 8000736:	ea20 70d3 	biceq.w	r0, r0, r3, lsr #31
 800073a:	bd70      	pop	{r4, r5, r6, pc}
 800073c:	f1c4 040c 	rsb	r4, r4, #12
 8000740:	f1c4 0520 	rsb	r5, r4, #32
 8000744:	fa00 f304 	lsl.w	r3, r0, r4
 8000748:	fa20 f005 	lsr.w	r0, r0, r5
 800074c:	fa01 f204 	lsl.w	r2, r1, r4
 8000750:	ea40 0002 	orr.w	r0, r0, r2
 8000754:	f001 4100 	and.w	r1, r1, #2147483648	; 0x80000000
 8000758:	eb10 70d3 	adds.w	r0, r0, r3, lsr #31
 800075c:	f141 0100 	adc.w	r1, r1, #0
 8000760:	ea5e 0e43 	orrs.w	lr, lr, r3, lsl #1
 8000764:	bf08      	it	eq
 8000766:	ea20 70d3 	biceq.w	r0, r0, r3, lsr #31
 800076a:	bd70      	pop	{r4, r5, r6, pc}
 800076c:	f1c4 0520 	rsb	r5, r4, #32
 8000770:	fa00 f205 	lsl.w	r2, r0, r5
 8000774:	ea4e 0e02 	orr.w	lr, lr, r2
 8000778:	fa20 f304 	lsr.w	r3, r0, r4
 800077c:	fa01 f205 	lsl.w	r2, r1, r5
 8000780:	ea43 0302 	orr.w	r3, r3, r2
 8000784:	fa21 f004 	lsr.w	r0, r1, r4
 8000788:	f001 4100 	and.w	r1, r1, #2147483648	; 0x80000000
 800078c:	fa21 f204 	lsr.w	r2, r1, r4
 8000790:	ea20 0002 	bic.w	r0, r0, r2
 8000794:	eb00 70d3 	add.w	r0, r0, r3, lsr #31
 8000798:	ea5e 0e43 	orrs.w	lr, lr, r3, lsl #1
 800079c:	bf08      	it	eq
 800079e:	ea20 70d3 	biceq.w	r0, r0, r3, lsr #31
 80007a2:	bd70      	pop	{r4, r5, r6, pc}
 80007a4:	f094 0f00 	teq	r4, #0
 80007a8:	d10f      	bne.n	80007ca <__aeabi_dmul+0x1c2>
 80007aa:	f001 4600 	and.w	r6, r1, #2147483648	; 0x80000000
 80007ae:	0040      	lsls	r0, r0, #1
 80007b0:	eb41 0101 	adc.w	r1, r1, r1
 80007b4:	f411 1f80 	tst.w	r1, #1048576	; 0x100000
 80007b8:	bf08      	it	eq
 80007ba:	3c01      	subeq	r4, #1
 80007bc:	d0f7      	beq.n	80007ae <__aeabi_dmul+0x1a6>
 80007be:	ea41 0106 	orr.w	r1, r1, r6
 80007c2:	f095 0f00 	teq	r5, #0
 80007c6:	bf18      	it	ne
 80007c8:	4770      	bxne	lr
 80007ca:	f003 4600 	and.w	r6, r3, #2147483648	; 0x80000000
 80007ce:	0052      	lsls	r2, r2, #1
 80007d0:	eb43 0303 	adc.w	r3, r3, r3
 80007d4:	f413 1f80 	tst.w	r3, #1048576	; 0x100000
 80007d8:	bf08      	it	eq
 80007da:	3d01      	subeq	r5, #1
 80007dc:	d0f7      	beq.n	80007ce <__aeabi_dmul+0x1c6>
 80007de:	ea43 0306 	orr.w	r3, r3, r6
 80007e2:	4770      	bx	lr
 80007e4:	ea94 0f0c 	teq	r4, ip
 80007e8:	ea0c 5513 	and.w	r5, ip, r3, lsr #20
 80007ec:	bf18      	it	ne
 80007ee:	ea95 0f0c 	teqne	r5, ip
 80007f2:	d00c      	beq.n	800080e <__aeabi_dmul+0x206>
 80007f4:	ea50 0641 	orrs.w	r6, r0, r1, lsl #1
 80007f8:	bf18      	it	ne
 80007fa:	ea52 0643 	orrsne.w	r6, r2, r3, lsl #1
 80007fe:	d1d1      	bne.n	80007a4 <__aeabi_dmul+0x19c>
 8000800:	ea81 0103 	eor.w	r1, r1, r3
 8000804:	f001 4100 	and.w	r1, r1, #2147483648	; 0x80000000
 8000808:	f04f 0000 	mov.w	r0, #0
 800080c:	bd70      	pop	{r4, r5, r6, pc}
 800080e:	ea50 0641 	orrs.w	r6, r0, r1, lsl #1
 8000812:	bf06      	itte	eq
 8000814:	4610      	moveq	r0, r2
 8000816:	4619      	moveq	r1, r3
 8000818:	ea52 0643 	orrsne.w	r6, r2, r3, lsl #1
 800081c:	d019      	beq.n	8000852 <__aeabi_dmul+0x24a>
 800081e:	ea94 0f0c 	teq	r4, ip
 8000822:	d102      	bne.n	800082a <__aeabi_dmul+0x222>
 8000824:	ea50 3601 	orrs.w	r6, r0, r1, lsl #12
 8000828:	d113      	bne.n	8000852 <__aeabi_dmul+0x24a>
 800082a:	ea95 0f0c 	teq	r5, ip
 800082e:	d105      	bne.n	800083c <__aeabi_dmul+0x234>
 8000830:	ea52 3603 	orrs.w	r6, r2, r3, lsl #12
 8000834:	bf1c      	itt	ne
 8000836:	4610      	movne	r0, r2
 8000838:	4619      	movne	r1, r3
 800083a:	d10a      	bne.n	8000852 <__aeabi_dmul+0x24a>
 800083c:	ea81 0103 	eor.w	r1, r1, r3
 8000840:	f001 4100 	and.w	r1, r1, #2147483648	; 0x80000000
 8000844:	f041 41fe 	orr.w	r1, r1, #2130706432	; 0x7f000000
 8000848:	f441 0170 	orr.w	r1, r1, #15728640	; 0xf00000
 800084c:	f04f 0000 	mov.w	r0, #0
 8000850:	bd70      	pop	{r4, r5, r6, pc}
 8000852:	f041 41fe 	orr.w	r1, r1, #2130706432	; 0x7f000000
 8000856:	f441 0178 	orr.w	r1, r1, #16252928	; 0xf80000
 800085a:	bd70      	pop	{r4, r5, r6, pc}

0800085c <__aeabi_ddiv>:
 800085c:	b570      	push	{r4, r5, r6, lr}
 800085e:	f04f 0cff 	mov.w	ip, #255	; 0xff
 8000862:	f44c 6ce0 	orr.w	ip, ip, #1792	; 0x700
 8000866:	ea1c 5411 	ands.w	r4, ip, r1, lsr #20
 800086a:	bf1d      	ittte	ne
 800086c:	ea1c 5513 	andsne.w	r5, ip, r3, lsr #20
 8000870:	ea94 0f0c 	teqne	r4, ip
 8000874:	ea95 0f0c 	teqne	r5, ip
 8000878:	f000 f8a7 	bleq	80009ca <__aeabi_ddiv+0x16e>
 800087c:	eba4 0405 	sub.w	r4, r4, r5
 8000880:	ea81 0e03 	eor.w	lr, r1, r3
 8000884:	ea52 3503 	orrs.w	r5, r2, r3, lsl #12
 8000888:	ea4f 3101 	mov.w	r1, r1, lsl #12
 800088c:	f000 8088 	beq.w	80009a0 <__aeabi_ddiv+0x144>
 8000890:	ea4f 3303 	mov.w	r3, r3, lsl #12
 8000894:	f04f 5580 	mov.w	r5, #268435456	; 0x10000000
 8000898:	ea45 1313 	orr.w	r3, r5, r3, lsr #4
 800089c:	ea43 6312 	orr.w	r3, r3, r2, lsr #24
 80008a0:	ea4f 2202 	mov.w	r2, r2, lsl #8
 80008a4:	ea45 1511 	orr.w	r5, r5, r1, lsr #4
 80008a8:	ea45 6510 	orr.w	r5, r5, r0, lsr #24
 80008ac:	ea4f 2600 	mov.w	r6, r0, lsl #8
 80008b0:	f00e 4100 	and.w	r1, lr, #2147483648	; 0x80000000
 80008b4:	429d      	cmp	r5, r3
 80008b6:	bf08      	it	eq
 80008b8:	4296      	cmpeq	r6, r2
 80008ba:	f144 04fd 	adc.w	r4, r4, #253	; 0xfd
 80008be:	f504 7440 	add.w	r4, r4, #768	; 0x300
 80008c2:	d202      	bcs.n	80008ca <__aeabi_ddiv+0x6e>
 80008c4:	085b      	lsrs	r3, r3, #1
 80008c6:	ea4f 0232 	mov.w	r2, r2, rrx
 80008ca:	1ab6      	subs	r6, r6, r2
 80008cc:	eb65 0503 	sbc.w	r5, r5, r3
 80008d0:	085b      	lsrs	r3, r3, #1
 80008d2:	ea4f 0232 	mov.w	r2, r2, rrx
 80008d6:	f44f 1080 	mov.w	r0, #1048576	; 0x100000
 80008da:	f44f 2c00 	mov.w	ip, #524288	; 0x80000
 80008de:	ebb6 0e02 	subs.w	lr, r6, r2
 80008e2:	eb75 0e03 	sbcs.w	lr, r5, r3
 80008e6:	bf22      	ittt	cs
 80008e8:	1ab6      	subcs	r6, r6, r2
 80008ea:	4675      	movcs	r5, lr
 80008ec:	ea40 000c 	orrcs.w	r0, r0, ip
 80008f0:	085b      	lsrs	r3, r3, #1
 80008f2:	ea4f 0232 	mov.w	r2, r2, rrx
 80008f6:	ebb6 0e02 	subs.w	lr, r6, r2
 80008fa:	eb75 0e03 	sbcs.w	lr, r5, r3
 80008fe:	bf22      	ittt	cs
 8000900:	1ab6      	subcs	r6, r6, r2
 8000902:	4675      	movcs	r5, lr
 8000904:	ea40 005c 	orrcs.w	r0, r0, ip, lsr #1
 8000908:	085b      	lsrs	r3, r3, #1
 800090a:	ea4f 0232 	mov.w	r2, r2, rrx
 800090e:	ebb6 0e02 	subs.w	lr, r6, r2
 8000912:	eb75 0e03 	sbcs.w	lr, r5, r3
 8000916:	bf22      	ittt	cs
 8000918:	1ab6      	subcs	r6, r6, r2
 800091a:	4675      	movcs	r5, lr
 800091c:	ea40 009c 	orrcs.w	r0, r0, ip, lsr #2
 8000920:	085b      	lsrs	r3, r3, #1
 8000922:	ea4f 0232 	mov.w	r2, r2, rrx
 8000926:	ebb6 0e02 	subs.w	lr, r6, r2
 800092a:	eb75 0e03 	sbcs.w	lr, r5, r3
 800092e:	bf22      	ittt	cs
 8000930:	1ab6      	subcs	r6, r6, r2
 8000932:	4675      	movcs	r5, lr
 8000934:	ea40 00dc 	orrcs.w	r0, r0, ip, lsr #3
 8000938:	ea55 0e06 	orrs.w	lr, r5, r6
 800093c:	d018      	beq.n	8000970 <__aeabi_ddiv+0x114>
 800093e:	ea4f 1505 	mov.w	r5, r5, lsl #4
 8000942:	ea45 7516 	orr.w	r5, r5, r6, lsr #28
 8000946:	ea4f 1606 	mov.w	r6, r6, lsl #4
 800094a:	ea4f 03c3 	mov.w	r3, r3, lsl #3
 800094e:	ea43 7352 	orr.w	r3, r3, r2, lsr #29
 8000952:	ea4f 02c2 	mov.w	r2, r2, lsl #3
 8000956:	ea5f 1c1c 	movs.w	ip, ip, lsr #4
 800095a:	d1c0      	bne.n	80008de <__aeabi_ddiv+0x82>
 800095c:	f411 1f80 	tst.w	r1, #1048576	; 0x100000
 8000960:	d10b      	bne.n	800097a <__aeabi_ddiv+0x11e>
 8000962:	ea41 0100 	orr.w	r1, r1, r0
 8000966:	f04f 0000 	mov.w	r0, #0
 800096a:	f04f 4c00 	mov.w	ip, #2147483648	; 0x80000000
 800096e:	e7b6      	b.n	80008de <__aeabi_ddiv+0x82>
 8000970:	f411 1f80 	tst.w	r1, #1048576	; 0x100000
 8000974:	bf04      	itt	eq
 8000976:	4301      	orreq	r1, r0
 8000978:	2000      	moveq	r0, #0
 800097a:	f1b4 0cfd 	subs.w	ip, r4, #253	; 0xfd
 800097e:	bf88      	it	hi
 8000980:	f5bc 6fe0 	cmphi.w	ip, #1792	; 0x700
 8000984:	f63f aeaf 	bhi.w	80006e6 <__aeabi_dmul+0xde>
 8000988:	ebb5 0c03 	subs.w	ip, r5, r3
 800098c:	bf04      	itt	eq
 800098e:	ebb6 0c02 	subseq.w	ip, r6, r2
 8000992:	ea5f 0c50 	movseq.w	ip, r0, lsr #1
 8000996:	f150 0000 	adcs.w	r0, r0, #0
 800099a:	eb41 5104 	adc.w	r1, r1, r4, lsl #20
 800099e:	bd70      	pop	{r4, r5, r6, pc}
 80009a0:	f00e 4e00 	and.w	lr, lr, #2147483648	; 0x80000000
 80009a4:	ea4e 3111 	orr.w	r1, lr, r1, lsr #12
 80009a8:	eb14 045c 	adds.w	r4, r4, ip, lsr #1
 80009ac:	bfc2      	ittt	gt
 80009ae:	ebd4 050c 	rsbsgt	r5, r4, ip
 80009b2:	ea41 5104 	orrgt.w	r1, r1, r4, lsl #20
 80009b6:	bd70      	popgt	{r4, r5, r6, pc}
 80009b8:	f441 1180 	orr.w	r1, r1, #1048576	; 0x100000
 80009bc:	f04f 0e00 	mov.w	lr, #0
 80009c0:	3c01      	subs	r4, #1
 80009c2:	e690      	b.n	80006e6 <__aeabi_dmul+0xde>
 80009c4:	ea45 0e06 	orr.w	lr, r5, r6
 80009c8:	e68d      	b.n	80006e6 <__aeabi_dmul+0xde>
 80009ca:	ea0c 5513 	and.w	r5, ip, r3, lsr #20
 80009ce:	ea94 0f0c 	teq	r4, ip
 80009d2:	bf08      	it	eq
 80009d4:	ea95 0f0c 	teqeq	r5, ip
 80009d8:	f43f af3b 	beq.w	8000852 <__aeabi_dmul+0x24a>
 80009dc:	ea94 0f0c 	teq	r4, ip
 80009e0:	d10a      	bne.n	80009f8 <__aeabi_ddiv+0x19c>
 80009e2:	ea50 3401 	orrs.w	r4, r0, r1, lsl #12
 80009e6:	f47f af34 	bne.w	8000852 <__aeabi_dmul+0x24a>
 80009ea:	ea95 0f0c 	teq	r5, ip
 80009ee:	f47f af25 	bne.w	800083c <__aeabi_dmul+0x234>
 80009f2:	4610      	mov	r0, r2
 80009f4:	4619      	mov	r1, r3
 80009f6:	e72c      	b.n	8000852 <__aeabi_dmul+0x24a>
 80009f8:	ea95 0f0c 	teq	r5, ip
 80009fc:	d106      	bne.n	8000a0c <__aeabi_ddiv+0x1b0>
 80009fe:	ea52 3503 	orrs.w	r5, r2, r3, lsl #12
 8000a02:	f43f aefd 	beq.w	8000800 <__aeabi_dmul+0x1f8>
 8000a06:	4610      	mov	r0, r2
 8000a08:	4619      	mov	r1, r3
 8000a0a:	e722      	b.n	8000852 <__aeabi_dmul+0x24a>
 8000a0c:	ea50 0641 	orrs.w	r6, r0, r1, lsl #1
 8000a10:	bf18      	it	ne
 8000a12:	ea52 0643 	orrsne.w	r6, r2, r3, lsl #1
 8000a16:	f47f aec5 	bne.w	80007a4 <__aeabi_dmul+0x19c>
 8000a1a:	ea50 0441 	orrs.w	r4, r0, r1, lsl #1
 8000a1e:	f47f af0d 	bne.w	800083c <__aeabi_dmul+0x234>
 8000a22:	ea52 0543 	orrs.w	r5, r2, r3, lsl #1
 8000a26:	f47f aeeb 	bne.w	8000800 <__aeabi_dmul+0x1f8>
 8000a2a:	e712      	b.n	8000852 <__aeabi_dmul+0x24a>

08000a2c <__gedf2>:
 8000a2c:	f04f 3cff 	mov.w	ip, #4294967295
 8000a30:	e006      	b.n	8000a40 <__cmpdf2+0x4>
 8000a32:	bf00      	nop

08000a34 <__ledf2>:
 8000a34:	f04f 0c01 	mov.w	ip, #1
 8000a38:	e002      	b.n	8000a40 <__cmpdf2+0x4>
 8000a3a:	bf00      	nop

08000a3c <__cmpdf2>:
 8000a3c:	f04f 0c01 	mov.w	ip, #1
 8000a40:	f84d cd04 	str.w	ip, [sp, #-4]!
 8000a44:	ea4f 0c41 	mov.w	ip, r1, lsl #1
 8000a48:	ea7f 5c6c 	mvns.w	ip, ip, asr #21
 8000a4c:	ea4f 0c43 	mov.w	ip, r3, lsl #1
 8000a50:	bf18      	it	ne
 8000a52:	ea7f 5c6c 	mvnsne.w	ip, ip, asr #21
 8000a56:	d01b      	beq.n	8000a90 <__cmpdf2+0x54>
 8000a58:	b001      	add	sp, #4
 8000a5a:	ea50 0c41 	orrs.w	ip, r0, r1, lsl #1
 8000a5e:	bf0c      	ite	eq
 8000a60:	ea52 0c43 	orrseq.w	ip, r2, r3, lsl #1
 8000a64:	ea91 0f03 	teqne	r1, r3
 8000a68:	bf02      	ittt	eq
 8000a6a:	ea90 0f02 	teqeq	r0, r2
 8000a6e:	2000      	moveq	r0, #0
 8000a70:	4770      	bxeq	lr
 8000a72:	f110 0f00 	cmn.w	r0, #0
 8000a76:	ea91 0f03 	teq	r1, r3
 8000a7a:	bf58      	it	pl
 8000a7c:	4299      	cmppl	r1, r3
 8000a7e:	bf08      	it	eq
 8000a80:	4290      	cmpeq	r0, r2
 8000a82:	bf2c      	ite	cs
 8000a84:	17d8      	asrcs	r0, r3, #31
 8000a86:	ea6f 70e3 	mvncc.w	r0, r3, asr #31
 8000a8a:	f040 0001 	orr.w	r0, r0, #1
 8000a8e:	4770      	bx	lr
 8000a90:	ea4f 0c41 	mov.w	ip, r1, lsl #1
 8000a94:	ea7f 5c6c 	mvns.w	ip, ip, asr #21
 8000a98:	d102      	bne.n	8000aa0 <__cmpdf2+0x64>
 8000a9a:	ea50 3c01 	orrs.w	ip, r0, r1, lsl #12
 8000a9e:	d107      	bne.n	8000ab0 <__cmpdf2+0x74>
 8000aa0:	ea4f 0c43 	mov.w	ip, r3, lsl #1
 8000aa4:	ea7f 5c6c 	mvns.w	ip, ip, asr #21
 8000aa8:	d1d6      	bne.n	8000a58 <__cmpdf2+0x1c>
 8000aaa:	ea52 3c03 	orrs.w	ip, r2, r3, lsl #12
 8000aae:	d0d3      	beq.n	8000a58 <__cmpdf2+0x1c>
 8000ab0:	f85d 0b04 	ldr.w	r0, [sp], #4
 8000ab4:	4770      	bx	lr
 8000ab6:	bf00      	nop

08000ab8 <__aeabi_cdrcmple>:
 8000ab8:	4684      	mov	ip, r0
 8000aba:	4610      	mov	r0, r2
 8000abc:	4662      	mov	r2, ip
 8000abe:	468c      	mov	ip, r1
 8000ac0:	4619      	mov	r1, r3
 8000ac2:	4663      	mov	r3, ip
 8000ac4:	e000      	b.n	8000ac8 <__aeabi_cdcmpeq>
 8000ac6:	bf00      	nop

08000ac8 <__aeabi_cdcmpeq>:
 8000ac8:	b501      	push	{r0, lr}
 8000aca:	f7ff ffb7 	bl	8000a3c <__cmpdf2>
 8000ace:	2800      	cmp	r0, #0
 8000ad0:	bf48      	it	mi
 8000ad2:	f110 0f00 	cmnmi.w	r0, #0
 8000ad6:	bd01      	pop	{r0, pc}

08000ad8 <__aeabi_dcmpeq>:
 8000ad8:	f84d ed08 	str.w	lr, [sp, #-8]!
 8000adc:	f7ff fff4 	bl	8000ac8 <__aeabi_cdcmpeq>
 8000ae0:	bf0c      	ite	eq
 8000ae2:	2001      	moveq	r0, #1
 8000ae4:	2000      	movne	r0, #0
 8000ae6:	f85d fb08 	ldr.w	pc, [sp], #8
 8000aea:	bf00      	nop

08000aec <__aeabi_dcmplt>:
 8000aec:	f84d ed08 	str.w	lr, [sp, #-8]!
 8000af0:	f7ff ffea 	bl	8000ac8 <__aeabi_cdcmpeq>
 8000af4:	bf34      	ite	cc
 8000af6:	2001      	movcc	r0, #1
 8000af8:	2000      	movcs	r0, #0
 8000afa:	f85d fb08 	ldr.w	pc, [sp], #8
 8000afe:	bf00      	nop

08000b00 <__aeabi_dcmple>:
 8000b00:	f84d ed08 	str.w	lr, [sp, #-8]!
 8000b04:	f7ff ffe0 	bl	8000ac8 <__aeabi_cdcmpeq>
 8000b08:	bf94      	ite	ls
 8000b0a:	2001      	movls	r0, #1
 8000b0c:	2000      	movhi	r0, #0
 8000b0e:	f85d fb08 	ldr.w	pc, [sp], #8
 8000b12:	bf00      	nop

08000b14 <__aeabi_dcmpge>:
 8000b14:	f84d ed08 	str.w	lr, [sp, #-8]!
 8000b18:	f7ff ffce 	bl	8000ab8 <__aeabi_cdrcmple>
 8000b1c:	bf94      	ite	ls
 8000b1e:	2001      	movls	r0, #1
 8000b20:	2000      	movhi	r0, #0
 8000b22:	f85d fb08 	ldr.w	pc, [sp], #8
 8000b26:	bf00      	nop

08000b28 <__aeabi_dcmpgt>:
 8000b28:	f84d ed08 	str.w	lr, [sp, #-8]!
 8000b2c:	f7ff ffc4 	bl	8000ab8 <__aeabi_cdrcmple>
 8000b30:	bf34      	ite	cc
 8000b32:	2001      	movcc	r0, #1
 8000b34:	2000      	movcs	r0, #0
 8000b36:	f85d fb08 	ldr.w	pc, [sp], #8
 8000b3a:	bf00      	nop

08000b3c <__aeabi_d2iz>:
 8000b3c:	ea4f 0241 	mov.w	r2, r1, lsl #1
 8000b40:	f512 1200 	adds.w	r2, r2, #2097152	; 0x200000
 8000b44:	d215      	bcs.n	8000b72 <__aeabi_d2iz+0x36>
 8000b46:	d511      	bpl.n	8000b6c <__aeabi_d2iz+0x30>
 8000b48:	f46f 7378 	mvn.w	r3, #992	; 0x3e0
 8000b4c:	ebb3 5262 	subs.w	r2, r3, r2, asr #21
 8000b50:	d912      	bls.n	8000b78 <__aeabi_d2iz+0x3c>
 8000b52:	ea4f 23c1 	mov.w	r3, r1, lsl #11
 8000b56:	f043 4300 	orr.w	r3, r3, #2147483648	; 0x80000000
 8000b5a:	ea43 5350 	orr.w	r3, r3, r0, lsr #21
 8000b5e:	f011 4f00 	tst.w	r1, #2147483648	; 0x80000000
 8000b62:	fa23 f002 	lsr.w	r0, r3, r2
 8000b66:	bf18      	it	ne
 8000b68:	4240      	negne	r0, r0
 8000b6a:	4770      	bx	lr
 8000b6c:	f04f 0000 	mov.w	r0, #0
 8000b70:	4770      	bx	lr
 8000b72:	ea50 3001 	orrs.w	r0, r0, r1, lsl #12
 8000b76:	d105      	bne.n	8000b84 <__aeabi_d2iz+0x48>
 8000b78:	f011 4000 	ands.w	r0, r1, #2147483648	; 0x80000000
 8000b7c:	bf08      	it	eq
 8000b7e:	f06f 4000 	mvneq.w	r0, #2147483648	; 0x80000000
 8000b82:	4770      	bx	lr
 8000b84:	f04f 0000 	mov.w	r0, #0
 8000b88:	4770      	bx	lr
 8000b8a:	bf00      	nop

08000b8c <__aeabi_d2uiz>:
 8000b8c:	004a      	lsls	r2, r1, #1
 8000b8e:	d211      	bcs.n	8000bb4 <__aeabi_d2uiz+0x28>
 8000b90:	f512 1200 	adds.w	r2, r2, #2097152	; 0x200000
 8000b94:	d211      	bcs.n	8000bba <__aeabi_d2uiz+0x2e>
 8000b96:	d50d      	bpl.n	8000bb4 <__aeabi_d2uiz+0x28>
 8000b98:	f46f 7378 	mvn.w	r3, #992	; 0x3e0
 8000b9c:	ebb3 5262 	subs.w	r2, r3, r2, asr #21
 8000ba0:	d40e      	bmi.n	8000bc0 <__aeabi_d2uiz+0x34>
 8000ba2:	ea4f 23c1 	mov.w	r3, r1, lsl #11
 8000ba6:	f043 4300 	orr.w	r3, r3, #2147483648	; 0x80000000
 8000baa:	ea43 5350 	orr.w	r3, r3, r0, lsr #21
 8000bae:	fa23 f002 	lsr.w	r0, r3, r2
 8000bb2:	4770      	bx	lr
 8000bb4:	f04f 0000 	mov.w	r0, #0
 8000bb8:	4770      	bx	lr
 8000bba:	ea50 3001 	orrs.w	r0, r0, r1, lsl #12
 8000bbe:	d102      	bne.n	8000bc6 <__aeabi_d2uiz+0x3a>
 8000bc0:	f04f 30ff 	mov.w	r0, #4294967295
 8000bc4:	4770      	bx	lr
 8000bc6:	f04f 0000 	mov.w	r0, #0
 8000bca:	4770      	bx	lr

08000bcc <AppInit>:
 8000bcc:	4a02      	ldr	r2, [pc, #8]	; (8000bd8 <AppInit+0xc>)
 8000bce:	2300      	movs	r3, #0
 8000bd0:	6013      	str	r3, [r2, #0]
 8000bd2:	4a02      	ldr	r2, [pc, #8]	; (8000bdc <AppInit+0x10>)
 8000bd4:	6013      	str	r3, [r2, #0]
 8000bd6:	4770      	bx	lr
 8000bd8:	20000000 	.word	0x20000000
 8000bdc:	200047a8 	.word	0x200047a8

08000be0 <AppLoop>:
 8000be0:	e92d 41f0 	stmdb	sp!, {r4, r5, r6, r7, r8, lr}
 8000be4:	4cb7      	ldr	r4, [pc, #732]	; (8000ec4 <AppLoop+0x2e4>)
 8000be6:	6825      	ldr	r5, [r4, #0]
 8000be8:	b09e      	sub	sp, #120	; 0x78
 8000bea:	2d00      	cmp	r5, #0
 8000bec:	d131      	bne.n	8000c52 <AppLoop+0x72>
 8000bee:	4bb6      	ldr	r3, [pc, #728]	; (8000ec8 <AppLoop+0x2e8>)
 8000bf0:	48b6      	ldr	r0, [pc, #728]	; (8000ecc <AppLoop+0x2ec>)
 8000bf2:	681a      	ldr	r2, [r3, #0]
 8000bf4:	f022 0240 	bic.w	r2, r2, #64	; 0x40
 8000bf8:	601a      	str	r2, [r3, #0]
 8000bfa:	4ab5      	ldr	r2, [pc, #724]	; (8000ed0 <AppLoop+0x2f0>)
 8000bfc:	6811      	ldr	r1, [r2, #0]
 8000bfe:	680a      	ldr	r2, [r1, #0]
 8000c00:	f022 0238 	bic.w	r2, r2, #56	; 0x38
 8000c04:	600a      	str	r2, [r1, #0]
 8000c06:	681a      	ldr	r2, [r3, #0]
 8000c08:	f042 0240 	orr.w	r2, r2, #64	; 0x40
 8000c0c:	601a      	str	r2, [r3, #0]
 8000c0e:	4629      	mov	r1, r5
 8000c10:	462a      	mov	r2, r5
 8000c12:	f00b f8f7 	bl	800be04 <f_BMP>
 8000c16:	4baf      	ldr	r3, [pc, #700]	; (8000ed4 <AppLoop+0x2f4>)
 8000c18:	6822      	ldr	r2, [r4, #0]
 8000c1a:	681b      	ldr	r3, [r3, #0]
 8000c1c:	49ae      	ldr	r1, [pc, #696]	; (8000ed8 <AppLoop+0x2f8>)
 8000c1e:	ae05      	add	r6, sp, #20
 8000c20:	4630      	mov	r0, r6
 8000c22:	f00c fb6f 	bl	800d304 <siprintf>
 8000c26:	210a      	movs	r1, #10
 8000c28:	2302      	movs	r3, #2
 8000c2a:	4608      	mov	r0, r1
 8000c2c:	e9cd 6300 	strd	r6, r3, [sp]
 8000c30:	f64f 72ff 	movw	r2, #65535	; 0xffff
 8000c34:	f44f 4378 	mov.w	r3, #63488	; 0xf800
 8000c38:	f008 fae0 	bl	80091fc <ILI9341_Draw_String>
 8000c3c:	4ba7      	ldr	r3, [pc, #668]	; (8000edc <AppLoop+0x2fc>)
 8000c3e:	9300      	str	r3, [sp, #0]
 8000c40:	462a      	mov	r2, r5
 8000c42:	2312      	movs	r3, #18
 8000c44:	21c8      	movs	r1, #200	; 0xc8
 8000c46:	2022      	movs	r0, #34	; 0x22
 8000c48:	f00b fa2a 	bl	800c0a0 <BOW>
 8000c4c:	6823      	ldr	r3, [r4, #0]
 8000c4e:	3301      	adds	r3, #1
 8000c50:	6023      	str	r3, [r4, #0]
 8000c52:	6825      	ldr	r5, [r4, #0]
 8000c54:	2d02      	cmp	r5, #2
 8000c56:	d130      	bne.n	8000cba <AppLoop+0xda>
 8000c58:	4b9b      	ldr	r3, [pc, #620]	; (8000ec8 <AppLoop+0x2e8>)
 8000c5a:	48a1      	ldr	r0, [pc, #644]	; (8000ee0 <AppLoop+0x300>)
 8000c5c:	681a      	ldr	r2, [r3, #0]
 8000c5e:	f022 0240 	bic.w	r2, r2, #64	; 0x40
 8000c62:	601a      	str	r2, [r3, #0]
 8000c64:	4a9a      	ldr	r2, [pc, #616]	; (8000ed0 <AppLoop+0x2f0>)
 8000c66:	6811      	ldr	r1, [r2, #0]
 8000c68:	680a      	ldr	r2, [r1, #0]
 8000c6a:	f022 0238 	bic.w	r2, r2, #56	; 0x38
 8000c6e:	600a      	str	r2, [r1, #0]
 8000c70:	681a      	ldr	r2, [r3, #0]
 8000c72:	f042 0240 	orr.w	r2, r2, #64	; 0x40
 8000c76:	601a      	str	r2, [r3, #0]
 8000c78:	2200      	movs	r2, #0
 8000c7a:	4611      	mov	r1, r2
 8000c7c:	f00b f8c2 	bl	800be04 <f_BMP>
 8000c80:	4b94      	ldr	r3, [pc, #592]	; (8000ed4 <AppLoop+0x2f4>)
 8000c82:	6822      	ldr	r2, [r4, #0]
 8000c84:	681b      	ldr	r3, [r3, #0]
 8000c86:	4994      	ldr	r1, [pc, #592]	; (8000ed8 <AppLoop+0x2f8>)
 8000c88:	ae05      	add	r6, sp, #20
 8000c8a:	4630      	mov	r0, r6
 8000c8c:	f00c fb3a 	bl	800d304 <siprintf>
 8000c90:	210a      	movs	r1, #10
 8000c92:	4608      	mov	r0, r1
 8000c94:	f44f 4378 	mov.w	r3, #63488	; 0xf800
 8000c98:	f64f 72ff 	movw	r2, #65535	; 0xffff
 8000c9c:	e9cd 6500 	strd	r6, r5, [sp]
 8000ca0:	f008 faac 	bl	80091fc <ILI9341_Draw_String>
 8000ca4:	4b8d      	ldr	r3, [pc, #564]	; (8000edc <AppLoop+0x2fc>)
 8000ca6:	9300      	str	r3, [sp, #0]
 8000ca8:	2200      	movs	r2, #0
 8000caa:	2312      	movs	r3, #18
 8000cac:	21c8      	movs	r1, #200	; 0xc8
 8000cae:	2022      	movs	r0, #34	; 0x22
 8000cb0:	f00b f9f6 	bl	800c0a0 <BOW>
 8000cb4:	6823      	ldr	r3, [r4, #0]
 8000cb6:	3301      	adds	r3, #1
 8000cb8:	6023      	str	r3, [r4, #0]
 8000cba:	6825      	ldr	r5, [r4, #0]
 8000cbc:	2d04      	cmp	r5, #4
 8000cbe:	d127      	bne.n	8000d10 <AppLoop+0x130>
 8000cc0:	f00b fd10 	bl	800c6e4 <FondoCompletoAzul>
 8000cc4:	4887      	ldr	r0, [pc, #540]	; (8000ee4 <AppLoop+0x304>)
 8000cc6:	f00b fb73 	bl	800c3b0 <Encabezamiento3>
 8000cca:	4987      	ldr	r1, [pc, #540]	; (8000ee8 <AppLoop+0x308>)
 8000ccc:	f44f 62fa 	mov.w	r2, #2000	; 0x7d0
 8000cd0:	2000      	movs	r0, #0
 8000cd2:	f00b ffcf 	bl	800cc74 <MenuSet>
 8000cd6:	4985      	ldr	r1, [pc, #532]	; (8000eec <AppLoop+0x30c>)
 8000cd8:	f640 0234 	movw	r2, #2100	; 0x834
 8000cdc:	2001      	movs	r0, #1
 8000cde:	f00b ffc9 	bl	800cc74 <MenuSet>
 8000ce2:	4983      	ldr	r1, [pc, #524]	; (8000ef0 <AppLoop+0x310>)
 8000ce4:	f640 0298 	movw	r2, #2200	; 0x898
 8000ce8:	2002      	movs	r0, #2
 8000cea:	f00b ffc3 	bl	800cc74 <MenuSet>
 8000cee:	4981      	ldr	r1, [pc, #516]	; (8000ef4 <AppLoop+0x314>)
 8000cf0:	f640 02fc 	movw	r2, #2300	; 0x8fc
 8000cf4:	2003      	movs	r0, #3
 8000cf6:	f00b ffbd 	bl	800cc74 <MenuSet>
 8000cfa:	497f      	ldr	r1, [pc, #508]	; (8000ef8 <AppLoop+0x318>)
 8000cfc:	f241 3288 	movw	r2, #5000	; 0x1388
 8000d00:	4628      	mov	r0, r5
 8000d02:	f00b ffb7 	bl	800cc74 <MenuSet>
 8000d06:	f00b ffe5 	bl	800ccd4 <MenuPrint>
 8000d0a:	6823      	ldr	r3, [r4, #0]
 8000d0c:	3301      	adds	r3, #1
 8000d0e:	6023      	str	r3, [r4, #0]
 8000d10:	6822      	ldr	r2, [r4, #0]
 8000d12:	f241 3388 	movw	r3, #5000	; 0x1388
 8000d16:	429a      	cmp	r2, r3
 8000d18:	d115      	bne.n	8000d46 <AppLoop+0x166>
 8000d1a:	f00b fce3 	bl	800c6e4 <FondoCompletoAzul>
 8000d1e:	4877      	ldr	r0, [pc, #476]	; (8000efc <AppLoop+0x31c>)
 8000d20:	f00b fb46 	bl	800c3b0 <Encabezamiento3>
 8000d24:	4976      	ldr	r1, [pc, #472]	; (8000f00 <AppLoop+0x320>)
 8000d26:	f241 4250 	movw	r2, #5200	; 0x1450
 8000d2a:	2000      	movs	r0, #0
 8000d2c:	f00b ffa2 	bl	800cc74 <MenuSet>
 8000d30:	4974      	ldr	r1, [pc, #464]	; (8000f04 <AppLoop+0x324>)
 8000d32:	f241 32f6 	movw	r2, #5110	; 0x13f6
 8000d36:	2001      	movs	r0, #1
 8000d38:	f00b ff9c 	bl	800cc74 <MenuSet>
 8000d3c:	f00b ffca 	bl	800ccd4 <MenuPrint>
 8000d40:	6823      	ldr	r3, [r4, #0]
 8000d42:	3301      	adds	r3, #1
 8000d44:	6023      	str	r3, [r4, #0]
 8000d46:	6822      	ldr	r2, [r4, #0]
 8000d48:	f241 4350 	movw	r3, #5200	; 0x1450
 8000d4c:	429a      	cmp	r2, r3
 8000d4e:	d121      	bne.n	8000d94 <AppLoop+0x1b4>
 8000d50:	f00b fcc8 	bl	800c6e4 <FondoCompletoAzul>
 8000d54:	486c      	ldr	r0, [pc, #432]	; (8000f08 <AppLoop+0x328>)
 8000d56:	f00b fb2b 	bl	800c3b0 <Encabezamiento3>
 8000d5a:	496c      	ldr	r1, [pc, #432]	; (8000f0c <AppLoop+0x32c>)
 8000d5c:	f241 425a 	movw	r2, #5210	; 0x145a
 8000d60:	2000      	movs	r0, #0
 8000d62:	f00b ff87 	bl	800cc74 <MenuSet>
 8000d66:	496a      	ldr	r1, [pc, #424]	; (8000f10 <AppLoop+0x330>)
 8000d68:	f241 4264 	movw	r2, #5220	; 0x1464
 8000d6c:	2001      	movs	r0, #1
 8000d6e:	f00b ff81 	bl	800cc74 <MenuSet>
 8000d72:	4968      	ldr	r1, [pc, #416]	; (8000f14 <AppLoop+0x334>)
 8000d74:	f241 426e 	movw	r2, #5230	; 0x146e
 8000d78:	2002      	movs	r0, #2
 8000d7a:	f00b ff7b 	bl	800cc74 <MenuSet>
 8000d7e:	4966      	ldr	r1, [pc, #408]	; (8000f18 <AppLoop+0x338>)
 8000d80:	f241 4278 	movw	r2, #5240	; 0x1478
 8000d84:	2003      	movs	r0, #3
 8000d86:	f00b ff75 	bl	800cc74 <MenuSet>
 8000d8a:	f00b ffa3 	bl	800ccd4 <MenuPrint>
 8000d8e:	6823      	ldr	r3, [r4, #0]
 8000d90:	3301      	adds	r3, #1
 8000d92:	6023      	str	r3, [r4, #0]
 8000d94:	6822      	ldr	r2, [r4, #0]
 8000d96:	f241 435a 	movw	r3, #5210	; 0x145a
 8000d9a:	429a      	cmp	r2, r3
 8000d9c:	d10a      	bne.n	8000db4 <AppLoop+0x1d4>
 8000d9e:	f00b fca1 	bl	800c6e4 <FondoCompletoAzul>
 8000da2:	485e      	ldr	r0, [pc, #376]	; (8000f1c <AppLoop+0x33c>)
 8000da4:	f00b fb04 	bl	800c3b0 <Encabezamiento3>
 8000da8:	485d      	ldr	r0, [pc, #372]	; (8000f20 <AppLoop+0x340>)
 8000daa:	f00a fdbf 	bl	800b92c <f_TECLADO_ALFA_open>
 8000dae:	6823      	ldr	r3, [r4, #0]
 8000db0:	3301      	adds	r3, #1
 8000db2:	6023      	str	r3, [r4, #0]
 8000db4:	6822      	ldr	r2, [r4, #0]
 8000db6:	f241 4364 	movw	r3, #5220	; 0x1464
 8000dba:	429a      	cmp	r2, r3
 8000dbc:	d10a      	bne.n	8000dd4 <AppLoop+0x1f4>
 8000dbe:	f00b fc91 	bl	800c6e4 <FondoCompletoAzul>
 8000dc2:	4858      	ldr	r0, [pc, #352]	; (8000f24 <AppLoop+0x344>)
 8000dc4:	f00b faf4 	bl	800c3b0 <Encabezamiento3>
 8000dc8:	4855      	ldr	r0, [pc, #340]	; (8000f20 <AppLoop+0x340>)
 8000dca:	f00a fdaf 	bl	800b92c <f_TECLADO_ALFA_open>
 8000dce:	6823      	ldr	r3, [r4, #0]
 8000dd0:	3301      	adds	r3, #1
 8000dd2:	6023      	str	r3, [r4, #0]
 8000dd4:	6823      	ldr	r3, [r4, #0]
 8000dd6:	f241 4282 	movw	r2, #5250	; 0x1482
 8000dda:	4293      	cmp	r3, r2
 8000ddc:	d111      	bne.n	8000e02 <AppLoop+0x222>
 8000dde:	4a52      	ldr	r2, [pc, #328]	; (8000f28 <AppLoop+0x348>)
 8000de0:	4952      	ldr	r1, [pc, #328]	; (8000f2c <AppLoop+0x34c>)
 8000de2:	2300      	movs	r3, #0
 8000de4:	f882 302c 	strb.w	r3, [r2, #44]	; 0x2c
 8000de8:	a805      	add	r0, sp, #20
 8000dea:	f00c fa8b 	bl	800d304 <siprintf>
 8000dee:	f241 4350 	movw	r3, #5200	; 0x1450
 8000df2:	6023      	str	r3, [r4, #0]
 8000df4:	6822      	ldr	r2, [r4, #0]
 8000df6:	f241 4378 	movw	r3, #5240	; 0x1478
 8000dfa:	429a      	cmp	r2, r3
 8000dfc:	d110      	bne.n	8000e20 <AppLoop+0x240>
 8000dfe:	494c      	ldr	r1, [pc, #304]	; (8000f30 <AppLoop+0x350>)
 8000e00:	e023      	b.n	8000e4a <AppLoop+0x26a>
 8000e02:	f241 428c 	movw	r2, #5260	; 0x148c
 8000e06:	4293      	cmp	r3, r2
 8000e08:	d11a      	bne.n	8000e40 <AppLoop+0x260>
 8000e0a:	4a47      	ldr	r2, [pc, #284]	; (8000f28 <AppLoop+0x348>)
 8000e0c:	4949      	ldr	r1, [pc, #292]	; (8000f34 <AppLoop+0x354>)
 8000e0e:	2300      	movs	r3, #0
 8000e10:	f882 302c 	strb.w	r3, [r2, #44]	; 0x2c
 8000e14:	a805      	add	r0, sp, #20
 8000e16:	f00c fa75 	bl	800d304 <siprintf>
 8000e1a:	f241 4350 	movw	r3, #5200	; 0x1450
 8000e1e:	6023      	str	r3, [r4, #0]
 8000e20:	6822      	ldr	r2, [r4, #0]
 8000e22:	f241 33f6 	movw	r3, #5110	; 0x13f6
 8000e26:	429a      	cmp	r2, r3
 8000e28:	d115      	bne.n	8000e56 <AppLoop+0x276>
 8000e2a:	f00b fc5b 	bl	800c6e4 <FondoCompletoAzul>
 8000e2e:	4842      	ldr	r0, [pc, #264]	; (8000f38 <AppLoop+0x358>)
 8000e30:	f00b fabe 	bl	800c3b0 <Encabezamiento3>
 8000e34:	483a      	ldr	r0, [pc, #232]	; (8000f20 <AppLoop+0x340>)
 8000e36:	f00a fd79 	bl	800b92c <f_TECLADO_ALFA_open>
 8000e3a:	6823      	ldr	r3, [r4, #0]
 8000e3c:	3301      	adds	r3, #1
 8000e3e:	e009      	b.n	8000e54 <AppLoop+0x274>
 8000e40:	f241 426e 	movw	r2, #5230	; 0x146e
 8000e44:	4293      	cmp	r3, r2
 8000e46:	d1d5      	bne.n	8000df4 <AppLoop+0x214>
 8000e48:	493c      	ldr	r1, [pc, #240]	; (8000f3c <AppLoop+0x35c>)
 8000e4a:	a805      	add	r0, sp, #20
 8000e4c:	f00c faae 	bl	800d3ac <strcpy>
 8000e50:	f241 4350 	movw	r3, #5200	; 0x1450
 8000e54:	6023      	str	r3, [r4, #0]
 8000e56:	6823      	ldr	r3, [r4, #0]
 8000e58:	f5b3 5fa0 	cmp.w	r3, #5120	; 0x1400
 8000e5c:	f040 8480 	bne.w	8001760 <AppLoop+0xb80>
 8000e60:	4b31      	ldr	r3, [pc, #196]	; (8000f28 <AppLoop+0x348>)
 8000e62:	781a      	ldrb	r2, [r3, #0]
 8000e64:	2a31      	cmp	r2, #49	; 0x31
 8000e66:	d175      	bne.n	8000f54 <AppLoop+0x374>
 8000e68:	785a      	ldrb	r2, [r3, #1]
 8000e6a:	2a32      	cmp	r2, #50	; 0x32
 8000e6c:	d172      	bne.n	8000f54 <AppLoop+0x374>
 8000e6e:	789b      	ldrb	r3, [r3, #2]
 8000e70:	2b33      	cmp	r3, #51	; 0x33
 8000e72:	d16f      	bne.n	8000f54 <AppLoop+0x374>
 8000e74:	f241 33ec 	movw	r3, #5100	; 0x13ec
 8000e78:	6023      	str	r3, [r4, #0]
 8000e7a:	f00b fc33 	bl	800c6e4 <FondoCompletoAzul>
 8000e7e:	4830      	ldr	r0, [pc, #192]	; (8000f40 <AppLoop+0x360>)
 8000e80:	f00b fa96 	bl	800c3b0 <Encabezamiento3>
 8000e84:	492f      	ldr	r1, [pc, #188]	; (8000f44 <AppLoop+0x364>)
 8000e86:	f241 420a 	movw	r2, #5130	; 0x140a
 8000e8a:	2000      	movs	r0, #0
 8000e8c:	f00b fef2 	bl	800cc74 <MenuSet>
 8000e90:	492d      	ldr	r1, [pc, #180]	; (8000f48 <AppLoop+0x368>)
 8000e92:	f241 4228 	movw	r2, #5160	; 0x1428
 8000e96:	2001      	movs	r0, #1
 8000e98:	f00b feec 	bl	800cc74 <MenuSet>
 8000e9c:	492b      	ldr	r1, [pc, #172]	; (8000f4c <AppLoop+0x36c>)
 8000e9e:	f241 4232 	movw	r2, #5170	; 0x1432
 8000ea2:	2002      	movs	r0, #2
 8000ea4:	f00b fee6 	bl	800cc74 <MenuSet>
 8000ea8:	4929      	ldr	r1, [pc, #164]	; (8000f50 <AppLoop+0x370>)
 8000eaa:	f241 423c 	movw	r2, #5180	; 0x143c
 8000eae:	2003      	movs	r0, #3
 8000eb0:	f00b fee0 	bl	800cc74 <MenuSet>
 8000eb4:	f00b ff0e 	bl	800ccd4 <MenuPrint>
 8000eb8:	6823      	ldr	r3, [r4, #0]
 8000eba:	3301      	adds	r3, #1
 8000ebc:	6023      	str	r3, [r4, #0]
 8000ebe:	f000 bc54 	b.w	800176a <AppLoop+0xb8a>
 8000ec2:	bf00      	nop
 8000ec4:	200047a8 	.word	0x200047a8
 8000ec8:	40003c00 	.word	0x40003c00
 8000ecc:	0800ecf8 	.word	0x0800ecf8
 8000ed0:	200093c0 	.word	0x200093c0
 8000ed4:	200088e0 	.word	0x200088e0
 8000ed8:	0800ed12 	.word	0x0800ed12
 8000edc:	0800f14e 	.word	0x0800f14e
 8000ee0:	0800ed18 	.word	0x0800ed18
 8000ee4:	0800ed32 	.word	0x0800ed32
 8000ee8:	0800ed41 	.word	0x0800ed41
 8000eec:	0800ed56 	.word	0x0800ed56
 8000ef0:	0800ed6b 	.word	0x0800ed6b
 8000ef4:	0800ed80 	.word	0x0800ed80
 8000ef8:	0800ed95 	.word	0x0800ed95
 8000efc:	0800ee2a 	.word	0x0800ee2a
 8000f00:	0800edaa 	.word	0x0800edaa
 8000f04:	0800edbf 	.word	0x0800edbf
 8000f08:	0800edd4 	.word	0x0800edd4
 8000f0c:	0800ede4 	.word	0x0800ede4
 8000f10:	0800edf9 	.word	0x0800edf9
 8000f14:	0800ee0e 	.word	0x0800ee0e
 8000f18:	0800ee23 	.word	0x0800ee23
 8000f1c:	0800ee38 	.word	0x0800ee38
 8000f20:	2000020c 	.word	0x2000020c
 8000f24:	0800ee42 	.word	0x0800ee42
 8000f28:	20009f6c 	.word	0x20009f6c
 8000f2c:	0800ee4d 	.word	0x0800ee4d
 8000f30:	0800ee60 	.word	0x0800ee60
 8000f34:	0800ee54 	.word	0x0800ee54
 8000f38:	0800ee65 	.word	0x0800ee65
 8000f3c:	0800ee5b 	.word	0x0800ee5b
 8000f40:	0800ee7b 	.word	0x0800ee7b
 8000f44:	0800ee92 	.word	0x0800ee92
 8000f48:	0800eea9 	.word	0x0800eea9
 8000f4c:	0800eec0 	.word	0x0800eec0
 8000f50:	0800eed7 	.word	0x0800eed7
 8000f54:	2304      	movs	r3, #4
 8000f56:	6023      	str	r3, [r4, #0]
 8000f58:	6822      	ldr	r2, [r4, #0]
 8000f5a:	f241 4328 	movw	r3, #5160	; 0x1428
 8000f5e:	429a      	cmp	r2, r3
 8000f60:	d10f      	bne.n	8000f82 <AppLoop+0x3a2>
 8000f62:	f00b fbbf 	bl	800c6e4 <FondoCompletoAzul>
 8000f66:	48cc      	ldr	r0, [pc, #816]	; (8001298 <AppLoop+0x6b8>)
 8000f68:	f00b fa22 	bl	800c3b0 <Encabezamiento3>
 8000f6c:	49cb      	ldr	r1, [pc, #812]	; (800129c <AppLoop+0x6bc>)
 8000f6e:	f241 422a 	movw	r2, #5162	; 0x142a
 8000f72:	2000      	movs	r0, #0
 8000f74:	f00b fe7e 	bl	800cc74 <MenuSet>
 8000f78:	f00b feac 	bl	800ccd4 <MenuPrint>
 8000f7c:	6823      	ldr	r3, [r4, #0]
 8000f7e:	3301      	adds	r3, #1
 8000f80:	6023      	str	r3, [r4, #0]
 8000f82:	6822      	ldr	r2, [r4, #0]
 8000f84:	f241 4332 	movw	r3, #5170	; 0x1432
 8000f88:	429a      	cmp	r2, r3
 8000f8a:	d10f      	bne.n	8000fac <AppLoop+0x3cc>
 8000f8c:	f00b fbaa 	bl	800c6e4 <FondoCompletoAzul>
 8000f90:	48c3      	ldr	r0, [pc, #780]	; (80012a0 <AppLoop+0x6c0>)
 8000f92:	f00b fa0d 	bl	800c3b0 <Encabezamiento3>
 8000f96:	49c3      	ldr	r1, [pc, #780]	; (80012a4 <AppLoop+0x6c4>)
 8000f98:	f241 4234 	movw	r2, #5172	; 0x1434
 8000f9c:	2000      	movs	r0, #0
 8000f9e:	f00b fe69 	bl	800cc74 <MenuSet>
 8000fa2:	f00b fe97 	bl	800ccd4 <MenuPrint>
 8000fa6:	6823      	ldr	r3, [r4, #0]
 8000fa8:	3301      	adds	r3, #1
 8000faa:	6023      	str	r3, [r4, #0]
 8000fac:	6822      	ldr	r2, [r4, #0]
 8000fae:	f241 433c 	movw	r3, #5180	; 0x143c
 8000fb2:	429a      	cmp	r2, r3
 8000fb4:	d115      	bne.n	8000fe2 <AppLoop+0x402>
 8000fb6:	f00b fb95 	bl	800c6e4 <FondoCompletoAzul>
 8000fba:	48bb      	ldr	r0, [pc, #748]	; (80012a8 <AppLoop+0x6c8>)
 8000fbc:	f00b f9f8 	bl	800c3b0 <Encabezamiento3>
 8000fc0:	49ba      	ldr	r1, [pc, #744]	; (80012ac <AppLoop+0x6cc>)
 8000fc2:	f241 423e 	movw	r2, #5182	; 0x143e
 8000fc6:	2000      	movs	r0, #0
 8000fc8:	f00b fe54 	bl	800cc74 <MenuSet>
 8000fcc:	49b8      	ldr	r1, [pc, #736]	; (80012b0 <AppLoop+0x6d0>)
 8000fce:	f44f 52a2 	mov.w	r2, #5184	; 0x1440
 8000fd2:	2001      	movs	r0, #1
 8000fd4:	f00b fe4e 	bl	800cc74 <MenuSet>
 8000fd8:	f00b fe7c 	bl	800ccd4 <MenuPrint>
 8000fdc:	6823      	ldr	r3, [r4, #0]
 8000fde:	3301      	adds	r3, #1
 8000fe0:	6023      	str	r3, [r4, #0]
 8000fe2:	6822      	ldr	r2, [r4, #0]
 8000fe4:	f241 432a 	movw	r3, #5162	; 0x142a
 8000fe8:	429a      	cmp	r2, r3
 8000fea:	d17a      	bne.n	80010e2 <AppLoop+0x502>
 8000fec:	f00b fb7a 	bl	800c6e4 <FondoCompletoAzul>
 8000ff0:	48b0      	ldr	r0, [pc, #704]	; (80012b4 <AppLoop+0x6d4>)
 8000ff2:	4fb1      	ldr	r7, [pc, #708]	; (80012b8 <AppLoop+0x6d8>)
 8000ff4:	f00b f9dc 	bl	800c3b0 <Encabezamiento3>
 8000ff8:	4ab0      	ldr	r2, [pc, #704]	; (80012bc <AppLoop+0x6dc>)
 8000ffa:	49b1      	ldr	r1, [pc, #708]	; (80012c0 <AppLoop+0x6e0>)
 8000ffc:	48b1      	ldr	r0, [pc, #708]	; (80012c4 <AppLoop+0x6e4>)
 8000ffe:	2312      	movs	r3, #18
 8001000:	f00a fad4 	bl	800b5ac <f_PEL_open>
 8001004:	2602      	movs	r6, #2
 8001006:	4bb0      	ldr	r3, [pc, #704]	; (80012c8 <AppLoop+0x6e8>)
 8001008:	9300      	str	r3, [sp, #0]
 800100a:	f64f 72ff 	movw	r2, #65535	; 0xffff
 800100e:	2310      	movs	r3, #16
 8001010:	2123      	movs	r1, #35	; 0x23
 8001012:	201b      	movs	r0, #27
 8001014:	9601      	str	r6, [sp, #4]
 8001016:	f008 f8f1 	bl	80091fc <ILI9341_Draw_String>
 800101a:	f44f 4878 	mov.w	r8, #63488	; 0xf800
 800101e:	4bab      	ldr	r3, [pc, #684]	; (80012cc <AppLoop+0x6ec>)
 8001020:	9301      	str	r3, [sp, #4]
 8001022:	2206      	movs	r2, #6
 8001024:	f64f 73ff 	movw	r3, #65535	; 0xffff
 8001028:	2137      	movs	r1, #55	; 0x37
 800102a:	2025      	movs	r0, #37	; 0x25
 800102c:	f8cd 8000 	str.w	r8, [sp]
 8001030:	f00b fb66 	bl	800c700 <DPMChico>
 8001034:	48a6      	ldr	r0, [pc, #664]	; (80012d0 <AppLoop+0x6f0>)
 8001036:	2300      	movs	r3, #0
 8001038:	2253      	movs	r2, #83	; 0x53
 800103a:	4631      	mov	r1, r6
 800103c:	2500      	movs	r5, #0
 800103e:	f00b fe05 	bl	800cc4c <BOT>
 8001042:	48a4      	ldr	r0, [pc, #656]	; (80012d4 <AppLoop+0x6f4>)
 8001044:	2300      	movs	r3, #0
 8001046:	2253      	movs	r2, #83	; 0x53
 8001048:	217f      	movs	r1, #127	; 0x7f
 800104a:	f00b fdff 	bl	800cc4c <BOT>
 800104e:	489d      	ldr	r0, [pc, #628]	; (80012c4 <AppLoop+0x6e4>)
 8001050:	462b      	mov	r3, r5
 8001052:	225f      	movs	r2, #95	; 0x5f
 8001054:	2123      	movs	r1, #35	; 0x23
 8001056:	e9cd 5500 	strd	r5, r5, [sp]
 800105a:	f00a fbdf 	bl	800b81c <f_PEL>
 800105e:	2304      	movs	r3, #4
 8001060:	462a      	mov	r2, r5
 8001062:	21ca      	movs	r1, #202	; 0xca
 8001064:	2033      	movs	r0, #51	; 0x33
 8001066:	9700      	str	r7, [sp, #0]
 8001068:	f00b f81a 	bl	800c0a0 <BOW>
 800106c:	4b9a      	ldr	r3, [pc, #616]	; (80012d8 <AppLoop+0x6f8>)
 800106e:	9300      	str	r3, [sp, #0]
 8001070:	f64f 72ff 	movw	r2, #65535	; 0xffff
 8001074:	2310      	movs	r3, #16
 8001076:	2123      	movs	r1, #35	; 0x23
 8001078:	20b2      	movs	r0, #178	; 0xb2
 800107a:	9601      	str	r6, [sp, #4]
 800107c:	f008 f8be 	bl	80091fc <ILI9341_Draw_String>
 8001080:	4b96      	ldr	r3, [pc, #600]	; (80012dc <AppLoop+0x6fc>)
 8001082:	2206      	movs	r2, #6
 8001084:	e9cd 8300 	strd	r8, r3, [sp]
 8001088:	2137      	movs	r1, #55	; 0x37
 800108a:	f64f 73ff 	movw	r3, #65535	; 0xffff
 800108e:	20c5      	movs	r0, #197	; 0xc5
 8001090:	f00b fb36 	bl	800c700 <DPMChico>
 8001094:	488e      	ldr	r0, [pc, #568]	; (80012d0 <AppLoop+0x6f0>)
 8001096:	462b      	mov	r3, r5
 8001098:	2253      	movs	r2, #83	; 0x53
 800109a:	21a2      	movs	r1, #162	; 0xa2
 800109c:	f00b fdd6 	bl	800cc4c <BOT>
 80010a0:	488c      	ldr	r0, [pc, #560]	; (80012d4 <AppLoop+0x6f4>)
 80010a2:	462b      	mov	r3, r5
 80010a4:	2253      	movs	r2, #83	; 0x53
 80010a6:	f240 111f 	movw	r1, #287	; 0x11f
 80010aa:	f00b fdcf 	bl	800cc4c <BOT>
 80010ae:	4885      	ldr	r0, [pc, #532]	; (80012c4 <AppLoop+0x6e4>)
 80010b0:	462b      	mov	r3, r5
 80010b2:	225f      	movs	r2, #95	; 0x5f
 80010b4:	21c3      	movs	r1, #195	; 0xc3
 80010b6:	e9cd 5500 	strd	r5, r5, [sp]
 80010ba:	f00a fbaf 	bl	800b81c <f_PEL>
 80010be:	2304      	movs	r3, #4
 80010c0:	462a      	mov	r2, r5
 80010c2:	21ca      	movs	r1, #202	; 0xca
 80010c4:	20d3      	movs	r0, #211	; 0xd3
 80010c6:	9700      	str	r7, [sp, #0]
 80010c8:	f00a ffea 	bl	800c0a0 <BOW>
 80010cc:	4b84      	ldr	r3, [pc, #528]	; (80012e0 <AppLoop+0x700>)
 80010ce:	9300      	str	r3, [sp, #0]
 80010d0:	462a      	mov	r2, r5
 80010d2:	2306      	movs	r3, #6
 80010d4:	21ca      	movs	r1, #202	; 0xca
 80010d6:	2075      	movs	r0, #117	; 0x75
 80010d8:	f00a ffe2 	bl	800c0a0 <BOW>
 80010dc:	6823      	ldr	r3, [r4, #0]
 80010de:	3301      	adds	r3, #1
 80010e0:	6023      	str	r3, [r4, #0]
 80010e2:	6822      	ldr	r2, [r4, #0]
 80010e4:	f241 4334 	movw	r3, #5172	; 0x1434
 80010e8:	429a      	cmp	r2, r3
 80010ea:	d17a      	bne.n	80011e2 <AppLoop+0x602>
 80010ec:	f00b fafa 	bl	800c6e4 <FondoCompletoAzul>
 80010f0:	487c      	ldr	r0, [pc, #496]	; (80012e4 <AppLoop+0x704>)
 80010f2:	4f71      	ldr	r7, [pc, #452]	; (80012b8 <AppLoop+0x6d8>)
 80010f4:	f00b f95c 	bl	800c3b0 <Encabezamiento3>
 80010f8:	4a70      	ldr	r2, [pc, #448]	; (80012bc <AppLoop+0x6dc>)
 80010fa:	4971      	ldr	r1, [pc, #452]	; (80012c0 <AppLoop+0x6e0>)
 80010fc:	4871      	ldr	r0, [pc, #452]	; (80012c4 <AppLoop+0x6e4>)
 80010fe:	2312      	movs	r3, #18
 8001100:	f00a fa54 	bl	800b5ac <f_PEL_open>
 8001104:	2602      	movs	r6, #2
 8001106:	4b78      	ldr	r3, [pc, #480]	; (80012e8 <AppLoop+0x708>)
 8001108:	9300      	str	r3, [sp, #0]
 800110a:	f64f 72ff 	movw	r2, #65535	; 0xffff
 800110e:	2310      	movs	r3, #16
 8001110:	2123      	movs	r1, #35	; 0x23
 8001112:	201b      	movs	r0, #27
 8001114:	9601      	str	r6, [sp, #4]
 8001116:	f008 f871 	bl	80091fc <ILI9341_Draw_String>
 800111a:	f44f 4878 	mov.w	r8, #63488	; 0xf800
 800111e:	4b73      	ldr	r3, [pc, #460]	; (80012ec <AppLoop+0x70c>)
 8001120:	9301      	str	r3, [sp, #4]
 8001122:	2206      	movs	r2, #6
 8001124:	f64f 73ff 	movw	r3, #65535	; 0xffff
 8001128:	2137      	movs	r1, #55	; 0x37
 800112a:	2025      	movs	r0, #37	; 0x25
 800112c:	f8cd 8000 	str.w	r8, [sp]
 8001130:	f00b fae6 	bl	800c700 <DPMChico>
 8001134:	4866      	ldr	r0, [pc, #408]	; (80012d0 <AppLoop+0x6f0>)
 8001136:	2300      	movs	r3, #0
 8001138:	2253      	movs	r2, #83	; 0x53
 800113a:	4631      	mov	r1, r6
 800113c:	2500      	movs	r5, #0
 800113e:	f00b fd85 	bl	800cc4c <BOT>
 8001142:	4864      	ldr	r0, [pc, #400]	; (80012d4 <AppLoop+0x6f4>)
 8001144:	2300      	movs	r3, #0
 8001146:	2253      	movs	r2, #83	; 0x53
 8001148:	217f      	movs	r1, #127	; 0x7f
 800114a:	f00b fd7f 	bl	800cc4c <BOT>
 800114e:	485d      	ldr	r0, [pc, #372]	; (80012c4 <AppLoop+0x6e4>)
 8001150:	462b      	mov	r3, r5
 8001152:	225f      	movs	r2, #95	; 0x5f
 8001154:	2123      	movs	r1, #35	; 0x23
 8001156:	e9cd 5500 	strd	r5, r5, [sp]
 800115a:	f00a fb5f 	bl	800b81c <f_PEL>
 800115e:	2304      	movs	r3, #4
 8001160:	462a      	mov	r2, r5
 8001162:	21ca      	movs	r1, #202	; 0xca
 8001164:	2033      	movs	r0, #51	; 0x33
 8001166:	9700      	str	r7, [sp, #0]
 8001168:	f00a ff9a 	bl	800c0a0 <BOW>
 800116c:	4b60      	ldr	r3, [pc, #384]	; (80012f0 <AppLoop+0x710>)
 800116e:	9300      	str	r3, [sp, #0]
 8001170:	f64f 72ff 	movw	r2, #65535	; 0xffff
 8001174:	2310      	movs	r3, #16
 8001176:	2123      	movs	r1, #35	; 0x23
 8001178:	20b2      	movs	r0, #178	; 0xb2
 800117a:	9601      	str	r6, [sp, #4]
 800117c:	f008 f83e 	bl	80091fc <ILI9341_Draw_String>
 8001180:	4b5c      	ldr	r3, [pc, #368]	; (80012f4 <AppLoop+0x714>)
 8001182:	2206      	movs	r2, #6
 8001184:	e9cd 8300 	strd	r8, r3, [sp]
 8001188:	2137      	movs	r1, #55	; 0x37
 800118a:	f64f 73ff 	movw	r3, #65535	; 0xffff
 800118e:	20c5      	movs	r0, #197	; 0xc5
 8001190:	f00b fab6 	bl	800c700 <DPMChico>
 8001194:	484e      	ldr	r0, [pc, #312]	; (80012d0 <AppLoop+0x6f0>)
 8001196:	462b      	mov	r3, r5
 8001198:	2253      	movs	r2, #83	; 0x53
 800119a:	21a2      	movs	r1, #162	; 0xa2
 800119c:	f00b fd56 	bl	800cc4c <BOT>
 80011a0:	484c      	ldr	r0, [pc, #304]	; (80012d4 <AppLoop+0x6f4>)
 80011a2:	462b      	mov	r3, r5
 80011a4:	2253      	movs	r2, #83	; 0x53
 80011a6:	f240 111f 	movw	r1, #287	; 0x11f
 80011aa:	f00b fd4f 	bl	800cc4c <BOT>
 80011ae:	4845      	ldr	r0, [pc, #276]	; (80012c4 <AppLoop+0x6e4>)
 80011b0:	462b      	mov	r3, r5
 80011b2:	225f      	movs	r2, #95	; 0x5f
 80011b4:	21c3      	movs	r1, #195	; 0xc3
 80011b6:	e9cd 5500 	strd	r5, r5, [sp]
 80011ba:	f00a fb2f 	bl	800b81c <f_PEL>
 80011be:	2304      	movs	r3, #4
 80011c0:	462a      	mov	r2, r5
 80011c2:	21ca      	movs	r1, #202	; 0xca
 80011c4:	20d3      	movs	r0, #211	; 0xd3
 80011c6:	9700      	str	r7, [sp, #0]
 80011c8:	f00a ff6a 	bl	800c0a0 <BOW>
 80011cc:	4b44      	ldr	r3, [pc, #272]	; (80012e0 <AppLoop+0x700>)
 80011ce:	9300      	str	r3, [sp, #0]
 80011d0:	462a      	mov	r2, r5
 80011d2:	2306      	movs	r3, #6
 80011d4:	21ca      	movs	r1, #202	; 0xca
 80011d6:	2075      	movs	r0, #117	; 0x75
 80011d8:	f00a ff62 	bl	800c0a0 <BOW>
 80011dc:	6823      	ldr	r3, [r4, #0]
 80011de:	3301      	adds	r3, #1
 80011e0:	6023      	str	r3, [r4, #0]
 80011e2:	6822      	ldr	r2, [r4, #0]
 80011e4:	f241 433e 	movw	r3, #5182	; 0x143e
 80011e8:	429a      	cmp	r2, r3
 80011ea:	f040 80b6 	bne.w	800135a <AppLoop+0x77a>
 80011ee:	f00b fa79 	bl	800c6e4 <FondoCompletoAzul>
 80011f2:	4841      	ldr	r0, [pc, #260]	; (80012f8 <AppLoop+0x718>)
 80011f4:	4f30      	ldr	r7, [pc, #192]	; (80012b8 <AppLoop+0x6d8>)
 80011f6:	f00b f8db 	bl	800c3b0 <Encabezamiento3>
 80011fa:	4a30      	ldr	r2, [pc, #192]	; (80012bc <AppLoop+0x6dc>)
 80011fc:	4930      	ldr	r1, [pc, #192]	; (80012c0 <AppLoop+0x6e0>)
 80011fe:	4831      	ldr	r0, [pc, #196]	; (80012c4 <AppLoop+0x6e4>)
 8001200:	2312      	movs	r3, #18
 8001202:	f00a f9d3 	bl	800b5ac <f_PEL_open>
 8001206:	2602      	movs	r6, #2
 8001208:	4b3c      	ldr	r3, [pc, #240]	; (80012fc <AppLoop+0x71c>)
 800120a:	9300      	str	r3, [sp, #0]
 800120c:	f64f 72ff 	movw	r2, #65535	; 0xffff
 8001210:	2310      	movs	r3, #16
 8001212:	2123      	movs	r1, #35	; 0x23
 8001214:	2011      	movs	r0, #17
 8001216:	9601      	str	r6, [sp, #4]
 8001218:	f007 fff0 	bl	80091fc <ILI9341_Draw_String>
 800121c:	f44f 4878 	mov.w	r8, #63488	; 0xf800
 8001220:	4b37      	ldr	r3, [pc, #220]	; (8001300 <AppLoop+0x720>)
 8001222:	9301      	str	r3, [sp, #4]
 8001224:	2206      	movs	r2, #6
 8001226:	f64f 73ff 	movw	r3, #65535	; 0xffff
 800122a:	2137      	movs	r1, #55	; 0x37
 800122c:	2025      	movs	r0, #37	; 0x25
 800122e:	f8cd 8000 	str.w	r8, [sp]
 8001232:	f00b fa65 	bl	800c700 <DPMChico>
 8001236:	4826      	ldr	r0, [pc, #152]	; (80012d0 <AppLoop+0x6f0>)
 8001238:	2300      	movs	r3, #0
 800123a:	2253      	movs	r2, #83	; 0x53
 800123c:	4631      	mov	r1, r6
 800123e:	2500      	movs	r5, #0
 8001240:	f00b fd04 	bl	800cc4c <BOT>
 8001244:	4823      	ldr	r0, [pc, #140]	; (80012d4 <AppLoop+0x6f4>)
 8001246:	2300      	movs	r3, #0
 8001248:	2253      	movs	r2, #83	; 0x53
 800124a:	217f      	movs	r1, #127	; 0x7f
 800124c:	f00b fcfe 	bl	800cc4c <BOT>
 8001250:	481c      	ldr	r0, [pc, #112]	; (80012c4 <AppLoop+0x6e4>)
 8001252:	462b      	mov	r3, r5
 8001254:	225f      	movs	r2, #95	; 0x5f
 8001256:	2123      	movs	r1, #35	; 0x23
 8001258:	e9cd 5500 	strd	r5, r5, [sp]
 800125c:	f00a fade 	bl	800b81c <f_PEL>
 8001260:	2304      	movs	r3, #4
 8001262:	462a      	mov	r2, r5
 8001264:	21ca      	movs	r1, #202	; 0xca
 8001266:	2033      	movs	r0, #51	; 0x33
 8001268:	9700      	str	r7, [sp, #0]
 800126a:	f00a ff19 	bl	800c0a0 <BOW>
 800126e:	4b25      	ldr	r3, [pc, #148]	; (8001304 <AppLoop+0x724>)
 8001270:	9300      	str	r3, [sp, #0]
 8001272:	f64f 72ff 	movw	r2, #65535	; 0xffff
 8001276:	2310      	movs	r3, #16
 8001278:	2123      	movs	r1, #35	; 0x23
 800127a:	20a8      	movs	r0, #168	; 0xa8
 800127c:	9601      	str	r6, [sp, #4]
 800127e:	f007 ffbd 	bl	80091fc <ILI9341_Draw_String>
 8001282:	4b21      	ldr	r3, [pc, #132]	; (8001308 <AppLoop+0x728>)
 8001284:	2206      	movs	r2, #6
 8001286:	e9cd 8300 	strd	r8, r3, [sp]
 800128a:	2137      	movs	r1, #55	; 0x37
 800128c:	f64f 73ff 	movw	r3, #65535	; 0xffff
 8001290:	20c5      	movs	r0, #197	; 0xc5
 8001292:	f00b fa35 	bl	800c700 <DPMChico>
 8001296:	e039      	b.n	800130c <AppLoop+0x72c>
 8001298:	0800ef55 	.word	0x0800ef55
 800129c:	0800ef65 	.word	0x0800ef65
 80012a0:	0800ef7c 	.word	0x0800ef7c
 80012a4:	0800ef88 	.word	0x0800ef88
 80012a8:	0800ef9f 	.word	0x0800ef9f
 80012ac:	0800efaa 	.word	0x0800efaa
 80012b0:	0800efbf 	.word	0x0800efbf
 80012b4:	0800efd4 	.word	0x0800efd4
 80012b8:	0800ef4c 	.word	0x0800ef4c
 80012bc:	0800efe9 	.word	0x0800efe9
 80012c0:	0800ef5c 	.word	0x0800ef5c
 80012c4:	2000136c 	.word	0x2000136c
 80012c8:	0800eff1 	.word	0x0800eff1
 80012cc:	0800effd 	.word	0x0800effd
 80012d0:	08010134 	.word	0x08010134
 80012d4:	0800fe57 	.word	0x0800fe57
 80012d8:	0800f002 	.word	0x0800f002
 80012dc:	0800f010 	.word	0x0800f010
 80012e0:	0800ef4f 	.word	0x0800ef4f
 80012e4:	0800f016 	.word	0x0800f016
 80012e8:	0800f02b 	.word	0x0800f02b
 80012ec:	0800f039 	.word	0x0800f039
 80012f0:	0800f03e 	.word	0x0800f03e
 80012f4:	0800f04e 	.word	0x0800f04e
 80012f8:	0800f054 	.word	0x0800f054
 80012fc:	0800f065 	.word	0x0800f065
 8001300:	0800f075 	.word	0x0800f075
 8001304:	0800f07b 	.word	0x0800f07b
 8001308:	0800f08e 	.word	0x0800f08e
 800130c:	48bb      	ldr	r0, [pc, #748]	; (80015fc <AppLoop+0xa1c>)
 800130e:	462b      	mov	r3, r5
 8001310:	2253      	movs	r2, #83	; 0x53
 8001312:	21a2      	movs	r1, #162	; 0xa2
 8001314:	f00b fc9a 	bl	800cc4c <BOT>
 8001318:	48b9      	ldr	r0, [pc, #740]	; (8001600 <AppLoop+0xa20>)
 800131a:	462b      	mov	r3, r5
 800131c:	2253      	movs	r2, #83	; 0x53
 800131e:	f240 111f 	movw	r1, #287	; 0x11f
 8001322:	f00b fc93 	bl	800cc4c <BOT>
 8001326:	48b7      	ldr	r0, [pc, #732]	; (8001604 <AppLoop+0xa24>)
 8001328:	462b      	mov	r3, r5
 800132a:	225f      	movs	r2, #95	; 0x5f
 800132c:	21c3      	movs	r1, #195	; 0xc3
 800132e:	e9cd 5500 	strd	r5, r5, [sp]
 8001332:	f00a fa73 	bl	800b81c <f_PEL>
 8001336:	2304      	movs	r3, #4
 8001338:	462a      	mov	r2, r5
 800133a:	21ca      	movs	r1, #202	; 0xca
 800133c:	20d3      	movs	r0, #211	; 0xd3
 800133e:	9700      	str	r7, [sp, #0]
 8001340:	f00a feae 	bl	800c0a0 <BOW>
 8001344:	4bb0      	ldr	r3, [pc, #704]	; (8001608 <AppLoop+0xa28>)
 8001346:	9300      	str	r3, [sp, #0]
 8001348:	462a      	mov	r2, r5
 800134a:	2306      	movs	r3, #6
 800134c:	21ca      	movs	r1, #202	; 0xca
 800134e:	2075      	movs	r0, #117	; 0x75
 8001350:	f00a fea6 	bl	800c0a0 <BOW>
 8001354:	6823      	ldr	r3, [r4, #0]
 8001356:	3301      	adds	r3, #1
 8001358:	6023      	str	r3, [r4, #0]
 800135a:	6823      	ldr	r3, [r4, #0]
 800135c:	f5b3 5fa2 	cmp.w	r3, #5184	; 0x1440
 8001360:	d17a      	bne.n	8001458 <AppLoop+0x878>
 8001362:	f00b f9bf 	bl	800c6e4 <FondoCompletoAzul>
 8001366:	48a9      	ldr	r0, [pc, #676]	; (800160c <AppLoop+0xa2c>)
 8001368:	4fa9      	ldr	r7, [pc, #676]	; (8001610 <AppLoop+0xa30>)
 800136a:	f00b f821 	bl	800c3b0 <Encabezamiento3>
 800136e:	4aa9      	ldr	r2, [pc, #676]	; (8001614 <AppLoop+0xa34>)
 8001370:	49a9      	ldr	r1, [pc, #676]	; (8001618 <AppLoop+0xa38>)
 8001372:	48a4      	ldr	r0, [pc, #656]	; (8001604 <AppLoop+0xa24>)
 8001374:	2312      	movs	r3, #18
 8001376:	f00a f919 	bl	800b5ac <f_PEL_open>
 800137a:	2602      	movs	r6, #2
 800137c:	4ba7      	ldr	r3, [pc, #668]	; (800161c <AppLoop+0xa3c>)
 800137e:	9300      	str	r3, [sp, #0]
 8001380:	f64f 72ff 	movw	r2, #65535	; 0xffff
 8001384:	2310      	movs	r3, #16
 8001386:	2123      	movs	r1, #35	; 0x23
 8001388:	2021      	movs	r0, #33	; 0x21
 800138a:	9601      	str	r6, [sp, #4]
 800138c:	f007 ff36 	bl	80091fc <ILI9341_Draw_String>
 8001390:	f44f 4878 	mov.w	r8, #63488	; 0xf800
 8001394:	4ba2      	ldr	r3, [pc, #648]	; (8001620 <AppLoop+0xa40>)
 8001396:	9301      	str	r3, [sp, #4]
 8001398:	2206      	movs	r2, #6
 800139a:	f64f 73ff 	movw	r3, #65535	; 0xffff
 800139e:	2137      	movs	r1, #55	; 0x37
 80013a0:	2025      	movs	r0, #37	; 0x25
 80013a2:	f8cd 8000 	str.w	r8, [sp]
 80013a6:	f00b f9ab 	bl	800c700 <DPMChico>
 80013aa:	4894      	ldr	r0, [pc, #592]	; (80015fc <AppLoop+0xa1c>)
 80013ac:	2300      	movs	r3, #0
 80013ae:	2253      	movs	r2, #83	; 0x53
 80013b0:	4631      	mov	r1, r6
 80013b2:	2500      	movs	r5, #0
 80013b4:	f00b fc4a 	bl	800cc4c <BOT>
 80013b8:	4891      	ldr	r0, [pc, #580]	; (8001600 <AppLoop+0xa20>)
 80013ba:	2300      	movs	r3, #0
 80013bc:	2253      	movs	r2, #83	; 0x53
 80013be:	217f      	movs	r1, #127	; 0x7f
 80013c0:	f00b fc44 	bl	800cc4c <BOT>
 80013c4:	488f      	ldr	r0, [pc, #572]	; (8001604 <AppLoop+0xa24>)
 80013c6:	462b      	mov	r3, r5
 80013c8:	225f      	movs	r2, #95	; 0x5f
 80013ca:	2123      	movs	r1, #35	; 0x23
 80013cc:	e9cd 5500 	strd	r5, r5, [sp]
 80013d0:	f00a fa24 	bl	800b81c <f_PEL>
 80013d4:	2304      	movs	r3, #4
 80013d6:	462a      	mov	r2, r5
 80013d8:	21ca      	movs	r1, #202	; 0xca
 80013da:	2033      	movs	r0, #51	; 0x33
 80013dc:	9700      	str	r7, [sp, #0]
 80013de:	f00a fe5f 	bl	800c0a0 <BOW>
 80013e2:	4b90      	ldr	r3, [pc, #576]	; (8001624 <AppLoop+0xa44>)
 80013e4:	9300      	str	r3, [sp, #0]
 80013e6:	f64f 72ff 	movw	r2, #65535	; 0xffff
 80013ea:	2310      	movs	r3, #16
 80013ec:	2123      	movs	r1, #35	; 0x23
 80013ee:	20bb      	movs	r0, #187	; 0xbb
 80013f0:	9601      	str	r6, [sp, #4]
 80013f2:	f007 ff03 	bl	80091fc <ILI9341_Draw_String>
 80013f6:	4b8c      	ldr	r3, [pc, #560]	; (8001628 <AppLoop+0xa48>)
 80013f8:	2206      	movs	r2, #6
 80013fa:	e9cd 8300 	strd	r8, r3, [sp]
 80013fe:	2137      	movs	r1, #55	; 0x37
 8001400:	f64f 73ff 	movw	r3, #65535	; 0xffff
 8001404:	20c5      	movs	r0, #197	; 0xc5
 8001406:	f00b f97b 	bl	800c700 <DPMChico>
 800140a:	487c      	ldr	r0, [pc, #496]	; (80015fc <AppLoop+0xa1c>)
 800140c:	462b      	mov	r3, r5
 800140e:	2253      	movs	r2, #83	; 0x53
 8001410:	21a2      	movs	r1, #162	; 0xa2
 8001412:	f00b fc1b 	bl	800cc4c <BOT>
 8001416:	487a      	ldr	r0, [pc, #488]	; (8001600 <AppLoop+0xa20>)
 8001418:	462b      	mov	r3, r5
 800141a:	2253      	movs	r2, #83	; 0x53
 800141c:	f240 111f 	movw	r1, #287	; 0x11f
 8001420:	f00b fc14 	bl	800cc4c <BOT>
 8001424:	4877      	ldr	r0, [pc, #476]	; (8001604 <AppLoop+0xa24>)
 8001426:	462b      	mov	r3, r5
 8001428:	225f      	movs	r2, #95	; 0x5f
 800142a:	21c3      	movs	r1, #195	; 0xc3
 800142c:	e9cd 5500 	strd	r5, r5, [sp]
 8001430:	f00a f9f4 	bl	800b81c <f_PEL>
 8001434:	2304      	movs	r3, #4
 8001436:	462a      	mov	r2, r5
 8001438:	21ca      	movs	r1, #202	; 0xca
 800143a:	20d3      	movs	r0, #211	; 0xd3
 800143c:	9700      	str	r7, [sp, #0]
 800143e:	f00a fe2f 	bl	800c0a0 <BOW>
 8001442:	4b71      	ldr	r3, [pc, #452]	; (8001608 <AppLoop+0xa28>)
 8001444:	9300      	str	r3, [sp, #0]
 8001446:	462a      	mov	r2, r5
 8001448:	2306      	movs	r3, #6
 800144a:	21ca      	movs	r1, #202	; 0xca
 800144c:	2075      	movs	r0, #117	; 0x75
 800144e:	f00a fe27 	bl	800c0a0 <BOW>
 8001452:	6823      	ldr	r3, [r4, #0]
 8001454:	3301      	adds	r3, #1
 8001456:	6023      	str	r3, [r4, #0]
 8001458:	6823      	ldr	r3, [r4, #0]
 800145a:	f5b3 6ffa 	cmp.w	r3, #2000	; 0x7d0
 800145e:	d123      	bne.n	80014a8 <AppLoop+0x8c8>
 8001460:	4b72      	ldr	r3, [pc, #456]	; (800162c <AppLoop+0xa4c>)
 8001462:	2201      	movs	r2, #1
 8001464:	601a      	str	r2, [r3, #0]
 8001466:	f00b f93d 	bl	800c6e4 <FondoCompletoAzul>
 800146a:	2200      	movs	r2, #0
 800146c:	4611      	mov	r1, r2
 800146e:	4870      	ldr	r0, [pc, #448]	; (8001630 <AppLoop+0xa50>)
 8001470:	f00a fcc8 	bl	800be04 <f_BMP>
 8001474:	4a6f      	ldr	r2, [pc, #444]	; (8001634 <AppLoop+0xa54>)
 8001476:	4968      	ldr	r1, [pc, #416]	; (8001618 <AppLoop+0xa38>)
 8001478:	4862      	ldr	r0, [pc, #392]	; (8001604 <AppLoop+0xa24>)
 800147a:	230c      	movs	r3, #12
 800147c:	f00a f896 	bl	800b5ac <f_PEL_open>
 8001480:	2200      	movs	r2, #0
 8001482:	2321      	movs	r3, #33	; 0x21
 8001484:	e9cd 3200 	strd	r3, r2, [sp]
 8001488:	485e      	ldr	r0, [pc, #376]	; (8001604 <AppLoop+0xa24>)
 800148a:	2360      	movs	r3, #96	; 0x60
 800148c:	21cc      	movs	r1, #204	; 0xcc
 800148e:	f00a f9c5 	bl	800b81c <f_PEL>
 8001492:	4b69      	ldr	r3, [pc, #420]	; (8001638 <AppLoop+0xa58>)
 8001494:	9300      	str	r3, [sp, #0]
 8001496:	2200      	movs	r2, #0
 8001498:	2306      	movs	r3, #6
 800149a:	2103      	movs	r1, #3
 800149c:	2076      	movs	r0, #118	; 0x76
 800149e:	f00a fdff 	bl	800c0a0 <BOW>
 80014a2:	6823      	ldr	r3, [r4, #0]
 80014a4:	3301      	adds	r3, #1
 80014a6:	6023      	str	r3, [r4, #0]
 80014a8:	6822      	ldr	r2, [r4, #0]
 80014aa:	f240 73d1 	movw	r3, #2001	; 0x7d1
 80014ae:	429a      	cmp	r2, r3
 80014b0:	d156      	bne.n	8001560 <AppLoop+0x980>
 80014b2:	4b5e      	ldr	r3, [pc, #376]	; (800162c <AppLoop+0xa4c>)
 80014b4:	4d61      	ldr	r5, [pc, #388]	; (800163c <AppLoop+0xa5c>)
 80014b6:	681a      	ldr	r2, [r3, #0]
 80014b8:	4852      	ldr	r0, [pc, #328]	; (8001604 <AppLoop+0xa24>)
 80014ba:	3201      	adds	r2, #1
 80014bc:	2a0c      	cmp	r2, #12
 80014be:	bf88      	it	hi
 80014c0:	2201      	movhi	r2, #1
 80014c2:	601a      	str	r2, [r3, #0]
 80014c4:	781b      	ldrb	r3, [r3, #0]
 80014c6:	9301      	str	r3, [sp, #4]
 80014c8:	2300      	movs	r3, #0
 80014ca:	9300      	str	r3, [sp, #0]
 80014cc:	461a      	mov	r2, r3
 80014ce:	21cc      	movs	r1, #204	; 0xcc
 80014d0:	f00a f9a4 	bl	800b81c <f_PEL>
 80014d4:	682b      	ldr	r3, [r5, #0]
 80014d6:	3301      	adds	r3, #1
 80014d8:	2b0a      	cmp	r3, #10
 80014da:	602b      	str	r3, [r5, #0]
 80014dc:	d104      	bne.n	80014e8 <AppLoop+0x908>
 80014de:	4858      	ldr	r0, [pc, #352]	; (8001640 <AppLoop+0xa60>)
 80014e0:	22bc      	movs	r2, #188	; 0xbc
 80014e2:	21e6      	movs	r1, #230	; 0xe6
 80014e4:	f00a fc8e 	bl	800be04 <f_BMP>
 80014e8:	682b      	ldr	r3, [r5, #0]
 80014ea:	2b14      	cmp	r3, #20
 80014ec:	d106      	bne.n	80014fc <AppLoop+0x91c>
 80014ee:	4855      	ldr	r0, [pc, #340]	; (8001644 <AppLoop+0xa64>)
 80014f0:	22bc      	movs	r2, #188	; 0xbc
 80014f2:	21e6      	movs	r1, #230	; 0xe6
 80014f4:	f00a fc86 	bl	800be04 <f_BMP>
 80014f8:	2300      	movs	r3, #0
 80014fa:	602b      	str	r3, [r5, #0]
 80014fc:	4d52      	ldr	r5, [pc, #328]	; (8001648 <AppLoop+0xa68>)
 80014fe:	682b      	ldr	r3, [r5, #0]
 8001500:	3301      	adds	r3, #1
 8001502:	2b64      	cmp	r3, #100	; 0x64
 8001504:	602b      	str	r3, [r5, #0]
 8001506:	d104      	bne.n	8001512 <AppLoop+0x932>
 8001508:	4850      	ldr	r0, [pc, #320]	; (800164c <AppLoop+0xa6c>)
 800150a:	2200      	movs	r2, #0
 800150c:	2139      	movs	r1, #57	; 0x39
 800150e:	f00a fc79 	bl	800be04 <f_BMP>
 8001512:	682b      	ldr	r3, [r5, #0]
 8001514:	2bc8      	cmp	r3, #200	; 0xc8
 8001516:	d106      	bne.n	8001526 <AppLoop+0x946>
 8001518:	484d      	ldr	r0, [pc, #308]	; (8001650 <AppLoop+0xa70>)
 800151a:	2200      	movs	r2, #0
 800151c:	2139      	movs	r1, #57	; 0x39
 800151e:	f00a fc71 	bl	800be04 <f_BMP>
 8001522:	2300      	movs	r3, #0
 8001524:	602b      	str	r3, [r5, #0]
 8001526:	4d4b      	ldr	r5, [pc, #300]	; (8001654 <AppLoop+0xa74>)
 8001528:	682b      	ldr	r3, [r5, #0]
 800152a:	2b21      	cmp	r3, #33	; 0x21
 800152c:	f103 0201 	add.w	r2, r3, #1
 8001530:	bf0a      	itet	eq
 8001532:	2300      	moveq	r3, #0
 8001534:	602a      	strne	r2, [r5, #0]
 8001536:	602b      	streq	r3, [r5, #0]
 8001538:	682b      	ldr	r3, [r5, #0]
 800153a:	2200      	movs	r2, #0
 800153c:	9200      	str	r2, [sp, #0]
 800153e:	f1c3 0322 	rsb	r3, r3, #34	; 0x22
 8001542:	2237      	movs	r2, #55	; 0x37
 8001544:	21c8      	movs	r1, #200	; 0xc8
 8001546:	2017      	movs	r0, #23
 8001548:	f00a fd4c 	bl	800bfe4 <FillReg>
 800154c:	682b      	ldr	r3, [r5, #0]
 800154e:	f64f 72ff 	movw	r2, #65535	; 0xffff
 8001552:	9200      	str	r2, [sp, #0]
 8001554:	f1c3 01eb 	rsb	r1, r3, #235	; 0xeb
 8001558:	2237      	movs	r2, #55	; 0x37
 800155a:	2017      	movs	r0, #23
 800155c:	f00a fd42 	bl	800bfe4 <FillReg>
 8001560:	6822      	ldr	r2, [r4, #0]
 8001562:	f640 0334 	movw	r3, #2100	; 0x834
 8001566:	429a      	cmp	r2, r3
 8001568:	d11c      	bne.n	80015a4 <AppLoop+0x9c4>
 800156a:	4b3b      	ldr	r3, [pc, #236]	; (8001658 <AppLoop+0xa78>)
 800156c:	2200      	movs	r2, #0
 800156e:	601a      	str	r2, [r3, #0]
 8001570:	f00b f8b8 	bl	800c6e4 <FondoCompletoAzul>
 8001574:	4a39      	ldr	r2, [pc, #228]	; (800165c <AppLoop+0xa7c>)
 8001576:	4b3a      	ldr	r3, [pc, #232]	; (8001660 <AppLoop+0xa80>)
 8001578:	6013      	str	r3, [r2, #0]
 800157a:	4a3a      	ldr	r2, [pc, #232]	; (8001664 <AppLoop+0xa84>)
 800157c:	f503 5180 	add.w	r1, r3, #4096	; 0x1000
 8001580:	6011      	str	r1, [r2, #0]
 8001582:	4a39      	ldr	r2, [pc, #228]	; (8001668 <AppLoop+0xa88>)
 8001584:	f503 5100 	add.w	r1, r3, #8192	; 0x2000
 8001588:	6011      	str	r1, [r2, #0]
 800158a:	4a38      	ldr	r2, [pc, #224]	; (800166c <AppLoop+0xa8c>)
 800158c:	f503 5340 	add.w	r3, r3, #12288	; 0x3000
 8001590:	6013      	str	r3, [r2, #0]
 8001592:	f000 fa43 	bl	8001a1c <SetBT>
 8001596:	f000 f983 	bl	80018a0 <TomarCanales>
 800159a:	f00a ff2d 	bl	800c3f8 <GraficarOSC>
 800159e:	6823      	ldr	r3, [r4, #0]
 80015a0:	3301      	adds	r3, #1
 80015a2:	6023      	str	r3, [r4, #0]
 80015a4:	6822      	ldr	r2, [r4, #0]
 80015a6:	f640 0335 	movw	r3, #2101	; 0x835
 80015aa:	429a      	cmp	r2, r3
 80015ac:	d115      	bne.n	80015da <AppLoop+0x9fa>
 80015ae:	4b30      	ldr	r3, [pc, #192]	; (8001670 <AppLoop+0xa90>)
 80015b0:	681a      	ldr	r2, [r3, #0]
 80015b2:	320a      	adds	r2, #10
 80015b4:	f5b2 7f48 	cmp.w	r2, #800	; 0x320
 80015b8:	bf08      	it	eq
 80015ba:	2200      	moveq	r2, #0
 80015bc:	601a      	str	r2, [r3, #0]
 80015be:	681a      	ldr	r2, [r3, #0]
 80015c0:	4b2c      	ldr	r3, [pc, #176]	; (8001674 <AppLoop+0xa94>)
 80015c2:	f5c2 7148 	rsb	r1, r2, #800	; 0x320
 80015c6:	6359      	str	r1, [r3, #52]	; 0x34
 80015c8:	639a      	str	r2, [r3, #56]	; 0x38
 80015ca:	63da      	str	r2, [r3, #60]	; 0x3c
 80015cc:	6419      	str	r1, [r3, #64]	; 0x40
 80015ce:	f000 fa25 	bl	8001a1c <SetBT>
 80015d2:	f000 f965 	bl	80018a0 <TomarCanales>
 80015d6:	f00a ff0f 	bl	800c3f8 <GraficarOSC>
 80015da:	6822      	ldr	r2, [r4, #0]
 80015dc:	f640 0398 	movw	r3, #2200	; 0x898
 80015e0:	429a      	cmp	r2, r3
 80015e2:	d160      	bne.n	80016a6 <AppLoop+0xac6>
 80015e4:	4a1c      	ldr	r2, [pc, #112]	; (8001658 <AppLoop+0xa78>)
 80015e6:	2300      	movs	r3, #0
 80015e8:	6013      	str	r3, [r2, #0]
 80015ea:	4a23      	ldr	r2, [pc, #140]	; (8001678 <AppLoop+0xa98>)
 80015ec:	6013      	str	r3, [r2, #0]
 80015ee:	f00b f879 	bl	800c6e4 <FondoCompletoAzul>
 80015f2:	4a1a      	ldr	r2, [pc, #104]	; (800165c <AppLoop+0xa7c>)
 80015f4:	4b1a      	ldr	r3, [pc, #104]	; (8001660 <AppLoop+0xa80>)
 80015f6:	6013      	str	r3, [r2, #0]
 80015f8:	e040      	b.n	800167c <AppLoop+0xa9c>
 80015fa:	bf00      	nop
 80015fc:	08010134 	.word	0x08010134
 8001600:	0800fe57 	.word	0x0800fe57
 8001604:	2000136c 	.word	0x2000136c
 8001608:	0800ef4f 	.word	0x0800ef4f
 800160c:	0800f094 	.word	0x0800f094
 8001610:	0800ef4c 	.word	0x0800ef4c
 8001614:	0800efe9 	.word	0x0800efe9
 8001618:	0800ef5c 	.word	0x0800ef5c
 800161c:	0800f0a0 	.word	0x0800f0a0
 8001620:	0800f075 	.word	0x0800f075
 8001624:	0800f0ac 	.word	0x0800f0ac
 8001628:	0800f08e 	.word	0x0800f08e
 800162c:	20009c64 	.word	0x20009c64
 8001630:	0800f0ba 	.word	0x0800f0ba
 8001634:	0800ef36 	.word	0x0800ef36
 8001638:	0800f157 	.word	0x0800f157
 800163c:	20004798 	.word	0x20004798
 8001640:	0800f0d6 	.word	0x0800f0d6
 8001644:	0800f0f4 	.word	0x0800f0f4
 8001648:	200047a4 	.word	0x200047a4
 800164c:	0800f112 	.word	0x0800f112
 8001650:	0800f130 	.word	0x0800f130
 8001654:	20004794 	.word	0x20004794
 8001658:	200088d8 	.word	0x200088d8
 800165c:	200088c4 	.word	0x200088c4
 8001660:	200048b4 	.word	0x200048b4
 8001664:	200088c8 	.word	0x200088c8
 8001668:	200088cc 	.word	0x200088cc
 800166c:	200088d0 	.word	0x200088d0
 8001670:	2000478c 	.word	0x2000478c
 8001674:	40013400 	.word	0x40013400
 8001678:	200088d4 	.word	0x200088d4
 800167c:	4a6d      	ldr	r2, [pc, #436]	; (8001834 <AppLoop+0xc54>)
 800167e:	f503 5180 	add.w	r1, r3, #4096	; 0x1000
 8001682:	6011      	str	r1, [r2, #0]
 8001684:	4a6c      	ldr	r2, [pc, #432]	; (8001838 <AppLoop+0xc58>)
 8001686:	f503 5100 	add.w	r1, r3, #8192	; 0x2000
 800168a:	6011      	str	r1, [r2, #0]
 800168c:	4a6b      	ldr	r2, [pc, #428]	; (800183c <AppLoop+0xc5c>)
 800168e:	f503 5340 	add.w	r3, r3, #12288	; 0x3000
 8001692:	6013      	str	r3, [r2, #0]
 8001694:	f000 f9c2 	bl	8001a1c <SetBT>
 8001698:	f000 f902 	bl	80018a0 <TomarCanales>
 800169c:	f00a feac 	bl	800c3f8 <GraficarOSC>
 80016a0:	6823      	ldr	r3, [r4, #0]
 80016a2:	3301      	adds	r3, #1
 80016a4:	6023      	str	r3, [r4, #0]
 80016a6:	6822      	ldr	r2, [r4, #0]
 80016a8:	f640 0399 	movw	r3, #2201	; 0x899
 80016ac:	429a      	cmp	r2, r3
 80016ae:	d117      	bne.n	80016e0 <AppLoop+0xb00>
 80016b0:	4b63      	ldr	r3, [pc, #396]	; (8001840 <AppLoop+0xc60>)
 80016b2:	681a      	ldr	r2, [r3, #0]
 80016b4:	320a      	adds	r2, #10
 80016b6:	f5b2 7f48 	cmp.w	r2, #800	; 0x320
 80016ba:	bf08      	it	eq
 80016bc:	2200      	moveq	r2, #0
 80016be:	601a      	str	r2, [r3, #0]
 80016c0:	681a      	ldr	r2, [r3, #0]
 80016c2:	4b60      	ldr	r3, [pc, #384]	; (8001844 <AppLoop+0xc64>)
 80016c4:	f44f 71fa 	mov.w	r1, #500	; 0x1f4
 80016c8:	635a      	str	r2, [r3, #52]	; 0x34
 80016ca:	6399      	str	r1, [r3, #56]	; 0x38
 80016cc:	63da      	str	r2, [r3, #60]	; 0x3c
 80016ce:	f44f 7248 	mov.w	r2, #800	; 0x320
 80016d2:	641a      	str	r2, [r3, #64]	; 0x40
 80016d4:	f000 f9a2 	bl	8001a1c <SetBT>
 80016d8:	f000 f8e2 	bl	80018a0 <TomarCanales>
 80016dc:	f00a fe8c 	bl	800c3f8 <GraficarOSC>
 80016e0:	6822      	ldr	r2, [r4, #0]
 80016e2:	f640 03fc 	movw	r3, #2300	; 0x8fc
 80016e6:	429a      	cmp	r2, r3
 80016e8:	d12c      	bne.n	8001744 <AppLoop+0xb64>
 80016ea:	4957      	ldr	r1, [pc, #348]	; (8001848 <AppLoop+0xc68>)
 80016ec:	4a57      	ldr	r2, [pc, #348]	; (800184c <AppLoop+0xc6c>)
 80016ee:	ed9f 7a58 	vldr	s14, [pc, #352]	; 8001850 <AppLoop+0xc70>
 80016f2:	2300      	movs	r3, #0
 80016f4:	ecf1 7a01 	vldmia	r1!, {s15}
 80016f8:	ee67 7a87 	vmul.f32	s15, s15, s14
 80016fc:	3301      	adds	r3, #1
 80016fe:	eefc 7ae7 	vcvt.u32.f32	s15, s15
 8001702:	2bfa      	cmp	r3, #250	; 0xfa
 8001704:	ece2 7a01 	vstmia	r2!, {s15}
 8001708:	d1f4      	bne.n	80016f4 <AppLoop+0xb14>
 800170a:	4b52      	ldr	r3, [pc, #328]	; (8001854 <AppLoop+0xc74>)
 800170c:	2203      	movs	r2, #3
 800170e:	601a      	str	r2, [r3, #0]
 8001710:	f00a ffe8 	bl	800c6e4 <FondoCompletoAzul>
 8001714:	4a50      	ldr	r2, [pc, #320]	; (8001858 <AppLoop+0xc78>)
 8001716:	4b51      	ldr	r3, [pc, #324]	; (800185c <AppLoop+0xc7c>)
 8001718:	6013      	str	r3, [r2, #0]
 800171a:	4a46      	ldr	r2, [pc, #280]	; (8001834 <AppLoop+0xc54>)
 800171c:	f503 5180 	add.w	r1, r3, #4096	; 0x1000
 8001720:	6011      	str	r1, [r2, #0]
 8001722:	4a45      	ldr	r2, [pc, #276]	; (8001838 <AppLoop+0xc58>)
 8001724:	f503 5100 	add.w	r1, r3, #8192	; 0x2000
 8001728:	6011      	str	r1, [r2, #0]
 800172a:	4a44      	ldr	r2, [pc, #272]	; (800183c <AppLoop+0xc5c>)
 800172c:	f503 5340 	add.w	r3, r3, #12288	; 0x3000
 8001730:	6013      	str	r3, [r2, #0]
 8001732:	f000 f973 	bl	8001a1c <SetBT>
 8001736:	f000 f8b3 	bl	80018a0 <TomarCanales>
 800173a:	f00a fe5d 	bl	800c3f8 <GraficarOSC>
 800173e:	6823      	ldr	r3, [r4, #0]
 8001740:	3301      	adds	r3, #1
 8001742:	6023      	str	r3, [r4, #0]
 8001744:	6822      	ldr	r2, [r4, #0]
 8001746:	f640 03fd 	movw	r3, #2301	; 0x8fd
 800174a:	429a      	cmp	r2, r3
 800174c:	d105      	bne.n	800175a <AppLoop+0xb7a>
 800174e:	f000 f965 	bl	8001a1c <SetBT>
 8001752:	f000 f8a5 	bl	80018a0 <TomarCanales>
 8001756:	f00a fe4f 	bl	800c3f8 <GraficarOSC>
 800175a:	b01e      	add	sp, #120	; 0x78
 800175c:	e8bd 81f0 	ldmia.w	sp!, {r4, r5, r6, r7, r8, pc}
 8001760:	f241 32ec 	movw	r2, #5100	; 0x13ec
 8001764:	4293      	cmp	r3, r2
 8001766:	f43f ab88 	beq.w	8000e7a <AppLoop+0x29a>
 800176a:	6822      	ldr	r2, [r4, #0]
 800176c:	f241 430a 	movw	r3, #5130	; 0x140a
 8001770:	429a      	cmp	r2, r3
 8001772:	f47f abf1 	bne.w	8000f58 <AppLoop+0x378>
 8001776:	f00a ffb5 	bl	800c6e4 <FondoCompletoAzul>
 800177a:	4839      	ldr	r0, [pc, #228]	; (8001860 <AppLoop+0xc80>)
 800177c:	f00a fe18 	bl	800c3b0 <Encabezamiento3>
 8001780:	2602      	movs	r6, #2
 8001782:	4b38      	ldr	r3, [pc, #224]	; (8001864 <AppLoop+0xc84>)
 8001784:	9300      	str	r3, [sp, #0]
 8001786:	f64f 72ff 	movw	r2, #65535	; 0xffff
 800178a:	2310      	movs	r3, #16
 800178c:	2125      	movs	r1, #37	; 0x25
 800178e:	2004      	movs	r0, #4
 8001790:	9601      	str	r6, [sp, #4]
 8001792:	f007 fd33 	bl	80091fc <ILI9341_Draw_String>
 8001796:	2504      	movs	r5, #4
 8001798:	4b33      	ldr	r3, [pc, #204]	; (8001868 <AppLoop+0xc88>)
 800179a:	4834      	ldr	r0, [pc, #208]	; (800186c <AppLoop+0xc8c>)
 800179c:	9302      	str	r3, [sp, #8]
 800179e:	2703      	movs	r7, #3
 80017a0:	4629      	mov	r1, r5
 80017a2:	e9cd 5700 	strd	r5, r7, [sp]
 80017a6:	2300      	movs	r3, #0
 80017a8:	2237      	movs	r2, #55	; 0x37
 80017aa:	f00b f91d 	bl	800c9e8 <BCO>
 80017ae:	4b30      	ldr	r3, [pc, #192]	; (8001870 <AppLoop+0xc90>)
 80017b0:	9300      	str	r3, [sp, #0]
 80017b2:	f64f 72ff 	movw	r2, #65535	; 0xffff
 80017b6:	2310      	movs	r3, #16
 80017b8:	2125      	movs	r1, #37	; 0x25
 80017ba:	20c8      	movs	r0, #200	; 0xc8
 80017bc:	9601      	str	r6, [sp, #4]
 80017be:	f007 fd1d 	bl	80091fc <ILI9341_Draw_String>
 80017c2:	4b2c      	ldr	r3, [pc, #176]	; (8001874 <AppLoop+0xc94>)
 80017c4:	9302      	str	r3, [sp, #8]
 80017c6:	2301      	movs	r3, #1
 80017c8:	e9cd 6300 	strd	r6, r3, [sp]
 80017cc:	4827      	ldr	r0, [pc, #156]	; (800186c <AppLoop+0xc8c>)
 80017ce:	2300      	movs	r3, #0
 80017d0:	2237      	movs	r2, #55	; 0x37
 80017d2:	21c8      	movs	r1, #200	; 0xc8
 80017d4:	f00b f908 	bl	800c9e8 <BCO>
 80017d8:	4b27      	ldr	r3, [pc, #156]	; (8001878 <AppLoop+0xc98>)
 80017da:	4a28      	ldr	r2, [pc, #160]	; (800187c <AppLoop+0xc9c>)
 80017dc:	781b      	ldrb	r3, [r3, #0]
 80017de:	9300      	str	r3, [sp, #0]
 80017e0:	4628      	mov	r0, r5
 80017e2:	4b27      	ldr	r3, [pc, #156]	; (8001880 <AppLoop+0xca0>)
 80017e4:	21a0      	movs	r1, #160	; 0xa0
 80017e6:	f00a fa8b 	bl	800bd00 <CHECK_CIRC>
 80017ea:	4b26      	ldr	r3, [pc, #152]	; (8001884 <AppLoop+0xca4>)
 80017ec:	4a26      	ldr	r2, [pc, #152]	; (8001888 <AppLoop+0xca8>)
 80017ee:	781b      	ldrb	r3, [r3, #0]
 80017f0:	9300      	str	r3, [sp, #0]
 80017f2:	2500      	movs	r5, #0
 80017f4:	4b25      	ldr	r3, [pc, #148]	; (800188c <AppLoop+0xcac>)
 80017f6:	21a0      	movs	r1, #160	; 0xa0
 80017f8:	2072      	movs	r0, #114	; 0x72
 80017fa:	f00a fa81 	bl	800bd00 <CHECK_CIRC>
 80017fe:	4b24      	ldr	r3, [pc, #144]	; (8001890 <AppLoop+0xcb0>)
 8001800:	4a24      	ldr	r2, [pc, #144]	; (8001894 <AppLoop+0xcb4>)
 8001802:	9500      	str	r5, [sp, #0]
 8001804:	21a0      	movs	r1, #160	; 0xa0
 8001806:	20e0      	movs	r0, #224	; 0xe0
 8001808:	f00a fa7a 	bl	800bd00 <CHECK_CIRC>
 800180c:	4b22      	ldr	r3, [pc, #136]	; (8001898 <AppLoop+0xcb8>)
 800180e:	9300      	str	r3, [sp, #0]
 8001810:	462a      	mov	r2, r5
 8001812:	230b      	movs	r3, #11
 8001814:	21ca      	movs	r1, #202	; 0xca
 8001816:	4638      	mov	r0, r7
 8001818:	f00a fc42 	bl	800c0a0 <BOW>
 800181c:	4b1f      	ldr	r3, [pc, #124]	; (800189c <AppLoop+0xcbc>)
 800181e:	9300      	str	r3, [sp, #0]
 8001820:	462a      	mov	r2, r5
 8001822:	230b      	movs	r3, #11
 8001824:	21ca      	movs	r1, #202	; 0xca
 8001826:	20a2      	movs	r0, #162	; 0xa2
 8001828:	f00a fc3a 	bl	800c0a0 <BOW>
 800182c:	6823      	ldr	r3, [r4, #0]
 800182e:	3301      	adds	r3, #1
 8001830:	f7ff bb91 	b.w	8000f56 <AppLoop+0x376>
 8001834:	200088c8 	.word	0x200088c8
 8001838:	200088cc 	.word	0x200088cc
 800183c:	200088d0 	.word	0x200088d0
 8001840:	2000478c 	.word	0x2000478c
 8001844:	40013400 	.word	0x40013400
 8001848:	0800f16c 	.word	0x0800f16c
 800184c:	200088e4 	.word	0x200088e4
 8001850:	44b40000 	.word	0x44b40000
 8001854:	200088d8 	.word	0x200088d8
 8001858:	200088c4 	.word	0x200088c4
 800185c:	200048b4 	.word	0x200048b4
 8001860:	0800eeee 	.word	0x0800eeee
 8001864:	0800ef04 	.word	0x0800ef04
 8001868:	0800ef0d 	.word	0x0800ef0d
 800186c:	0801040d 	.word	0x0801040d
 8001870:	0800ef19 	.word	0x0800ef19
 8001874:	0800ef21 	.word	0x0800ef21
 8001878:	20004791 	.word	0x20004791
 800187c:	0800ef30 	.word	0x0800ef30
 8001880:	0800ef28 	.word	0x0800ef28
 8001884:	20004790 	.word	0x20004790
 8001888:	0800ef3d 	.word	0x0800ef3d
 800188c:	0800ef36 	.word	0x0800ef36
 8001890:	08010e84 	.word	0x08010e84
 8001894:	0800ef44 	.word	0x0800ef44
 8001898:	0800ef4c 	.word	0x0800ef4c
 800189c:	0800ef4f 	.word	0x0800ef4f

080018a0 <TomarCanales>:
 80018a0:	e92d 47f0 	stmdb	sp!, {r4, r5, r6, r7, r8, r9, sl, lr}
 80018a4:	4f54      	ldr	r7, [pc, #336]	; (80019f8 <TomarCanales+0x158>)
 80018a6:	f8df 816c 	ldr.w	r8, [pc, #364]	; 8001a14 <TomarCanales+0x174>
 80018aa:	4e54      	ldr	r6, [pc, #336]	; (80019fc <TomarCanales+0x15c>)
 80018ac:	6839      	ldr	r1, [r7, #0]
 80018ae:	4854      	ldr	r0, [pc, #336]	; (8001a00 <TomarCanales+0x160>)
 80018b0:	4d54      	ldr	r5, [pc, #336]	; (8001a04 <TomarCanales+0x164>)
 80018b2:	4c55      	ldr	r4, [pc, #340]	; (8001a08 <TomarCanales+0x168>)
 80018b4:	f44f 6280 	mov.w	r2, #1024	; 0x400
 80018b8:	f001 ff44 	bl	8003744 <HAL_ADC_Start_DMA>
 80018bc:	6831      	ldr	r1, [r6, #0]
 80018be:	f44f 6280 	mov.w	r2, #1024	; 0x400
 80018c2:	4640      	mov	r0, r8
 80018c4:	f001 ff3e 	bl	8003744 <HAL_ADC_Start_DMA>
 80018c8:	6829      	ldr	r1, [r5, #0]
 80018ca:	4850      	ldr	r0, [pc, #320]	; (8001a0c <TomarCanales+0x16c>)
 80018cc:	f44f 6280 	mov.w	r2, #1024	; 0x400
 80018d0:	f001 ff38 	bl	8003744 <HAL_ADC_Start_DMA>
 80018d4:	f44f 6280 	mov.w	r2, #1024	; 0x400
 80018d8:	6821      	ldr	r1, [r4, #0]
 80018da:	484d      	ldr	r0, [pc, #308]	; (8001a10 <TomarCanales+0x170>)
 80018dc:	f001 ff32 	bl	8003744 <HAL_ADC_Start_DMA>
 80018e0:	f8d8 3000 	ldr.w	r3, [r8]
 80018e4:	f240 52dc 	movw	r2, #1500	; 0x5dc
 80018e8:	6c19      	ldr	r1, [r3, #64]	; 0x40
 80018ea:	4291      	cmp	r1, r2
 80018ec:	d8fc      	bhi.n	80018e8 <TomarCanales+0x48>
 80018ee:	f240 52db 	movw	r2, #1499	; 0x5db
 80018f2:	6c19      	ldr	r1, [r3, #64]	; 0x40
 80018f4:	4291      	cmp	r1, r2
 80018f6:	d9fc      	bls.n	80018f2 <TomarCanales+0x52>
 80018f8:	4b41      	ldr	r3, [pc, #260]	; (8001a00 <TomarCanales+0x160>)
 80018fa:	6b9b      	ldr	r3, [r3, #56]	; 0x38
 80018fc:	6818      	ldr	r0, [r3, #0]
 80018fe:	6803      	ldr	r3, [r0, #0]
 8001900:	f023 0301 	bic.w	r3, r3, #1
 8001904:	6003      	str	r3, [r0, #0]
 8001906:	f8d8 3038 	ldr.w	r3, [r8, #56]	; 0x38
 800190a:	6819      	ldr	r1, [r3, #0]
 800190c:	680b      	ldr	r3, [r1, #0]
 800190e:	f023 0301 	bic.w	r3, r3, #1
 8001912:	600b      	str	r3, [r1, #0]
 8001914:	4b3d      	ldr	r3, [pc, #244]	; (8001a0c <TomarCanales+0x16c>)
 8001916:	6b9b      	ldr	r3, [r3, #56]	; 0x38
 8001918:	681a      	ldr	r2, [r3, #0]
 800191a:	6813      	ldr	r3, [r2, #0]
 800191c:	f023 0301 	bic.w	r3, r3, #1
 8001920:	6013      	str	r3, [r2, #0]
 8001922:	4b3b      	ldr	r3, [pc, #236]	; (8001a10 <TomarCanales+0x170>)
 8001924:	6b9b      	ldr	r3, [r3, #56]	; 0x38
 8001926:	681b      	ldr	r3, [r3, #0]
 8001928:	f8d3 c000 	ldr.w	ip, [r3]
 800192c:	f02c 0c01 	bic.w	ip, ip, #1
 8001930:	f8c3 c000 	str.w	ip, [r3]
 8001934:	f44f 6c80 	mov.w	ip, #1024	; 0x400
 8001938:	f8c0 c004 	str.w	ip, [r0, #4]
 800193c:	f8c1 c004 	str.w	ip, [r1, #4]
 8001940:	f8c2 c004 	str.w	ip, [r2, #4]
 8001944:	f8c3 c004 	str.w	ip, [r3, #4]
 8001948:	f8d0 c000 	ldr.w	ip, [r0]
 800194c:	f04c 0c01 	orr.w	ip, ip, #1
 8001950:	f8c0 c000 	str.w	ip, [r0]
 8001954:	6808      	ldr	r0, [r1, #0]
 8001956:	f040 0001 	orr.w	r0, r0, #1
 800195a:	6008      	str	r0, [r1, #0]
 800195c:	6811      	ldr	r1, [r2, #0]
 800195e:	f041 0101 	orr.w	r1, r1, #1
 8001962:	6011      	str	r1, [r2, #0]
 8001964:	681a      	ldr	r2, [r3, #0]
 8001966:	f042 0201 	orr.w	r2, r2, #1
 800196a:	601a      	str	r2, [r3, #0]
 800196c:	685a      	ldr	r2, [r3, #4]
 800196e:	2a01      	cmp	r2, #1
 8001970:	d8fc      	bhi.n	800196c <TomarCanales+0xcc>
 8001972:	200a      	movs	r0, #10
 8001974:	f001 fc9c 	bl	80032b0 <HAL_Delay>
 8001978:	4821      	ldr	r0, [pc, #132]	; (8001a00 <TomarCanales+0x160>)
 800197a:	f001 ff8d 	bl	8003898 <HAL_ADC_Stop_DMA>
 800197e:	4825      	ldr	r0, [pc, #148]	; (8001a14 <TomarCanales+0x174>)
 8001980:	f001 ff8a 	bl	8003898 <HAL_ADC_Stop_DMA>
 8001984:	4821      	ldr	r0, [pc, #132]	; (8001a0c <TomarCanales+0x16c>)
 8001986:	f001 ff87 	bl	8003898 <HAL_ADC_Stop_DMA>
 800198a:	4821      	ldr	r0, [pc, #132]	; (8001a10 <TomarCanales+0x170>)
 800198c:	f001 ff84 	bl	8003898 <HAL_ADC_Stop_DMA>
 8001990:	4b21      	ldr	r3, [pc, #132]	; (8001a18 <TomarCanales+0x178>)
 8001992:	681b      	ldr	r3, [r3, #0]
 8001994:	2b02      	cmp	r3, #2
 8001996:	d827      	bhi.n	80019e8 <TomarCanales+0x148>
 8001998:	f8d7 a000 	ldr.w	sl, [r7]
 800199c:	f8d6 9000 	ldr.w	r9, [r6]
 80019a0:	f8d5 8000 	ldr.w	r8, [r5]
 80019a4:	6825      	ldr	r5, [r4, #0]
 80019a6:	a712      	add	r7, pc, #72	; (adr r7, 80019f0 <TomarCanales+0x150>)
 80019a8:	e9d7 6700 	ldrd	r6, r7, [r7]
 80019ac:	2400      	movs	r4, #0
 80019ae:	4620      	mov	r0, r4
 80019b0:	f7fe fdb0 	bl	8000514 <__aeabi_ui2d>
 80019b4:	463b      	mov	r3, r7
 80019b6:	4632      	mov	r2, r6
 80019b8:	f7fe fe26 	bl	8000608 <__aeabi_dmul>
 80019bc:	f7ff f8be 	bl	8000b3c <__aeabi_d2iz>
 80019c0:	f85a 3020 	ldr.w	r3, [sl, r0, lsl #2]
 80019c4:	f84a 3024 	str.w	r3, [sl, r4, lsl #2]
 80019c8:	f859 3020 	ldr.w	r3, [r9, r0, lsl #2]
 80019cc:	f849 3024 	str.w	r3, [r9, r4, lsl #2]
 80019d0:	f858 3020 	ldr.w	r3, [r8, r0, lsl #2]
 80019d4:	f848 3024 	str.w	r3, [r8, r4, lsl #2]
 80019d8:	f855 3020 	ldr.w	r3, [r5, r0, lsl #2]
 80019dc:	f845 3024 	str.w	r3, [r5, r4, lsl #2]
 80019e0:	3401      	adds	r4, #1
 80019e2:	f5b4 7f7a 	cmp.w	r4, #1000	; 0x3e8
 80019e6:	d1e2      	bne.n	80019ae <TomarCanales+0x10e>
 80019e8:	e8bd 87f0 	ldmia.w	sp!, {r4, r5, r6, r7, r8, r9, sl, pc}
 80019ec:	f3af 8000 	nop.w
 80019f0:	d2f1a9fc 	.word	0xd2f1a9fc
 80019f4:	3ff0624d 	.word	0x3ff0624d
 80019f8:	200088c4 	.word	0x200088c4
 80019fc:	200088c8 	.word	0x200088c8
 8001a00:	20009090 	.word	0x20009090
 8001a04:	200088cc 	.word	0x200088cc
 8001a08:	200088d0 	.word	0x200088d0
 8001a0c:	20009130 	.word	0x20009130
 8001a10:	20009180 	.word	0x20009180
 8001a14:	200090e0 	.word	0x200090e0
 8001a18:	200088d8 	.word	0x200088d8

08001a1c <SetBT>:
 8001a1c:	4b77      	ldr	r3, [pc, #476]	; (8001bfc <SetBT+0x1e0>)
 8001a1e:	681b      	ldr	r3, [r3, #0]
 8001a20:	e92d 41f0 	stmdb	sp!, {r4, r5, r6, r7, r8, lr}
 8001a24:	2b0e      	cmp	r3, #14
 8001a26:	f200 80e7 	bhi.w	8001bf8 <SetBT+0x1dc>
 8001a2a:	e8df f013 	tbh	[pc, r3, lsl #1]
 8001a2e:	000f      	.short	0x000f
 8001a30:	003d0039 	.word	0x003d0039
 8001a34:	007c0041 	.word	0x007c0041
 8001a38:	008d0084 	.word	0x008d0084
 8001a3c:	00a10097 	.word	0x00a10097
 8001a40:	00b400ab 	.word	0x00b400ab
 8001a44:	00c700bd 	.word	0x00c700bd
 8001a48:	00db00d1 	.word	0x00db00d1
 8001a4c:	486c      	ldr	r0, [pc, #432]	; (8001c00 <SetBT+0x1e4>)
 8001a4e:	f44f 3680 	mov.w	r6, #65536	; 0x10000
 8001a52:	2401      	movs	r4, #1
 8001a54:	2500      	movs	r5, #0
 8001a56:	e9c0 450a 	strd	r4, r5, [r0, #40]	; 0x28
 8001a5a:	6046      	str	r6, [r0, #4]
 8001a5c:	7644      	strb	r4, [r0, #25]
 8001a5e:	f880 4030 	strb.w	r4, [r0, #48]	; 0x30
 8001a62:	f001 fd33 	bl	80034cc <HAL_ADC_Init>
 8001a66:	4867      	ldr	r0, [pc, #412]	; (8001c04 <SetBT+0x1e8>)
 8001a68:	e9c0 450a 	strd	r4, r5, [r0, #40]	; 0x28
 8001a6c:	6046      	str	r6, [r0, #4]
 8001a6e:	7644      	strb	r4, [r0, #25]
 8001a70:	f880 4030 	strb.w	r4, [r0, #48]	; 0x30
 8001a74:	f001 fd2a 	bl	80034cc <HAL_ADC_Init>
 8001a78:	4863      	ldr	r0, [pc, #396]	; (8001c08 <SetBT+0x1ec>)
 8001a7a:	e9c0 450a 	strd	r4, r5, [r0, #40]	; 0x28
 8001a7e:	6046      	str	r6, [r0, #4]
 8001a80:	7644      	strb	r4, [r0, #25]
 8001a82:	f880 4030 	strb.w	r4, [r0, #48]	; 0x30
 8001a86:	f001 fd21 	bl	80034cc <HAL_ADC_Init>
 8001a8a:	4860      	ldr	r0, [pc, #384]	; (8001c0c <SetBT+0x1f0>)
 8001a8c:	e9c0 450a 	strd	r4, r5, [r0, #40]	; 0x28
 8001a90:	6046      	str	r6, [r0, #4]
 8001a92:	7644      	strb	r4, [r0, #25]
 8001a94:	f880 4030 	strb.w	r4, [r0, #48]	; 0x30
 8001a98:	e8bd 41f0 	ldmia.w	sp!, {r4, r5, r6, r7, r8, lr}
 8001a9c:	f001 bd16 	b.w	80034cc <HAL_ADC_Init>
 8001aa0:	4857      	ldr	r0, [pc, #348]	; (8001c00 <SetBT+0x1e4>)
 8001aa2:	f44f 3600 	mov.w	r6, #131072	; 0x20000
 8001aa6:	e7d4      	b.n	8001a52 <SetBT+0x36>
 8001aa8:	4855      	ldr	r0, [pc, #340]	; (8001c00 <SetBT+0x1e4>)
 8001aaa:	f44f 3640 	mov.w	r6, #196608	; 0x30000
 8001aae:	e7d0      	b.n	8001a52 <SetBT+0x36>
 8001ab0:	4857      	ldr	r0, [pc, #348]	; (8001c10 <SetBT+0x1f4>)
 8001ab2:	4b58      	ldr	r3, [pc, #352]	; (8001c14 <SetBT+0x1f8>)
 8001ab4:	2400      	movs	r4, #0
 8001ab6:	e9c0 3400 	strd	r3, r4, [r0]
 8001aba:	6084      	str	r4, [r0, #8]
 8001abc:	2347      	movs	r3, #71	; 0x47
 8001abe:	e9c0 3403 	strd	r3, r4, [r0, #12]
 8001ac2:	2380      	movs	r3, #128	; 0x80
 8001ac4:	6183      	str	r3, [r0, #24]
 8001ac6:	f005 fa05 	bl	8006ed4 <HAL_TIM_Base_Init>
 8001aca:	484d      	ldr	r0, [pc, #308]	; (8001c00 <SetBT+0x1e4>)
 8001acc:	f44f 3880 	mov.w	r8, #65536	; 0x10000
 8001ad0:	f44f 7680 	mov.w	r6, #256	; 0x100
 8001ad4:	f44f 6780 	mov.w	r7, #1024	; 0x400
 8001ad8:	2501      	movs	r5, #1
 8001ada:	e9c0 670a 	strd	r6, r7, [r0, #40]	; 0x28
 8001ade:	f8c0 8004 	str.w	r8, [r0, #4]
 8001ae2:	7644      	strb	r4, [r0, #25]
 8001ae4:	f880 5030 	strb.w	r5, [r0, #48]	; 0x30
 8001ae8:	f001 fcf0 	bl	80034cc <HAL_ADC_Init>
 8001aec:	4845      	ldr	r0, [pc, #276]	; (8001c04 <SetBT+0x1e8>)
 8001aee:	e9c0 670a 	strd	r6, r7, [r0, #40]	; 0x28
 8001af2:	f8c0 8004 	str.w	r8, [r0, #4]
 8001af6:	7644      	strb	r4, [r0, #25]
 8001af8:	f880 5030 	strb.w	r5, [r0, #48]	; 0x30
 8001afc:	f001 fce6 	bl	80034cc <HAL_ADC_Init>
 8001b00:	4841      	ldr	r0, [pc, #260]	; (8001c08 <SetBT+0x1ec>)
 8001b02:	e9c0 670a 	strd	r6, r7, [r0, #40]	; 0x28
 8001b06:	f8c0 8004 	str.w	r8, [r0, #4]
 8001b0a:	7644      	strb	r4, [r0, #25]
 8001b0c:	f880 5030 	strb.w	r5, [r0, #48]	; 0x30
 8001b10:	f001 fcdc 	bl	80034cc <HAL_ADC_Init>
 8001b14:	483d      	ldr	r0, [pc, #244]	; (8001c0c <SetBT+0x1f0>)
 8001b16:	e9c0 670a 	strd	r6, r7, [r0, #40]	; 0x28
 8001b1a:	f8c0 8004 	str.w	r8, [r0, #4]
 8001b1e:	7644      	strb	r4, [r0, #25]
 8001b20:	f880 5030 	strb.w	r5, [r0, #48]	; 0x30
 8001b24:	e7b8      	b.n	8001a98 <SetBT+0x7c>
 8001b26:	483a      	ldr	r0, [pc, #232]	; (8001c10 <SetBT+0x1f4>)
 8001b28:	4b3a      	ldr	r3, [pc, #232]	; (8001c14 <SetBT+0x1f8>)
 8001b2a:	2400      	movs	r4, #0
 8001b2c:	e9c0 3400 	strd	r3, r4, [r0]
 8001b30:	6084      	str	r4, [r0, #8]
 8001b32:	238f      	movs	r3, #143	; 0x8f
 8001b34:	e7c3      	b.n	8001abe <SetBT+0xa2>
 8001b36:	4836      	ldr	r0, [pc, #216]	; (8001c10 <SetBT+0x1f4>)
 8001b38:	4b36      	ldr	r3, [pc, #216]	; (8001c14 <SetBT+0x1f8>)
 8001b3a:	2400      	movs	r4, #0
 8001b3c:	e9c0 3400 	strd	r3, r4, [r0]
 8001b40:	6084      	str	r4, [r0, #8]
 8001b42:	f240 131f 	movw	r3, #287	; 0x11f
 8001b46:	e7ba      	b.n	8001abe <SetBT+0xa2>
 8001b48:	4831      	ldr	r0, [pc, #196]	; (8001c10 <SetBT+0x1f4>)
 8001b4a:	f8df 80c8 	ldr.w	r8, [pc, #200]	; 8001c14 <SetBT+0x1f8>
 8001b4e:	2347      	movs	r3, #71	; 0x47
 8001b50:	2400      	movs	r4, #0
 8001b52:	e9c0 8300 	strd	r8, r3, [r0]
 8001b56:	6084      	str	r4, [r0, #8]
 8001b58:	2309      	movs	r3, #9
 8001b5a:	e7b0      	b.n	8001abe <SetBT+0xa2>
 8001b5c:	482c      	ldr	r0, [pc, #176]	; (8001c10 <SetBT+0x1f4>)
 8001b5e:	f8df e0b4 	ldr.w	lr, [pc, #180]	; 8001c14 <SetBT+0x1f8>
 8001b62:	2347      	movs	r3, #71	; 0x47
 8001b64:	2400      	movs	r4, #0
 8001b66:	e9c0 e300 	strd	lr, r3, [r0]
 8001b6a:	6084      	str	r4, [r0, #8]
 8001b6c:	2313      	movs	r3, #19
 8001b6e:	e7a6      	b.n	8001abe <SetBT+0xa2>
 8001b70:	4827      	ldr	r0, [pc, #156]	; (8001c10 <SetBT+0x1f4>)
 8001b72:	f8df c0a0 	ldr.w	ip, [pc, #160]	; 8001c14 <SetBT+0x1f8>
 8001b76:	2347      	movs	r3, #71	; 0x47
 8001b78:	2400      	movs	r4, #0
 8001b7a:	e9c0 c300 	strd	ip, r3, [r0]
 8001b7e:	6084      	str	r4, [r0, #8]
 8001b80:	2327      	movs	r3, #39	; 0x27
 8001b82:	e79c      	b.n	8001abe <SetBT+0xa2>
 8001b84:	4822      	ldr	r0, [pc, #136]	; (8001c10 <SetBT+0x1f4>)
 8001b86:	4f23      	ldr	r7, [pc, #140]	; (8001c14 <SetBT+0x1f8>)
 8001b88:	2347      	movs	r3, #71	; 0x47
 8001b8a:	2400      	movs	r4, #0
 8001b8c:	e9c0 7300 	strd	r7, r3, [r0]
 8001b90:	6084      	str	r4, [r0, #8]
 8001b92:	2363      	movs	r3, #99	; 0x63
 8001b94:	e793      	b.n	8001abe <SetBT+0xa2>
 8001b96:	481e      	ldr	r0, [pc, #120]	; (8001c10 <SetBT+0x1f4>)
 8001b98:	4e1e      	ldr	r6, [pc, #120]	; (8001c14 <SetBT+0x1f8>)
 8001b9a:	2347      	movs	r3, #71	; 0x47
 8001b9c:	2400      	movs	r4, #0
 8001b9e:	e9c0 6300 	strd	r6, r3, [r0]
 8001ba2:	6084      	str	r4, [r0, #8]
 8001ba4:	23c7      	movs	r3, #199	; 0xc7
 8001ba6:	e78a      	b.n	8001abe <SetBT+0xa2>
 8001ba8:	4819      	ldr	r0, [pc, #100]	; (8001c10 <SetBT+0x1f4>)
 8001baa:	4d1a      	ldr	r5, [pc, #104]	; (8001c14 <SetBT+0x1f8>)
 8001bac:	2347      	movs	r3, #71	; 0x47
 8001bae:	2400      	movs	r4, #0
 8001bb0:	e9c0 5300 	strd	r5, r3, [r0]
 8001bb4:	6084      	str	r4, [r0, #8]
 8001bb6:	f240 138f 	movw	r3, #399	; 0x18f
 8001bba:	e780      	b.n	8001abe <SetBT+0xa2>
 8001bbc:	4814      	ldr	r0, [pc, #80]	; (8001c10 <SetBT+0x1f4>)
 8001bbe:	4c15      	ldr	r4, [pc, #84]	; (8001c14 <SetBT+0x1f8>)
 8001bc0:	2347      	movs	r3, #71	; 0x47
 8001bc2:	e9c0 4300 	strd	r4, r3, [r0]
 8001bc6:	2400      	movs	r4, #0
 8001bc8:	6084      	str	r4, [r0, #8]
 8001bca:	f240 33e7 	movw	r3, #999	; 0x3e7
 8001bce:	e776      	b.n	8001abe <SetBT+0xa2>
 8001bd0:	480f      	ldr	r0, [pc, #60]	; (8001c10 <SetBT+0x1f4>)
 8001bd2:	4910      	ldr	r1, [pc, #64]	; (8001c14 <SetBT+0x1f8>)
 8001bd4:	2347      	movs	r3, #71	; 0x47
 8001bd6:	2400      	movs	r4, #0
 8001bd8:	e9c0 1300 	strd	r1, r3, [r0]
 8001bdc:	6084      	str	r4, [r0, #8]
 8001bde:	f240 73cf 	movw	r3, #1999	; 0x7cf
 8001be2:	e76c      	b.n	8001abe <SetBT+0xa2>
 8001be4:	480a      	ldr	r0, [pc, #40]	; (8001c10 <SetBT+0x1f4>)
 8001be6:	4a0b      	ldr	r2, [pc, #44]	; (8001c14 <SetBT+0x1f8>)
 8001be8:	2347      	movs	r3, #71	; 0x47
 8001bea:	2400      	movs	r4, #0
 8001bec:	e9c0 2300 	strd	r2, r3, [r0]
 8001bf0:	6084      	str	r4, [r0, #8]
 8001bf2:	f640 739f 	movw	r3, #3999	; 0xf9f
 8001bf6:	e762      	b.n	8001abe <SetBT+0xa2>
 8001bf8:	e8bd 81f0 	ldmia.w	sp!, {r4, r5, r6, r7, r8, pc}
 8001bfc:	200088d8 	.word	0x200088d8
 8001c00:	20009090 	.word	0x20009090
 8001c04:	200090e0 	.word	0x200090e0
 8001c08:	20009130 	.word	0x20009130
 8001c0c:	20009180 	.word	0x20009180
 8001c10:	2000959c 	.word	0x2000959c
 8001c14:	40000400 	.word	0x40000400

08001c18 <AtencionTecla>:
 8001c18:	b57f      	push	{r0, r1, r2, r3, r4, r5, r6, lr}
 8001c1a:	4cbb      	ldr	r4, [pc, #748]	; (8001f08 <AtencionTecla+0x2f0>)
 8001c1c:	f00b f8d8 	bl	800cdd0 <XPT2046_TouchGetCoordinates>
 8001c20:	6823      	ldr	r3, [r4, #0]
 8001c22:	f023 0302 	bic.w	r3, r3, #2
 8001c26:	2b01      	cmp	r3, #1
 8001c28:	d112      	bne.n	8001c50 <AtencionTecla+0x38>
 8001c2a:	2212      	movs	r2, #18
 8001c2c:	21c8      	movs	r1, #200	; 0xc8
 8001c2e:	2022      	movs	r0, #34	; 0x22
 8001c30:	f00a fdbe 	bl	800c7b0 <BOW_Activo>
 8001c34:	b160      	cbz	r0, 8001c50 <AtencionTecla+0x38>
 8001c36:	4bb5      	ldr	r3, [pc, #724]	; (8001f0c <AtencionTecla+0x2f4>)
 8001c38:	9300      	str	r3, [sp, #0]
 8001c3a:	2202      	movs	r2, #2
 8001c3c:	2312      	movs	r3, #18
 8001c3e:	21c8      	movs	r1, #200	; 0xc8
 8001c40:	2022      	movs	r0, #34	; 0x22
 8001c42:	f00a fa2d 	bl	800c0a0 <BOW>
 8001c46:	f00a fd3f 	bl	800c6c8 <FondoTeclas>
 8001c4a:	6823      	ldr	r3, [r4, #0]
 8001c4c:	3301      	adds	r3, #1
 8001c4e:	6023      	str	r3, [r4, #0]
 8001c50:	6823      	ldr	r3, [r4, #0]
 8001c52:	2b05      	cmp	r3, #5
 8001c54:	d101      	bne.n	8001c5a <AtencionTecla+0x42>
 8001c56:	f00b f86b 	bl	800cd30 <MenuAtencion>
 8001c5a:	6822      	ldr	r2, [r4, #0]
 8001c5c:	f241 3389 	movw	r3, #5001	; 0x1389
 8001c60:	429a      	cmp	r2, r3
 8001c62:	d101      	bne.n	8001c68 <AtencionTecla+0x50>
 8001c64:	f00b f864 	bl	800cd30 <MenuAtencion>
 8001c68:	6822      	ldr	r2, [r4, #0]
 8001c6a:	f241 4351 	movw	r3, #5201	; 0x1451
 8001c6e:	429a      	cmp	r2, r3
 8001c70:	d101      	bne.n	8001c76 <AtencionTecla+0x5e>
 8001c72:	f00b f85d 	bl	800cd30 <MenuAtencion>
 8001c76:	6822      	ldr	r2, [r4, #0]
 8001c78:	f241 435b 	movw	r3, #5211	; 0x145b
 8001c7c:	429a      	cmp	r2, r3
 8001c7e:	d106      	bne.n	8001c8e <AtencionTecla+0x76>
 8001c80:	48a3      	ldr	r0, [pc, #652]	; (8001f10 <AtencionTecla+0x2f8>)
 8001c82:	f241 4250 	movw	r2, #5200	; 0x1450
 8001c86:	f241 4182 	movw	r1, #5250	; 0x1482
 8001c8a:	f009 fe91 	bl	800b9b0 <f_TECLADO_ALFA_Input>
 8001c8e:	6822      	ldr	r2, [r4, #0]
 8001c90:	f241 4365 	movw	r3, #5221	; 0x1465
 8001c94:	429a      	cmp	r2, r3
 8001c96:	d106      	bne.n	8001ca6 <AtencionTecla+0x8e>
 8001c98:	489d      	ldr	r0, [pc, #628]	; (8001f10 <AtencionTecla+0x2f8>)
 8001c9a:	f241 4250 	movw	r2, #5200	; 0x1450
 8001c9e:	f241 418c 	movw	r1, #5260	; 0x148c
 8001ca2:	f009 fe85 	bl	800b9b0 <f_TECLADO_ALFA_Input>
 8001ca6:	6822      	ldr	r2, [r4, #0]
 8001ca8:	f241 33f7 	movw	r3, #5111	; 0x13f7
 8001cac:	429a      	cmp	r2, r3
 8001cae:	d105      	bne.n	8001cbc <AtencionTecla+0xa4>
 8001cb0:	4897      	ldr	r0, [pc, #604]	; (8001f10 <AtencionTecla+0x2f8>)
 8001cb2:	2204      	movs	r2, #4
 8001cb4:	f44f 51a0 	mov.w	r1, #5120	; 0x1400
 8001cb8:	f009 fe7a 	bl	800b9b0 <f_TECLADO_ALFA_Input>
 8001cbc:	6822      	ldr	r2, [r4, #0]
 8001cbe:	f241 33ed 	movw	r3, #5101	; 0x13ed
 8001cc2:	429a      	cmp	r2, r3
 8001cc4:	d101      	bne.n	8001cca <AtencionTecla+0xb2>
 8001cc6:	f00b f833 	bl	800cd30 <MenuAtencion>
 8001cca:	6822      	ldr	r2, [r4, #0]
 8001ccc:	f241 4329 	movw	r3, #5161	; 0x1429
 8001cd0:	429a      	cmp	r2, r3
 8001cd2:	d101      	bne.n	8001cd8 <AtencionTecla+0xc0>
 8001cd4:	f00b f82c 	bl	800cd30 <MenuAtencion>
 8001cd8:	6822      	ldr	r2, [r4, #0]
 8001cda:	f241 4333 	movw	r3, #5171	; 0x1433
 8001cde:	429a      	cmp	r2, r3
 8001ce0:	d101      	bne.n	8001ce6 <AtencionTecla+0xce>
 8001ce2:	f00b f825 	bl	800cd30 <MenuAtencion>
 8001ce6:	6822      	ldr	r2, [r4, #0]
 8001ce8:	f241 433d 	movw	r3, #5181	; 0x143d
 8001cec:	429a      	cmp	r2, r3
 8001cee:	d101      	bne.n	8001cf4 <AtencionTecla+0xdc>
 8001cf0:	f00b f81e 	bl	800cd30 <MenuAtencion>
 8001cf4:	6822      	ldr	r2, [r4, #0]
 8001cf6:	f241 430b 	movw	r3, #5131	; 0x140b
 8001cfa:	429a      	cmp	r2, r3
 8001cfc:	f040 80c3 	bne.w	8001e86 <AtencionTecla+0x26e>
 8001d00:	2304      	movs	r3, #4
 8001d02:	4618      	mov	r0, r3
 8001d04:	2200      	movs	r2, #0
 8001d06:	2137      	movs	r1, #55	; 0x37
 8001d08:	f009 ffbe 	bl	800bc88 <BCO_Activo>
 8001d0c:	2801      	cmp	r0, #1
 8001d0e:	4603      	mov	r3, r0
 8001d10:	d108      	bne.n	8001d24 <AtencionTecla+0x10c>
 8001d12:	4a80      	ldr	r2, [pc, #512]	; (8001f14 <AtencionTecla+0x2fc>)
 8001d14:	2104      	movs	r1, #4
 8001d16:	e9cd 0201 	strd	r0, r2, [sp, #4]
 8001d1a:	9100      	str	r1, [sp, #0]
 8001d1c:	487e      	ldr	r0, [pc, #504]	; (8001f18 <AtencionTecla+0x300>)
 8001d1e:	2237      	movs	r2, #55	; 0x37
 8001d20:	f00a fe62 	bl	800c9e8 <BCO>
 8001d24:	2304      	movs	r3, #4
 8001d26:	2200      	movs	r2, #0
 8001d28:	2137      	movs	r1, #55	; 0x37
 8001d2a:	4618      	mov	r0, r3
 8001d2c:	f009 ffac 	bl	800bc88 <BCO_Activo>
 8001d30:	2802      	cmp	r0, #2
 8001d32:	d109      	bne.n	8001d48 <AtencionTecla+0x130>
 8001d34:	4b77      	ldr	r3, [pc, #476]	; (8001f14 <AtencionTecla+0x2fc>)
 8001d36:	2104      	movs	r1, #4
 8001d38:	e9cd 0301 	strd	r0, r3, [sp, #4]
 8001d3c:	9100      	str	r1, [sp, #0]
 8001d3e:	4876      	ldr	r0, [pc, #472]	; (8001f18 <AtencionTecla+0x300>)
 8001d40:	2301      	movs	r3, #1
 8001d42:	2237      	movs	r2, #55	; 0x37
 8001d44:	f00a fe50 	bl	800c9e8 <BCO>
 8001d48:	2304      	movs	r3, #4
 8001d4a:	2200      	movs	r2, #0
 8001d4c:	2137      	movs	r1, #55	; 0x37
 8001d4e:	4618      	mov	r0, r3
 8001d50:	f009 ff9a 	bl	800bc88 <BCO_Activo>
 8001d54:	2803      	cmp	r0, #3
 8001d56:	d109      	bne.n	8001d6c <AtencionTecla+0x154>
 8001d58:	4b6e      	ldr	r3, [pc, #440]	; (8001f14 <AtencionTecla+0x2fc>)
 8001d5a:	2104      	movs	r1, #4
 8001d5c:	e9cd 0301 	strd	r0, r3, [sp, #4]
 8001d60:	9100      	str	r1, [sp, #0]
 8001d62:	486d      	ldr	r0, [pc, #436]	; (8001f18 <AtencionTecla+0x300>)
 8001d64:	2301      	movs	r3, #1
 8001d66:	2237      	movs	r2, #55	; 0x37
 8001d68:	f00a fe3e 	bl	800c9e8 <BCO>
 8001d6c:	2304      	movs	r3, #4
 8001d6e:	2137      	movs	r1, #55	; 0x37
 8001d70:	2200      	movs	r2, #0
 8001d72:	4618      	mov	r0, r3
 8001d74:	f009 ff88 	bl	800bc88 <BCO_Activo>
 8001d78:	2804      	cmp	r0, #4
 8001d7a:	4601      	mov	r1, r0
 8001d7c:	d108      	bne.n	8001d90 <AtencionTecla+0x178>
 8001d7e:	4b65      	ldr	r3, [pc, #404]	; (8001f14 <AtencionTecla+0x2fc>)
 8001d80:	9000      	str	r0, [sp, #0]
 8001d82:	e9cd 0301 	strd	r0, r3, [sp, #4]
 8001d86:	2237      	movs	r2, #55	; 0x37
 8001d88:	4863      	ldr	r0, [pc, #396]	; (8001f18 <AtencionTecla+0x300>)
 8001d8a:	2301      	movs	r3, #1
 8001d8c:	f00a fe2c 	bl	800c9e8 <BCO>
 8001d90:	2302      	movs	r3, #2
 8001d92:	2200      	movs	r2, #0
 8001d94:	2137      	movs	r1, #55	; 0x37
 8001d96:	20d2      	movs	r0, #210	; 0xd2
 8001d98:	f009 ff76 	bl	800bc88 <BCO_Activo>
 8001d9c:	2801      	cmp	r0, #1
 8001d9e:	4603      	mov	r3, r0
 8001da0:	d109      	bne.n	8001db6 <AtencionTecla+0x19e>
 8001da2:	4a5e      	ldr	r2, [pc, #376]	; (8001f1c <AtencionTecla+0x304>)
 8001da4:	e9cd 0201 	strd	r0, r2, [sp, #4]
 8001da8:	2202      	movs	r2, #2
 8001daa:	9200      	str	r2, [sp, #0]
 8001dac:	485a      	ldr	r0, [pc, #360]	; (8001f18 <AtencionTecla+0x300>)
 8001dae:	2237      	movs	r2, #55	; 0x37
 8001db0:	21c8      	movs	r1, #200	; 0xc8
 8001db2:	f00a fe19 	bl	800c9e8 <BCO>
 8001db6:	2302      	movs	r3, #2
 8001db8:	2200      	movs	r2, #0
 8001dba:	2137      	movs	r1, #55	; 0x37
 8001dbc:	20d2      	movs	r0, #210	; 0xd2
 8001dbe:	f009 ff63 	bl	800bc88 <BCO_Activo>
 8001dc2:	2802      	cmp	r0, #2
 8001dc4:	d109      	bne.n	8001dda <AtencionTecla+0x1c2>
 8001dc6:	4b55      	ldr	r3, [pc, #340]	; (8001f1c <AtencionTecla+0x304>)
 8001dc8:	9000      	str	r0, [sp, #0]
 8001dca:	e9cd 0301 	strd	r0, r3, [sp, #4]
 8001dce:	2237      	movs	r2, #55	; 0x37
 8001dd0:	4851      	ldr	r0, [pc, #324]	; (8001f18 <AtencionTecla+0x300>)
 8001dd2:	2301      	movs	r3, #1
 8001dd4:	21c8      	movs	r1, #200	; 0xc8
 8001dd6:	f00a fe07 	bl	800c9e8 <BCO>
 8001dda:	21a0      	movs	r1, #160	; 0xa0
 8001ddc:	2004      	movs	r0, #4
 8001dde:	f009 ffd9 	bl	800bd94 <CHECK_CIRC_Activo>
 8001de2:	b160      	cbz	r0, 8001dfe <AtencionTecla+0x1e6>
 8001de4:	4a4e      	ldr	r2, [pc, #312]	; (8001f20 <AtencionTecla+0x308>)
 8001de6:	7813      	ldrb	r3, [r2, #0]
 8001de8:	fab3 f383 	clz	r3, r3
 8001dec:	095b      	lsrs	r3, r3, #5
 8001dee:	7013      	strb	r3, [r2, #0]
 8001df0:	21a0      	movs	r1, #160	; 0xa0
 8001df2:	9300      	str	r3, [sp, #0]
 8001df4:	4a4b      	ldr	r2, [pc, #300]	; (8001f24 <AtencionTecla+0x30c>)
 8001df6:	4b4c      	ldr	r3, [pc, #304]	; (8001f28 <AtencionTecla+0x310>)
 8001df8:	2004      	movs	r0, #4
 8001dfa:	f009 ff81 	bl	800bd00 <CHECK_CIRC>
 8001dfe:	21a0      	movs	r1, #160	; 0xa0
 8001e00:	2072      	movs	r0, #114	; 0x72
 8001e02:	f009 ffc7 	bl	800bd94 <CHECK_CIRC_Activo>
 8001e06:	b160      	cbz	r0, 8001e22 <AtencionTecla+0x20a>
 8001e08:	4a48      	ldr	r2, [pc, #288]	; (8001f2c <AtencionTecla+0x314>)
 8001e0a:	7813      	ldrb	r3, [r2, #0]
 8001e0c:	fab3 f383 	clz	r3, r3
 8001e10:	095b      	lsrs	r3, r3, #5
 8001e12:	7013      	strb	r3, [r2, #0]
 8001e14:	21a0      	movs	r1, #160	; 0xa0
 8001e16:	9300      	str	r3, [sp, #0]
 8001e18:	4a45      	ldr	r2, [pc, #276]	; (8001f30 <AtencionTecla+0x318>)
 8001e1a:	4b46      	ldr	r3, [pc, #280]	; (8001f34 <AtencionTecla+0x31c>)
 8001e1c:	2072      	movs	r0, #114	; 0x72
 8001e1e:	f009 ff6f 	bl	800bd00 <CHECK_CIRC>
 8001e22:	21a0      	movs	r1, #160	; 0xa0
 8001e24:	20e0      	movs	r0, #224	; 0xe0
 8001e26:	f009 ffb5 	bl	800bd94 <CHECK_CIRC_Activo>
 8001e2a:	b168      	cbz	r0, 8001e48 <AtencionTecla+0x230>
 8001e2c:	4a3c      	ldr	r2, [pc, #240]	; (8001f20 <AtencionTecla+0x308>)
 8001e2e:	7813      	ldrb	r3, [r2, #0]
 8001e30:	fab3 f383 	clz	r3, r3
 8001e34:	095b      	lsrs	r3, r3, #5
 8001e36:	7013      	strb	r3, [r2, #0]
 8001e38:	2300      	movs	r3, #0
 8001e3a:	9300      	str	r3, [sp, #0]
 8001e3c:	4a3e      	ldr	r2, [pc, #248]	; (8001f38 <AtencionTecla+0x320>)
 8001e3e:	4b3f      	ldr	r3, [pc, #252]	; (8001f3c <AtencionTecla+0x324>)
 8001e40:	21a0      	movs	r1, #160	; 0xa0
 8001e42:	20e0      	movs	r0, #224	; 0xe0
 8001e44:	f009 ff5c 	bl	800bd00 <CHECK_CIRC>
 8001e48:	220b      	movs	r2, #11
 8001e4a:	21ca      	movs	r1, #202	; 0xca
 8001e4c:	2003      	movs	r0, #3
 8001e4e:	f00a fcaf 	bl	800c7b0 <BOW_Activo>
 8001e52:	b138      	cbz	r0, 8001e64 <AtencionTecla+0x24c>
 8001e54:	4b3a      	ldr	r3, [pc, #232]	; (8001f40 <AtencionTecla+0x328>)
 8001e56:	9300      	str	r3, [sp, #0]
 8001e58:	2202      	movs	r2, #2
 8001e5a:	230b      	movs	r3, #11
 8001e5c:	21ca      	movs	r1, #202	; 0xca
 8001e5e:	2003      	movs	r0, #3
 8001e60:	f00a f91e 	bl	800c0a0 <BOW>
 8001e64:	220b      	movs	r2, #11
 8001e66:	21ca      	movs	r1, #202	; 0xca
 8001e68:	20a2      	movs	r0, #162	; 0xa2
 8001e6a:	f00a fca1 	bl	800c7b0 <BOW_Activo>
 8001e6e:	b150      	cbz	r0, 8001e86 <AtencionTecla+0x26e>
 8001e70:	4b34      	ldr	r3, [pc, #208]	; (8001f44 <AtencionTecla+0x32c>)
 8001e72:	9300      	str	r3, [sp, #0]
 8001e74:	2202      	movs	r2, #2
 8001e76:	230b      	movs	r3, #11
 8001e78:	21ca      	movs	r1, #202	; 0xca
 8001e7a:	20a2      	movs	r0, #162	; 0xa2
 8001e7c:	f00a f910 	bl	800c0a0 <BOW>
 8001e80:	f241 33ec 	movw	r3, #5100	; 0x13ec
 8001e84:	6023      	str	r3, [r4, #0]
 8001e86:	6823      	ldr	r3, [r4, #0]
 8001e88:	f241 422b 	movw	r2, #5163	; 0x142b
 8001e8c:	4293      	cmp	r3, r2
 8001e8e:	d00c      	beq.n	8001eaa <AtencionTecla+0x292>
 8001e90:	f5a3 53a1 	sub.w	r3, r3, #5152	; 0x1420
 8001e94:	3b15      	subs	r3, #21
 8001e96:	2b0c      	cmp	r3, #12
 8001e98:	f200 8112 	bhi.w	80020c0 <AtencionTecla+0x4a8>
 8001e9c:	f241 4201 	movw	r2, #5121	; 0x1401
 8001ea0:	fa22 f303 	lsr.w	r3, r2, r3
 8001ea4:	07db      	lsls	r3, r3, #31
 8001ea6:	f140 810b 	bpl.w	80020c0 <AtencionTecla+0x4a8>
 8001eaa:	4827      	ldr	r0, [pc, #156]	; (8001f48 <AtencionTecla+0x330>)
 8001eac:	2253      	movs	r2, #83	; 0x53
 8001eae:	2102      	movs	r1, #2
 8001eb0:	f00a fc9a 	bl	800c7e8 <BOT_Activo>
 8001eb4:	2800      	cmp	r0, #0
 8001eb6:	d04d      	beq.n	8001f54 <AtencionTecla+0x33c>
 8001eb8:	4823      	ldr	r0, [pc, #140]	; (8001f48 <AtencionTecla+0x330>)
 8001eba:	4d24      	ldr	r5, [pc, #144]	; (8001f4c <AtencionTecla+0x334>)
 8001ebc:	2301      	movs	r3, #1
 8001ebe:	2253      	movs	r2, #83	; 0x53
 8001ec0:	2102      	movs	r1, #2
 8001ec2:	f00a fec3 	bl	800cc4c <BOT>
 8001ec6:	f00a ff83 	bl	800cdd0 <XPT2046_TouchGetCoordinates>
 8001eca:	682b      	ldr	r3, [r5, #0]
 8001ecc:	4820      	ldr	r0, [pc, #128]	; (8001f50 <AtencionTecla+0x338>)
 8001ece:	2b01      	cmp	r3, #1
 8001ed0:	bfc4      	itt	gt
 8001ed2:	f103 33ff 	addgt.w	r3, r3, #4294967295
 8001ed6:	602b      	strgt	r3, [r5, #0]
 8001ed8:	782b      	ldrb	r3, [r5, #0]
 8001eda:	9301      	str	r3, [sp, #4]
 8001edc:	2300      	movs	r3, #0
 8001ede:	9300      	str	r3, [sp, #0]
 8001ee0:	225f      	movs	r2, #95	; 0x5f
 8001ee2:	2302      	movs	r3, #2
 8001ee4:	2123      	movs	r1, #35	; 0x23
 8001ee6:	f009 fc99 	bl	800b81c <f_PEL>
 8001eea:	4817      	ldr	r0, [pc, #92]	; (8001f48 <AtencionTecla+0x330>)
 8001eec:	2253      	movs	r2, #83	; 0x53
 8001eee:	2102      	movs	r1, #2
 8001ef0:	f00a fc7a 	bl	800c7e8 <BOT_Activo>
 8001ef4:	4603      	mov	r3, r0
 8001ef6:	2800      	cmp	r0, #0
 8001ef8:	d1e5      	bne.n	8001ec6 <AtencionTecla+0x2ae>
 8001efa:	4813      	ldr	r0, [pc, #76]	; (8001f48 <AtencionTecla+0x330>)
 8001efc:	2253      	movs	r2, #83	; 0x53
 8001efe:	2102      	movs	r1, #2
 8001f00:	f00a fea4 	bl	800cc4c <BOT>
 8001f04:	e026      	b.n	8001f54 <AtencionTecla+0x33c>
 8001f06:	bf00      	nop
 8001f08:	200047a8 	.word	0x200047a8
 8001f0c:	0800f14e 	.word	0x0800f14e
 8001f10:	2000020c 	.word	0x2000020c
 8001f14:	0800f15d 	.word	0x0800f15d
 8001f18:	0801040d 	.word	0x0801040d
 8001f1c:	0800ef21 	.word	0x0800ef21
 8001f20:	20004791 	.word	0x20004791
 8001f24:	0800ef30 	.word	0x0800ef30
 8001f28:	0800ef28 	.word	0x0800ef28
 8001f2c:	20004790 	.word	0x20004790
 8001f30:	0800ef3d 	.word	0x0800ef3d
 8001f34:	0800ef36 	.word	0x0800ef36
 8001f38:	0800ef44 	.word	0x0800ef44
 8001f3c:	08010e84 	.word	0x08010e84
 8001f40:	0800ef4c 	.word	0x0800ef4c
 8001f44:	0800f157 	.word	0x0800f157
 8001f48:	08010134 	.word	0x08010134
 8001f4c:	2000479c 	.word	0x2000479c
 8001f50:	2000136c 	.word	0x2000136c
 8001f54:	487f      	ldr	r0, [pc, #508]	; (8002154 <AtencionTecla+0x53c>)
 8001f56:	2253      	movs	r2, #83	; 0x53
 8001f58:	217f      	movs	r1, #127	; 0x7f
 8001f5a:	f00a fc45 	bl	800c7e8 <BOT_Activo>
 8001f5e:	b328      	cbz	r0, 8001fac <AtencionTecla+0x394>
 8001f60:	487c      	ldr	r0, [pc, #496]	; (8002154 <AtencionTecla+0x53c>)
 8001f62:	4d7d      	ldr	r5, [pc, #500]	; (8002158 <AtencionTecla+0x540>)
 8001f64:	4e7d      	ldr	r6, [pc, #500]	; (800215c <AtencionTecla+0x544>)
 8001f66:	2301      	movs	r3, #1
 8001f68:	2253      	movs	r2, #83	; 0x53
 8001f6a:	217f      	movs	r1, #127	; 0x7f
 8001f6c:	f00a fe6e 	bl	800cc4c <BOT>
 8001f70:	f00a ff2e 	bl	800cdd0 <XPT2046_TouchGetCoordinates>
 8001f74:	682b      	ldr	r3, [r5, #0]
 8001f76:	2b11      	cmp	r3, #17
 8001f78:	bfdc      	itt	le
 8001f7a:	3301      	addle	r3, #1
 8001f7c:	602b      	strle	r3, [r5, #0]
 8001f7e:	782b      	ldrb	r3, [r5, #0]
 8001f80:	9301      	str	r3, [sp, #4]
 8001f82:	2300      	movs	r3, #0
 8001f84:	9300      	str	r3, [sp, #0]
 8001f86:	225f      	movs	r2, #95	; 0x5f
 8001f88:	2302      	movs	r3, #2
 8001f8a:	2123      	movs	r1, #35	; 0x23
 8001f8c:	4630      	mov	r0, r6
 8001f8e:	f009 fc45 	bl	800b81c <f_PEL>
 8001f92:	4870      	ldr	r0, [pc, #448]	; (8002154 <AtencionTecla+0x53c>)
 8001f94:	2253      	movs	r2, #83	; 0x53
 8001f96:	217f      	movs	r1, #127	; 0x7f
 8001f98:	f00a fc26 	bl	800c7e8 <BOT_Activo>
 8001f9c:	4603      	mov	r3, r0
 8001f9e:	2800      	cmp	r0, #0
 8001fa0:	d1e6      	bne.n	8001f70 <AtencionTecla+0x358>
 8001fa2:	486c      	ldr	r0, [pc, #432]	; (8002154 <AtencionTecla+0x53c>)
 8001fa4:	2253      	movs	r2, #83	; 0x53
 8001fa6:	217f      	movs	r1, #127	; 0x7f
 8001fa8:	f00a fe50 	bl	800cc4c <BOT>
 8001fac:	486c      	ldr	r0, [pc, #432]	; (8002160 <AtencionTecla+0x548>)
 8001fae:	2253      	movs	r2, #83	; 0x53
 8001fb0:	21a2      	movs	r1, #162	; 0xa2
 8001fb2:	f00a fc19 	bl	800c7e8 <BOT_Activo>
 8001fb6:	b330      	cbz	r0, 8002006 <AtencionTecla+0x3ee>
 8001fb8:	4869      	ldr	r0, [pc, #420]	; (8002160 <AtencionTecla+0x548>)
 8001fba:	4d6a      	ldr	r5, [pc, #424]	; (8002164 <AtencionTecla+0x54c>)
 8001fbc:	4e67      	ldr	r6, [pc, #412]	; (800215c <AtencionTecla+0x544>)
 8001fbe:	2301      	movs	r3, #1
 8001fc0:	2253      	movs	r2, #83	; 0x53
 8001fc2:	21a2      	movs	r1, #162	; 0xa2
 8001fc4:	f00a fe42 	bl	800cc4c <BOT>
 8001fc8:	f00a ff02 	bl	800cdd0 <XPT2046_TouchGetCoordinates>
 8001fcc:	682b      	ldr	r3, [r5, #0]
 8001fce:	2b01      	cmp	r3, #1
 8001fd0:	bfc4      	itt	gt
 8001fd2:	f103 33ff 	addgt.w	r3, r3, #4294967295
 8001fd6:	602b      	strgt	r3, [r5, #0]
 8001fd8:	782b      	ldrb	r3, [r5, #0]
 8001fda:	9301      	str	r3, [sp, #4]
 8001fdc:	2300      	movs	r3, #0
 8001fde:	9300      	str	r3, [sp, #0]
 8001fe0:	225f      	movs	r2, #95	; 0x5f
 8001fe2:	2302      	movs	r3, #2
 8001fe4:	21c3      	movs	r1, #195	; 0xc3
 8001fe6:	4630      	mov	r0, r6
 8001fe8:	f009 fc18 	bl	800b81c <f_PEL>
 8001fec:	485c      	ldr	r0, [pc, #368]	; (8002160 <AtencionTecla+0x548>)
 8001fee:	2253      	movs	r2, #83	; 0x53
 8001ff0:	21a2      	movs	r1, #162	; 0xa2
 8001ff2:	f00a fbf9 	bl	800c7e8 <BOT_Activo>
 8001ff6:	4603      	mov	r3, r0
 8001ff8:	2800      	cmp	r0, #0
 8001ffa:	d1e5      	bne.n	8001fc8 <AtencionTecla+0x3b0>
 8001ffc:	4858      	ldr	r0, [pc, #352]	; (8002160 <AtencionTecla+0x548>)
 8001ffe:	2253      	movs	r2, #83	; 0x53
 8002000:	21a2      	movs	r1, #162	; 0xa2
 8002002:	f00a fe23 	bl	800cc4c <BOT>
 8002006:	4853      	ldr	r0, [pc, #332]	; (8002154 <AtencionTecla+0x53c>)
 8002008:	2253      	movs	r2, #83	; 0x53
 800200a:	f240 111f 	movw	r1, #287	; 0x11f
 800200e:	f00a fbeb 	bl	800c7e8 <BOT_Activo>
 8002012:	b340      	cbz	r0, 8002066 <AtencionTecla+0x44e>
 8002014:	484f      	ldr	r0, [pc, #316]	; (8002154 <AtencionTecla+0x53c>)
 8002016:	4d53      	ldr	r5, [pc, #332]	; (8002164 <AtencionTecla+0x54c>)
 8002018:	4e50      	ldr	r6, [pc, #320]	; (800215c <AtencionTecla+0x544>)
 800201a:	2301      	movs	r3, #1
 800201c:	2253      	movs	r2, #83	; 0x53
 800201e:	f240 111f 	movw	r1, #287	; 0x11f
 8002022:	f00a fe13 	bl	800cc4c <BOT>
 8002026:	f00a fed3 	bl	800cdd0 <XPT2046_TouchGetCoordinates>
 800202a:	682b      	ldr	r3, [r5, #0]
 800202c:	2b11      	cmp	r3, #17
 800202e:	bfdc      	itt	le
 8002030:	3301      	addle	r3, #1
 8002032:	602b      	strle	r3, [r5, #0]
 8002034:	782b      	ldrb	r3, [r5, #0]
 8002036:	9301      	str	r3, [sp, #4]
 8002038:	2300      	movs	r3, #0
 800203a:	9300      	str	r3, [sp, #0]
 800203c:	225f      	movs	r2, #95	; 0x5f
 800203e:	2302      	movs	r3, #2
 8002040:	21c3      	movs	r1, #195	; 0xc3
 8002042:	4630      	mov	r0, r6
 8002044:	f009 fbea 	bl	800b81c <f_PEL>
 8002048:	4842      	ldr	r0, [pc, #264]	; (8002154 <AtencionTecla+0x53c>)
 800204a:	2253      	movs	r2, #83	; 0x53
 800204c:	f240 111f 	movw	r1, #287	; 0x11f
 8002050:	f00a fbca 	bl	800c7e8 <BOT_Activo>
 8002054:	4603      	mov	r3, r0
 8002056:	2800      	cmp	r0, #0
 8002058:	d1e5      	bne.n	8002026 <AtencionTecla+0x40e>
 800205a:	483e      	ldr	r0, [pc, #248]	; (8002154 <AtencionTecla+0x53c>)
 800205c:	2253      	movs	r2, #83	; 0x53
 800205e:	f240 111f 	movw	r1, #287	; 0x11f
 8002062:	f00a fdf3 	bl	800cc4c <BOT>
 8002066:	2204      	movs	r2, #4
 8002068:	21ca      	movs	r1, #202	; 0xca
 800206a:	2033      	movs	r0, #51	; 0x33
 800206c:	f00a fba0 	bl	800c7b0 <BOW_Activo>
 8002070:	b138      	cbz	r0, 8002082 <AtencionTecla+0x46a>
 8002072:	4b3d      	ldr	r3, [pc, #244]	; (8002168 <AtencionTecla+0x550>)
 8002074:	9300      	str	r3, [sp, #0]
 8002076:	2202      	movs	r2, #2
 8002078:	2304      	movs	r3, #4
 800207a:	21ca      	movs	r1, #202	; 0xca
 800207c:	2033      	movs	r0, #51	; 0x33
 800207e:	f00a f80f 	bl	800c0a0 <BOW>
 8002082:	2204      	movs	r2, #4
 8002084:	21ca      	movs	r1, #202	; 0xca
 8002086:	20d3      	movs	r0, #211	; 0xd3
 8002088:	f00a fb92 	bl	800c7b0 <BOW_Activo>
 800208c:	b138      	cbz	r0, 800209e <AtencionTecla+0x486>
 800208e:	4b36      	ldr	r3, [pc, #216]	; (8002168 <AtencionTecla+0x550>)
 8002090:	9300      	str	r3, [sp, #0]
 8002092:	2202      	movs	r2, #2
 8002094:	2304      	movs	r3, #4
 8002096:	21ca      	movs	r1, #202	; 0xca
 8002098:	20d3      	movs	r0, #211	; 0xd3
 800209a:	f00a f801 	bl	800c0a0 <BOW>
 800209e:	2206      	movs	r2, #6
 80020a0:	21ca      	movs	r1, #202	; 0xca
 80020a2:	2075      	movs	r0, #117	; 0x75
 80020a4:	f00a fb84 	bl	800c7b0 <BOW_Activo>
 80020a8:	b150      	cbz	r0, 80020c0 <AtencionTecla+0x4a8>
 80020aa:	4b30      	ldr	r3, [pc, #192]	; (800216c <AtencionTecla+0x554>)
 80020ac:	9300      	str	r3, [sp, #0]
 80020ae:	2202      	movs	r2, #2
 80020b0:	2306      	movs	r3, #6
 80020b2:	21ca      	movs	r1, #202	; 0xca
 80020b4:	2075      	movs	r0, #117	; 0x75
 80020b6:	f009 fff3 	bl	800c0a0 <BOW>
 80020ba:	f241 33ec 	movw	r3, #5100	; 0x13ec
 80020be:	6023      	str	r3, [r4, #0]
 80020c0:	6822      	ldr	r2, [r4, #0]
 80020c2:	f240 73d1 	movw	r3, #2001	; 0x7d1
 80020c6:	429a      	cmp	r2, r3
 80020c8:	d125      	bne.n	8002116 <AtencionTecla+0x4fe>
 80020ca:	2206      	movs	r2, #6
 80020cc:	2103      	movs	r1, #3
 80020ce:	2076      	movs	r0, #118	; 0x76
 80020d0:	f00a fb6e 	bl	800c7b0 <BOW_Activo>
 80020d4:	b1f8      	cbz	r0, 8002116 <AtencionTecla+0x4fe>
 80020d6:	4b25      	ldr	r3, [pc, #148]	; (800216c <AtencionTecla+0x554>)
 80020d8:	9300      	str	r3, [sp, #0]
 80020da:	2202      	movs	r2, #2
 80020dc:	2306      	movs	r3, #6
 80020de:	2103      	movs	r1, #3
 80020e0:	2076      	movs	r0, #118	; 0x76
 80020e2:	f009 ffdd 	bl	800c0a0 <BOW>
 80020e6:	2304      	movs	r3, #4
 80020e8:	6023      	str	r3, [r4, #0]
 80020ea:	6822      	ldr	r2, [r4, #0]
 80020ec:	f640 03fd 	movw	r3, #2301	; 0x8fd
 80020f0:	429a      	cmp	r2, r3
 80020f2:	d117      	bne.n	8002124 <AtencionTecla+0x50c>
 80020f4:	4b1e      	ldr	r3, [pc, #120]	; (8002170 <AtencionTecla+0x558>)
 80020f6:	681b      	ldr	r3, [r3, #0]
 80020f8:	2b63      	cmp	r3, #99	; 0x63
 80020fa:	d81d      	bhi.n	8002138 <AtencionTecla+0x520>
 80020fc:	4a1d      	ldr	r2, [pc, #116]	; (8002174 <AtencionTecla+0x55c>)
 80020fe:	6813      	ldr	r3, [r2, #0]
 8002100:	b10b      	cbz	r3, 8002106 <AtencionTecla+0x4ee>
 8002102:	3b01      	subs	r3, #1
 8002104:	6013      	str	r3, [r2, #0]
 8002106:	4c1c      	ldr	r4, [pc, #112]	; (8002178 <AtencionTecla+0x560>)
 8002108:	2102      	movs	r1, #2
 800210a:	4620      	mov	r0, r4
 800210c:	f002 f902 	bl	8004314 <HAL_GPIO_ReadPin>
 8002110:	2800      	cmp	r0, #0
 8002112:	d0f9      	beq.n	8002108 <AtencionTecla+0x4f0>
 8002114:	e006      	b.n	8002124 <AtencionTecla+0x50c>
 8002116:	6823      	ldr	r3, [r4, #0]
 8002118:	f640 0235 	movw	r2, #2101	; 0x835
 800211c:	4293      	cmp	r3, r2
 800211e:	d106      	bne.n	800212e <AtencionTecla+0x516>
 8002120:	2304      	movs	r3, #4
 8002122:	6023      	str	r3, [r4, #0]
 8002124:	4b15      	ldr	r3, [pc, #84]	; (800217c <AtencionTecla+0x564>)
 8002126:	2200      	movs	r2, #0
 8002128:	701a      	strb	r2, [r3, #0]
 800212a:	b004      	add	sp, #16
 800212c:	bd70      	pop	{r4, r5, r6, pc}
 800212e:	f640 0299 	movw	r2, #2201	; 0x899
 8002132:	4293      	cmp	r3, r2
 8002134:	d0f4      	beq.n	8002120 <AtencionTecla+0x508>
 8002136:	e7d8      	b.n	80020ea <AtencionTecla+0x4d2>
 8002138:	2bd2      	cmp	r3, #210	; 0xd2
 800213a:	d905      	bls.n	8002148 <AtencionTecla+0x530>
 800213c:	4a0d      	ldr	r2, [pc, #52]	; (8002174 <AtencionTecla+0x55c>)
 800213e:	6813      	ldr	r3, [r2, #0]
 8002140:	2b0d      	cmp	r3, #13
 8002142:	d8e0      	bhi.n	8002106 <AtencionTecla+0x4ee>
 8002144:	3301      	adds	r3, #1
 8002146:	e7dd      	b.n	8002104 <AtencionTecla+0x4ec>
 8002148:	3b65      	subs	r3, #101	; 0x65
 800214a:	2b6c      	cmp	r3, #108	; 0x6c
 800214c:	bf9c      	itt	ls
 800214e:	2304      	movls	r3, #4
 8002150:	6023      	strls	r3, [r4, #0]
 8002152:	e7d8      	b.n	8002106 <AtencionTecla+0x4ee>
 8002154:	0800fe57 	.word	0x0800fe57
 8002158:	2000479c 	.word	0x2000479c
 800215c:	2000136c 	.word	0x2000136c
 8002160:	08010134 	.word	0x08010134
 8002164:	200047a0 	.word	0x200047a0
 8002168:	0800ef4c 	.word	0x0800ef4c
 800216c:	0800f157 	.word	0x0800f157
 8002170:	20009fa0 	.word	0x20009fa0
 8002174:	200088d8 	.word	0x200088d8
 8002178:	48000400 	.word	0x48000400
 800217c:	200088dc 	.word	0x200088dc

08002180 <GenOnda>:
 8002180:	e92d 4ff8 	stmdb	sp!, {r3, r4, r5, r6, r7, r8, r9, sl, fp, lr}
 8002184:	f20f 096c 	addw	r9, pc, #108	; 0x6c
 8002188:	e9d9 8900 	ldrd	r8, r9, [r9]
 800218c:	f8df b06c 	ldr.w	fp, [pc, #108]	; 80021fc <GenOnda+0x7c>
 8002190:	4f15      	ldr	r7, [pc, #84]	; (80021e8 <GenOnda+0x68>)
 8002192:	4d16      	ldr	r5, [pc, #88]	; (80021ec <GenOnda+0x6c>)
 8002194:	f04f 0a00 	mov.w	sl, #0
 8002198:	2600      	movs	r6, #0
 800219a:	2400      	movs	r4, #0
 800219c:	4650      	mov	r0, sl
 800219e:	f7fe f9c9 	bl	8000534 <__aeabi_i2d>
 80021a2:	4642      	mov	r2, r8
 80021a4:	464b      	mov	r3, r9
 80021a6:	f7fe fa2f 	bl	8000608 <__aeabi_dmul>
 80021aa:	4632      	mov	r2, r6
 80021ac:	463b      	mov	r3, r7
 80021ae:	f7fe fb55 	bl	800085c <__aeabi_ddiv>
 80021b2:	ec41 0b10 	vmov	d0, r0, r1
 80021b6:	f00b fd53 	bl	800dc60 <sin>
 80021ba:	4622      	mov	r2, r4
 80021bc:	ec51 0b10 	vmov	r0, r1, d0
 80021c0:	462b      	mov	r3, r5
 80021c2:	f7fe fa21 	bl	8000608 <__aeabi_dmul>
 80021c6:	4b0a      	ldr	r3, [pc, #40]	; (80021f0 <GenOnda+0x70>)
 80021c8:	2200      	movs	r2, #0
 80021ca:	f7fe f867 	bl	800029c <__adddf3>
 80021ce:	f7fe fcdd 	bl	8000b8c <__aeabi_d2uiz>
 80021d2:	f10a 0a01 	add.w	sl, sl, #1
 80021d6:	f1ba 0f64 	cmp.w	sl, #100	; 0x64
 80021da:	f84b 0b04 	str.w	r0, [fp], #4
 80021de:	d1dd      	bne.n	800219c <GenOnda+0x1c>
 80021e0:	e8bd 8ff8 	ldmia.w	sp!, {r3, r4, r5, r6, r7, r8, r9, sl, fp, pc}
 80021e4:	f3af 8000 	nop.w
 80021e8:	40590000 	.word	0x40590000
 80021ec:	408f4000 	.word	0x408f4000
 80021f0:	40a00000 	.word	0x40a00000
 80021f4:	1569f490 	.word	0x1569f490
 80021f8:	401921fd 	.word	0x401921fd
 80021fc:	20008ccc 	.word	0x20008ccc

08002200 <SystemClock_Config>:
 8002200:	b570      	push	{r4, r5, r6, lr}
 8002202:	2220      	movs	r2, #32
 8002204:	b0a6      	sub	sp, #152	; 0x98
 8002206:	eb0d 0002 	add.w	r0, sp, r2
 800220a:	2100      	movs	r1, #0
 800220c:	f00b f89a 	bl	800d344 <memset>
 8002210:	2214      	movs	r2, #20
 8002212:	2100      	movs	r1, #0
 8002214:	a801      	add	r0, sp, #4
 8002216:	f00b f895 	bl	800d344 <memset>
 800221a:	2100      	movs	r1, #0
 800221c:	2258      	movs	r2, #88	; 0x58
 800221e:	a810      	add	r0, sp, #64	; 0x40
 8002220:	f00b f890 	bl	800d344 <memset>
 8002224:	f44f 22a0 	mov.w	r2, #327680	; 0x50000
 8002228:	2301      	movs	r3, #1
 800222a:	e9cd 3206 	strd	r3, r2, [sp, #24]
 800222e:	2502      	movs	r5, #2
 8002230:	9309      	str	r3, [sp, #36]	; 0x24
 8002232:	f44f 3680 	mov.w	r6, #65536	; 0x10000
 8002236:	f44f 13e0 	mov.w	r3, #1835008	; 0x1c0000
 800223a:	a806      	add	r0, sp, #24
 800223c:	930e      	str	r3, [sp, #56]	; 0x38
 800223e:	e9cd 560c 	strd	r5, r6, [sp, #48]	; 0x30
 8002242:	f002 fecf 	bl	8004fe4 <HAL_RCC_OscConfig>
 8002246:	230f      	movs	r3, #15
 8002248:	2400      	movs	r4, #0
 800224a:	e9cd 3501 	strd	r3, r5, [sp, #4]
 800224e:	4629      	mov	r1, r5
 8002250:	f44f 6380 	mov.w	r3, #1024	; 0x400
 8002254:	a801      	add	r0, sp, #4
 8002256:	e9cd 4303 	strd	r4, r3, [sp, #12]
 800225a:	9405      	str	r4, [sp, #20]
 800225c:	f003 f95e 	bl	800551c <HAL_RCC_ClockConfig>
 8002260:	4b06      	ldr	r3, [pc, #24]	; (800227c <SystemClock_Config+0x7c>)
 8002262:	9310      	str	r3, [sp, #64]	; 0x40
 8002264:	a810      	add	r0, sp, #64	; 0x40
 8002266:	e9cd 441e 	strd	r4, r4, [sp, #120]	; 0x78
 800226a:	9613      	str	r6, [sp, #76]	; 0x4c
 800226c:	9425      	str	r4, [sp, #148]	; 0x94
 800226e:	941d      	str	r4, [sp, #116]	; 0x74
 8002270:	9420      	str	r4, [sp, #128]	; 0x80
 8002272:	f003 fa2b 	bl	80056cc <HAL_RCCEx_PeriphCLKConfig>
 8002276:	b026      	add	sp, #152	; 0x98
 8002278:	bd70      	pop	{r4, r5, r6, pc}
 800227a:	bf00      	nop
 800227c:	00323002 	.word	0x00323002

08002280 <main>:
 8002280:	e92d 4880 	stmdb	sp!, {r7, fp, lr}
 8002284:	4fcc      	ldr	r7, [pc, #816]	; (80025b8 <main+0x338>)
 8002286:	b0a3      	sub	sp, #140	; 0x8c
 8002288:	f000 ffee 	bl	8003268 <HAL_Init>
 800228c:	f7ff ffb8 	bl	8002200 <SystemClock_Config>
 8002290:	2214      	movs	r2, #20
 8002292:	2100      	movs	r1, #0
 8002294:	a817      	add	r0, sp, #92	; 0x5c
 8002296:	f00b f855 	bl	800d344 <memset>
 800229a:	697b      	ldr	r3, [r7, #20]
 800229c:	48c7      	ldr	r0, [pc, #796]	; (80025bc <main+0x33c>)
 800229e:	f443 2300 	orr.w	r3, r3, #524288	; 0x80000
 80022a2:	617b      	str	r3, [r7, #20]
 80022a4:	697b      	ldr	r3, [r7, #20]
 80022a6:	f403 2300 	and.w	r3, r3, #524288	; 0x80000
 80022aa:	9305      	str	r3, [sp, #20]
 80022ac:	9b05      	ldr	r3, [sp, #20]
 80022ae:	697b      	ldr	r3, [r7, #20]
 80022b0:	f443 0380 	orr.w	r3, r3, #4194304	; 0x400000
 80022b4:	617b      	str	r3, [r7, #20]
 80022b6:	697b      	ldr	r3, [r7, #20]
 80022b8:	f403 0380 	and.w	r3, r3, #4194304	; 0x400000
 80022bc:	9306      	str	r3, [sp, #24]
 80022be:	9b06      	ldr	r3, [sp, #24]
 80022c0:	697b      	ldr	r3, [r7, #20]
 80022c2:	f443 3300 	orr.w	r3, r3, #131072	; 0x20000
 80022c6:	617b      	str	r3, [r7, #20]
 80022c8:	697b      	ldr	r3, [r7, #20]
 80022ca:	f403 3300 	and.w	r3, r3, #131072	; 0x20000
 80022ce:	9307      	str	r3, [sp, #28]
 80022d0:	9b07      	ldr	r3, [sp, #28]
 80022d2:	697b      	ldr	r3, [r7, #20]
 80022d4:	f443 2380 	orr.w	r3, r3, #262144	; 0x40000
 80022d8:	617b      	str	r3, [r7, #20]
 80022da:	697b      	ldr	r3, [r7, #20]
 80022dc:	f403 2380 	and.w	r3, r3, #262144	; 0x40000
 80022e0:	9308      	str	r3, [sp, #32]
 80022e2:	2200      	movs	r2, #0
 80022e4:	f44f 7166 	mov.w	r1, #920	; 0x398
 80022e8:	9b08      	ldr	r3, [sp, #32]
 80022ea:	f002 f819 	bl	8004320 <HAL_GPIO_WritePin>
 80022ee:	2200      	movs	r2, #0
 80022f0:	2120      	movs	r1, #32
 80022f2:	f04f 4090 	mov.w	r0, #1207959552	; 0x48000000
 80022f6:	f002 f813 	bl	8004320 <HAL_GPIO_WritePin>
 80022fa:	2200      	movs	r2, #0
 80022fc:	48b0      	ldr	r0, [pc, #704]	; (80025c0 <main+0x340>)
 80022fe:	f44f 41c8 	mov.w	r1, #25600	; 0x6400
 8002302:	2400      	movs	r4, #0
 8002304:	2501      	movs	r5, #1
 8002306:	f002 f80b 	bl	8004320 <HAL_GPIO_WritePin>
 800230a:	f44f 7366 	mov.w	r3, #920	; 0x398
 800230e:	48ab      	ldr	r0, [pc, #684]	; (80025bc <main+0x33c>)
 8002310:	a917      	add	r1, sp, #92	; 0x5c
 8002312:	e9cd 3517 	strd	r3, r5, [sp, #92]	; 0x5c
 8002316:	e9cd 4419 	strd	r4, r4, [sp, #100]	; 0x64
 800231a:	f001 ff29 	bl	8004170 <HAL_GPIO_Init>
 800231e:	2320      	movs	r3, #32
 8002320:	a917      	add	r1, sp, #92	; 0x5c
 8002322:	f04f 4090 	mov.w	r0, #1207959552	; 0x48000000
 8002326:	e9cd 3517 	strd	r3, r5, [sp, #92]	; 0x5c
 800232a:	e9cd 4419 	strd	r4, r4, [sp, #100]	; 0x64
 800232e:	f001 ff1f 	bl	8004170 <HAL_GPIO_Init>
 8002332:	f248 0302 	movw	r3, #32770	; 0x8002
 8002336:	48a2      	ldr	r0, [pc, #648]	; (80025c0 <main+0x340>)
 8002338:	9419      	str	r4, [sp, #100]	; 0x64
 800233a:	a917      	add	r1, sp, #92	; 0x5c
 800233c:	2604      	movs	r6, #4
 800233e:	e9cd 3417 	strd	r3, r4, [sp, #92]	; 0x5c
 8002342:	f001 ff15 	bl	8004170 <HAL_GPIO_Init>
 8002346:	f44f 1388 	mov.w	r3, #1114112	; 0x110000
 800234a:	489d      	ldr	r0, [pc, #628]	; (80025c0 <main+0x340>)
 800234c:	9419      	str	r4, [sp, #100]	; 0x64
 800234e:	a917      	add	r1, sp, #92	; 0x5c
 8002350:	e9cd 6317 	strd	r6, r3, [sp, #92]	; 0x5c
 8002354:	f001 ff0c 	bl	8004170 <HAL_GPIO_Init>
 8002358:	f44f 43c8 	mov.w	r3, #25600	; 0x6400
 800235c:	a917      	add	r1, sp, #92	; 0x5c
 800235e:	4898      	ldr	r0, [pc, #608]	; (80025c0 <main+0x340>)
 8002360:	e9cd 3517 	strd	r3, r5, [sp, #92]	; 0x5c
 8002364:	e9cd 4419 	strd	r4, r4, [sp, #100]	; 0x64
 8002368:	f001 ff02 	bl	8004170 <HAL_GPIO_Init>
 800236c:	697b      	ldr	r3, [r7, #20]
 800236e:	4895      	ldr	r0, [pc, #596]	; (80025c4 <main+0x344>)
 8002370:	4a95      	ldr	r2, [pc, #596]	; (80025c8 <main+0x348>)
 8002372:	432b      	orrs	r3, r5
 8002374:	617b      	str	r3, [r7, #20]
 8002376:	697b      	ldr	r3, [r7, #20]
 8002378:	402b      	ands	r3, r5
 800237a:	9303      	str	r3, [sp, #12]
 800237c:	9b03      	ldr	r3, [sp, #12]
 800237e:	697b      	ldr	r3, [r7, #20]
 8002380:	f043 0302 	orr.w	r3, r3, #2
 8002384:	617b      	str	r3, [r7, #20]
 8002386:	697b      	ldr	r3, [r7, #20]
 8002388:	6184      	str	r4, [r0, #24]
 800238a:	f003 0302 	and.w	r3, r3, #2
 800238e:	9304      	str	r3, [sp, #16]
 8002390:	9b04      	ldr	r3, [sp, #16]
 8002392:	4f8e      	ldr	r7, [pc, #568]	; (80025cc <main+0x34c>)
 8002394:	f44f 4380 	mov.w	r3, #16384	; 0x4000
 8002398:	f04f 0a80 	mov.w	sl, #128	; 0x80
 800239c:	e9c0 2300 	strd	r2, r3, [r0]
 80023a0:	2340      	movs	r3, #64	; 0x40
 80023a2:	f44f 7980 	mov.w	r9, #256	; 0x100
 80023a6:	f44f 6280 	mov.w	r2, #1024	; 0x400
 80023aa:	e9c0 3a02 	strd	r3, sl, [r0, #8]
 80023ae:	f44f 5300 	mov.w	r3, #8192	; 0x2000
 80023b2:	61c3      	str	r3, [r0, #28]
 80023b4:	e9c0 9204 	strd	r9, r2, [r0, #16]
 80023b8:	f001 fe16 	bl	8003fe8 <HAL_DMA_Init>
 80023bc:	4622      	mov	r2, r4
 80023be:	4621      	mov	r1, r4
 80023c0:	200b      	movs	r0, #11
 80023c2:	f001 fcc9 	bl	8003d58 <HAL_NVIC_SetPriority>
 80023c6:	200b      	movs	r0, #11
 80023c8:	f001 fcf8 	bl	8003dbc <HAL_NVIC_EnableIRQ>
 80023cc:	4622      	mov	r2, r4
 80023ce:	4621      	mov	r1, r4
 80023d0:	200d      	movs	r0, #13
 80023d2:	f001 fcc1 	bl	8003d58 <HAL_NVIC_SetPriority>
 80023d6:	200d      	movs	r0, #13
 80023d8:	f001 fcf0 	bl	8003dbc <HAL_NVIC_EnableIRQ>
 80023dc:	4622      	mov	r2, r4
 80023de:	4621      	mov	r1, r4
 80023e0:	200f      	movs	r0, #15
 80023e2:	f001 fcb9 	bl	8003d58 <HAL_NVIC_SetPriority>
 80023e6:	200f      	movs	r0, #15
 80023e8:	f001 fce8 	bl	8003dbc <HAL_NVIC_EnableIRQ>
 80023ec:	4622      	mov	r2, r4
 80023ee:	4621      	mov	r1, r4
 80023f0:	2038      	movs	r0, #56	; 0x38
 80023f2:	f001 fcb1 	bl	8003d58 <HAL_NVIC_SetPriority>
 80023f6:	2038      	movs	r0, #56	; 0x38
 80023f8:	f001 fce0 	bl	8003dbc <HAL_NVIC_EnableIRQ>
 80023fc:	4622      	mov	r2, r4
 80023fe:	4621      	mov	r1, r4
 8002400:	2039      	movs	r0, #57	; 0x39
 8002402:	f001 fca9 	bl	8003d58 <HAL_NVIC_SetPriority>
 8002406:	2039      	movs	r0, #57	; 0x39
 8002408:	f001 fcd8 	bl	8003dbc <HAL_NVIC_EnableIRQ>
 800240c:	4622      	mov	r2, r4
 800240e:	4621      	mov	r1, r4
 8002410:	203c      	movs	r0, #60	; 0x3c
 8002412:	f001 fca1 	bl	8003d58 <HAL_NVIC_SetPriority>
 8002416:	203c      	movs	r0, #60	; 0x3c
 8002418:	f001 fcd0 	bl	8003dbc <HAL_NVIC_EnableIRQ>
 800241c:	486c      	ldr	r0, [pc, #432]	; (80025d0 <main+0x350>)
 800241e:	496d      	ldr	r1, [pc, #436]	; (80025d4 <main+0x354>)
 8002420:	6104      	str	r4, [r0, #16]
 8002422:	230c      	movs	r3, #12
 8002424:	f44f 4216 	mov.w	r2, #38400	; 0x9600
 8002428:	e9c0 3405 	strd	r3, r4, [r0, #20]
 800242c:	e9c0 1200 	strd	r1, r2, [r0]
 8002430:	e9c0 4402 	strd	r4, r4, [r0, #8]
 8002434:	e9c0 4407 	strd	r4, r4, [r0, #28]
 8002438:	6244      	str	r4, [r0, #36]	; 0x24
 800243a:	f005 f8db 	bl	80075f4 <HAL_UART_Init>
 800243e:	f00a fd71 	bl	800cf24 <MX_USB_DEVICE_Init>
 8002442:	2210      	movs	r2, #16
 8002444:	4621      	mov	r1, r4
 8002446:	a810      	add	r0, sp, #64	; 0x40
 8002448:	f00a ff7c 	bl	800d344 <memset>
 800244c:	4621      	mov	r1, r4
 800244e:	221c      	movs	r2, #28
 8002450:	a817      	add	r0, sp, #92	; 0x5c
 8002452:	e9cd 440c 	strd	r4, r4, [sp, #48]	; 0x30
 8002456:	940e      	str	r4, [sp, #56]	; 0x38
 8002458:	f00a ff74 	bl	800d344 <memset>
 800245c:	f04f 4280 	mov.w	r2, #1073741824	; 0x40000000
 8002460:	e9c7 2400 	strd	r2, r4, [r7]
 8002464:	4638      	mov	r0, r7
 8002466:	f640 323f 	movw	r2, #2879	; 0xb3f
 800246a:	e9c7 2403 	strd	r2, r4, [r7, #12]
 800246e:	f44f 5880 	mov.w	r8, #4096	; 0x1000
 8002472:	60bc      	str	r4, [r7, #8]
 8002474:	61bc      	str	r4, [r7, #24]
 8002476:	f004 fd2d 	bl	8006ed4 <HAL_TIM_Base_Init>
 800247a:	a910      	add	r1, sp, #64	; 0x40
 800247c:	4638      	mov	r0, r7
 800247e:	f8cd 8040 	str.w	r8, [sp, #64]	; 0x40
 8002482:	f004 f9e3 	bl	800684c <HAL_TIM_ConfigClockSource>
 8002486:	4638      	mov	r0, r7
 8002488:	f004 fd5e 	bl	8006f48 <HAL_TIM_PWM_Init>
 800248c:	a90c      	add	r1, sp, #48	; 0x30
 800248e:	4638      	mov	r0, r7
 8002490:	940c      	str	r4, [sp, #48]	; 0x30
 8002492:	940e      	str	r4, [sp, #56]	; 0x38
 8002494:	f004 fdfe 	bl	8007094 <HAL_TIMEx_MasterConfigSynchronization>
 8002498:	2360      	movs	r3, #96	; 0x60
 800249a:	4622      	mov	r2, r4
 800249c:	a917      	add	r1, sp, #92	; 0x5c
 800249e:	4638      	mov	r0, r7
 80024a0:	e9cd 3417 	strd	r3, r4, [sp, #92]	; 0x5c
 80024a4:	9419      	str	r4, [sp, #100]	; 0x64
 80024a6:	941b      	str	r4, [sp, #108]	; 0x6c
 80024a8:	f004 f948 	bl	800673c <HAL_TIM_PWM_ConfigChannel>
 80024ac:	6839      	ldr	r1, [r7, #0]
 80024ae:	698a      	ldr	r2, [r1, #24]
 80024b0:	f022 0208 	bic.w	r2, r2, #8
 80024b4:	618a      	str	r2, [r1, #24]
 80024b6:	4638      	mov	r0, r7
 80024b8:	f000 fd04 	bl	8002ec4 <HAL_TIM_MspPostInit>
 80024bc:	2218      	movs	r2, #24
 80024be:	4621      	mov	r1, r4
 80024c0:	a817      	add	r0, sp, #92	; 0x5c
 80024c2:	e9cd 4410 	strd	r4, r4, [sp, #64]	; 0x40
 80024c6:	9412      	str	r4, [sp, #72]	; 0x48
 80024c8:	f00a ff3c 	bl	800d344 <memset>
 80024cc:	4a42      	ldr	r2, [pc, #264]	; (80025d8 <main+0x358>)
 80024ce:	f44f 3b80 	mov.w	fp, #65536	; 0x10000
 80024d2:	2708      	movs	r7, #8
 80024d4:	f04f 41a0 	mov.w	r1, #1342177280	; 0x50000000
 80024d8:	f8a2 9018 	strh.w	r9, [r2, #24]
 80024dc:	4610      	mov	r0, r2
 80024de:	e9c2 1b00 	strd	r1, fp, [r2]
 80024e2:	e9c2 540a 	strd	r5, r4, [r2, #40]	; 0x28
 80024e6:	e9c2 4402 	strd	r4, r4, [r2, #8]
 80024ea:	f882 4020 	strb.w	r4, [r2, #32]
 80024ee:	61d5      	str	r5, [r2, #28]
 80024f0:	f882 5030 	strb.w	r5, [r2, #48]	; 0x30
 80024f4:	6114      	str	r4, [r2, #16]
 80024f6:	6157      	str	r7, [r2, #20]
 80024f8:	6354      	str	r4, [r2, #52]	; 0x34
 80024fa:	f000 ffe7 	bl	80034cc <HAL_ADC_Init>
 80024fe:	4a36      	ldr	r2, [pc, #216]	; (80025d8 <main+0x358>)
 8002500:	9410      	str	r4, [sp, #64]	; 0x40
 8002502:	a910      	add	r1, sp, #64	; 0x40
 8002504:	4610      	mov	r0, r2
 8002506:	f001 fb91 	bl	8003c2c <HAL_ADCEx_MultiModeConfigChannel>
 800250a:	4a33      	ldr	r2, [pc, #204]	; (80025d8 <main+0x358>)
 800250c:	210e      	movs	r1, #14
 800250e:	e9cd 1517 	strd	r1, r5, [sp, #92]	; 0x5c
 8002512:	4610      	mov	r0, r2
 8002514:	a917      	add	r1, sp, #92	; 0x5c
 8002516:	e9cd 4419 	strd	r4, r4, [sp, #100]	; 0x64
 800251a:	e9cd 441b 	strd	r4, r4, [sp, #108]	; 0x6c
 800251e:	f001 f9f9 	bl	8003914 <HAL_ADC_ConfigChannel>
 8002522:	2218      	movs	r2, #24
 8002524:	4621      	mov	r1, r4
 8002526:	a817      	add	r0, sp, #92	; 0x5c
 8002528:	e9cd 4410 	strd	r4, r4, [sp, #64]	; 0x40
 800252c:	9412      	str	r4, [sp, #72]	; 0x48
 800252e:	f00a ff09 	bl	800d344 <memset>
 8002532:	4a2a      	ldr	r2, [pc, #168]	; (80025dc <main+0x35c>)
 8002534:	492a      	ldr	r1, [pc, #168]	; (80025e0 <main+0x360>)
 8002536:	f8a2 9018 	strh.w	r9, [r2, #24]
 800253a:	4610      	mov	r0, r2
 800253c:	e9c2 1b00 	strd	r1, fp, [r2]
 8002540:	e9c2 4604 	strd	r4, r6, [r2, #16]
 8002544:	e9c2 540a 	strd	r5, r4, [r2, #40]	; 0x28
 8002548:	e9c2 4402 	strd	r4, r4, [r2, #8]
 800254c:	f882 4020 	strb.w	r4, [r2, #32]
 8002550:	61d5      	str	r5, [r2, #28]
 8002552:	f882 5030 	strb.w	r5, [r2, #48]	; 0x30
 8002556:	6354      	str	r4, [r2, #52]	; 0x34
 8002558:	f000 ffb8 	bl	80034cc <HAL_ADC_Init>
 800255c:	4a1f      	ldr	r2, [pc, #124]	; (80025dc <main+0x35c>)
 800255e:	9410      	str	r4, [sp, #64]	; 0x40
 8002560:	a910      	add	r1, sp, #64	; 0x40
 8002562:	4610      	mov	r0, r2
 8002564:	f001 fb62 	bl	8003c2c <HAL_ADCEx_MultiModeConfigChannel>
 8002568:	4a1c      	ldr	r2, [pc, #112]	; (80025dc <main+0x35c>)
 800256a:	230c      	movs	r3, #12
 800256c:	a917      	add	r1, sp, #92	; 0x5c
 800256e:	4610      	mov	r0, r2
 8002570:	e9cd 3517 	strd	r3, r5, [sp, #92]	; 0x5c
 8002574:	e9cd 4419 	strd	r4, r4, [sp, #100]	; 0x64
 8002578:	e9cd 441b 	strd	r4, r4, [sp, #108]	; 0x6c
 800257c:	f001 f9ca 	bl	8003914 <HAL_ADC_ConfigChannel>
 8002580:	2218      	movs	r2, #24
 8002582:	4621      	mov	r1, r4
 8002584:	a817      	add	r0, sp, #92	; 0x5c
 8002586:	f00a fedd 	bl	800d344 <memset>
 800258a:	4a16      	ldr	r2, [pc, #88]	; (80025e4 <main+0x364>)
 800258c:	4916      	ldr	r1, [pc, #88]	; (80025e8 <main+0x368>)
 800258e:	f8a2 9018 	strh.w	r9, [r2, #24]
 8002592:	4610      	mov	r0, r2
 8002594:	e9c2 1b00 	strd	r1, fp, [r2]
 8002598:	e9c2 4604 	strd	r4, r6, [r2, #16]
 800259c:	e9c2 540a 	strd	r5, r4, [r2, #40]	; 0x28
 80025a0:	e9c2 4402 	strd	r4, r4, [r2, #8]
 80025a4:	f882 4020 	strb.w	r4, [r2, #32]
 80025a8:	61d5      	str	r5, [r2, #28]
 80025aa:	f882 5030 	strb.w	r5, [r2, #48]	; 0x30
 80025ae:	6354      	str	r4, [r2, #52]	; 0x34
 80025b0:	f000 ff8c 	bl	80034cc <HAL_ADC_Init>
 80025b4:	e01a      	b.n	80025ec <main+0x36c>
 80025b6:	bf00      	nop
 80025b8:	40021000 	.word	0x40021000
 80025bc:	48000800 	.word	0x48000800
 80025c0:	48000400 	.word	0x48000400
 80025c4:	20009338 	.word	0x20009338
 80025c8:	40020044 	.word	0x40020044
 80025cc:	200094e0 	.word	0x200094e0
 80025d0:	200097d0 	.word	0x200097d0
 80025d4:	40004400 	.word	0x40004400
 80025d8:	20009090 	.word	0x20009090
 80025dc:	20009130 	.word	0x20009130
 80025e0:	50000400 	.word	0x50000400
 80025e4:	20009180 	.word	0x20009180
 80025e8:	50000500 	.word	0x50000500
 80025ec:	4ad4      	ldr	r2, [pc, #848]	; (8002940 <main+0x6c0>)
 80025ee:	2103      	movs	r1, #3
 80025f0:	e9cd 1517 	strd	r1, r5, [sp, #92]	; 0x5c
 80025f4:	4610      	mov	r0, r2
 80025f6:	a917      	add	r1, sp, #92	; 0x5c
 80025f8:	e9cd 4419 	strd	r4, r4, [sp, #100]	; 0x64
 80025fc:	e9cd 441b 	strd	r4, r4, [sp, #108]	; 0x6c
 8002600:	f001 f988 	bl	8003914 <HAL_ADC_ConfigChannel>
 8002604:	2218      	movs	r2, #24
 8002606:	4621      	mov	r1, r4
 8002608:	a817      	add	r0, sp, #92	; 0x5c
 800260a:	f00a fe9b 	bl	800d344 <memset>
 800260e:	4acd      	ldr	r2, [pc, #820]	; (8002944 <main+0x6c4>)
 8002610:	49cd      	ldr	r1, [pc, #820]	; (8002948 <main+0x6c8>)
 8002612:	f8a2 9018 	strh.w	r9, [r2, #24]
 8002616:	4610      	mov	r0, r2
 8002618:	e9c2 1b00 	strd	r1, fp, [r2]
 800261c:	e9c2 4604 	strd	r4, r6, [r2, #16]
 8002620:	e9c2 540a 	strd	r5, r4, [r2, #40]	; 0x28
 8002624:	e9c2 4402 	strd	r4, r4, [r2, #8]
 8002628:	f882 4020 	strb.w	r4, [r2, #32]
 800262c:	61d5      	str	r5, [r2, #28]
 800262e:	f882 5030 	strb.w	r5, [r2, #48]	; 0x30
 8002632:	6354      	str	r4, [r2, #52]	; 0x34
 8002634:	f000 ff4a 	bl	80034cc <HAL_ADC_Init>
 8002638:	4ac2      	ldr	r2, [pc, #776]	; (8002944 <main+0x6c4>)
 800263a:	f8df 9334 	ldr.w	r9, [pc, #820]	; 8002970 <main+0x6f0>
 800263e:	210b      	movs	r1, #11
 8002640:	e9cd 1517 	strd	r1, r5, [sp, #92]	; 0x5c
 8002644:	4610      	mov	r0, r2
 8002646:	a917      	add	r1, sp, #92	; 0x5c
 8002648:	e9cd 4419 	strd	r4, r4, [sp, #100]	; 0x64
 800264c:	e9cd 441b 	strd	r4, r4, [sp, #108]	; 0x6c
 8002650:	f001 f960 	bl	8003914 <HAL_ADC_ConfigChannel>
 8002654:	2210      	movs	r2, #16
 8002656:	4621      	mov	r1, r4
 8002658:	a80c      	add	r0, sp, #48	; 0x30
 800265a:	f00a fe73 	bl	800d344 <memset>
 800265e:	221c      	movs	r2, #28
 8002660:	4621      	mov	r1, r4
 8002662:	a810      	add	r0, sp, #64	; 0x40
 8002664:	e9cd 4409 	strd	r4, r4, [sp, #36]	; 0x24
 8002668:	940b      	str	r4, [sp, #44]	; 0x2c
 800266a:	f00a fe6b 	bl	800d344 <memset>
 800266e:	4621      	mov	r1, r4
 8002670:	222c      	movs	r2, #44	; 0x2c
 8002672:	a817      	add	r0, sp, #92	; 0x5c
 8002674:	f00a fe66 	bl	800d344 <memset>
 8002678:	48b4      	ldr	r0, [pc, #720]	; (800294c <main+0x6cc>)
 800267a:	f8c9 4008 	str.w	r4, [r9, #8]
 800267e:	f240 22cf 	movw	r2, #719	; 0x2cf
 8002682:	e9c9 0200 	strd	r0, r2, [r9]
 8002686:	f240 72cf 	movw	r2, #1999	; 0x7cf
 800268a:	4648      	mov	r0, r9
 800268c:	e9c9 2403 	strd	r2, r4, [r9, #12]
 8002690:	e9c9 4405 	strd	r4, r4, [r9, #20]
 8002694:	f004 fc1e 	bl	8006ed4 <HAL_TIM_Base_Init>
 8002698:	a90c      	add	r1, sp, #48	; 0x30
 800269a:	4648      	mov	r0, r9
 800269c:	f8cd 8030 	str.w	r8, [sp, #48]	; 0x30
 80026a0:	f004 f8d4 	bl	800684c <HAL_TIM_ConfigClockSource>
 80026a4:	4648      	mov	r0, r9
 80026a6:	f004 fc4f 	bl	8006f48 <HAL_TIM_PWM_Init>
 80026aa:	a909      	add	r1, sp, #36	; 0x24
 80026ac:	4648      	mov	r0, r9
 80026ae:	e9cd 4409 	strd	r4, r4, [sp, #36]	; 0x24
 80026b2:	940b      	str	r4, [sp, #44]	; 0x2c
 80026b4:	f004 fcee 	bl	8007094 <HAL_TIMEx_MasterConfigSynchronization>
 80026b8:	2360      	movs	r3, #96	; 0x60
 80026ba:	f240 32e7 	movw	r2, #999	; 0x3e7
 80026be:	e9cd 3210 	strd	r3, r2, [sp, #64]	; 0x40
 80026c2:	a910      	add	r1, sp, #64	; 0x40
 80026c4:	4622      	mov	r2, r4
 80026c6:	4648      	mov	r0, r9
 80026c8:	e9cd 6414 	strd	r6, r4, [sp, #80]	; 0x50
 80026cc:	e9cd 4412 	strd	r4, r4, [sp, #72]	; 0x48
 80026d0:	9416      	str	r4, [sp, #88]	; 0x58
 80026d2:	f004 f833 	bl	800673c <HAL_TIM_PWM_ConfigChannel>
 80026d6:	f8d9 1000 	ldr.w	r1, [r9]
 80026da:	698a      	ldr	r2, [r1, #24]
 80026dc:	f022 0208 	bic.w	r2, r2, #8
 80026e0:	618a      	str	r2, [r1, #24]
 80026e2:	f44f 5300 	mov.w	r3, #8192	; 0x2000
 80026e6:	22ff      	movs	r2, #255	; 0xff
 80026e8:	f04f 7b00 	mov.w	fp, #33554432	; 0x2000000
 80026ec:	a917      	add	r1, sp, #92	; 0x5c
 80026ee:	4648      	mov	r0, r9
 80026f0:	e9cd 341c 	strd	r3, r4, [sp, #112]	; 0x70
 80026f4:	e9cd 281a 	strd	r2, r8, [sp, #104]	; 0x68
 80026f8:	e9cd 4417 	strd	r4, r4, [sp, #92]	; 0x5c
 80026fc:	e9cd b41f 	strd	fp, r4, [sp, #124]	; 0x7c
 8002700:	9419      	str	r4, [sp, #100]	; 0x64
 8002702:	941e      	str	r4, [sp, #120]	; 0x78
 8002704:	9421      	str	r4, [sp, #132]	; 0x84
 8002706:	f004 fd0f 	bl	8007128 <HAL_TIMEx_ConfigBreakDeadTime>
 800270a:	f8d9 1000 	ldr.w	r1, [r9]
 800270e:	68ca      	ldr	r2, [r1, #12]
 8002710:	4648      	mov	r0, r9
 8002712:	432a      	orrs	r2, r5
 8002714:	f8df 925c 	ldr.w	r9, [pc, #604]	; 8002974 <main+0x6f4>
 8002718:	60ca      	str	r2, [r1, #12]
 800271a:	f000 fbd3 	bl	8002ec4 <HAL_TIM_MspPostInit>
 800271e:	4a8c      	ldr	r2, [pc, #560]	; (8002950 <main+0x6d0>)
 8002720:	f8c9 2000 	str.w	r2, [r9]
 8002724:	4648      	mov	r0, r9
 8002726:	e9cd 4417 	strd	r4, r4, [sp, #92]	; 0x5c
 800272a:	9419      	str	r4, [sp, #100]	; 0x64
 800272c:	f001 fb68 	bl	8003e00 <HAL_DAC_Init>
 8002730:	2224      	movs	r2, #36	; 0x24
 8002732:	e9cd 2417 	strd	r2, r4, [sp, #92]	; 0x5c
 8002736:	a917      	add	r1, sp, #92	; 0x5c
 8002738:	4622      	mov	r2, r4
 800273a:	4648      	mov	r0, r9
 800273c:	f001 fbf6 	bl	8003f2c <HAL_DAC_ConfigChannel>
 8002740:	4621      	mov	r1, r4
 8002742:	2210      	movs	r2, #16
 8002744:	a817      	add	r0, sp, #92	; 0x5c
 8002746:	f00a fdfd 	bl	800d344 <memset>
 800274a:	f8df 922c 	ldr.w	r9, [pc, #556]	; 8002978 <main+0x6f8>
 800274e:	f8df c22c 	ldr.w	ip, [pc, #556]	; 800297c <main+0x6fc>
 8002752:	f8c9 4008 	str.w	r4, [r9, #8]
 8002756:	2248      	movs	r2, #72	; 0x48
 8002758:	e9c9 c200 	strd	ip, r2, [r9]
 800275c:	4648      	mov	r0, r9
 800275e:	220a      	movs	r2, #10
 8002760:	e9c9 2403 	strd	r2, r4, [r9, #12]
 8002764:	f8c9 a018 	str.w	sl, [r9, #24]
 8002768:	e9cd 4410 	strd	r4, r4, [sp, #64]	; 0x40
 800276c:	9412      	str	r4, [sp, #72]	; 0x48
 800276e:	f004 fbb1 	bl	8006ed4 <HAL_TIM_Base_Init>
 8002772:	a917      	add	r1, sp, #92	; 0x5c
 8002774:	4648      	mov	r0, r9
 8002776:	f8cd 805c 	str.w	r8, [sp, #92]	; 0x5c
 800277a:	f004 f867 	bl	800684c <HAL_TIM_ConfigClockSource>
 800277e:	2320      	movs	r3, #32
 8002780:	a910      	add	r1, sp, #64	; 0x40
 8002782:	4648      	mov	r0, r9
 8002784:	9310      	str	r3, [sp, #64]	; 0x40
 8002786:	9412      	str	r4, [sp, #72]	; 0x48
 8002788:	f004 fc84 	bl	8007094 <HAL_TIMEx_MasterConfigSynchronization>
 800278c:	f8df e1f0 	ldr.w	lr, [pc, #496]	; 8002980 <main+0x700>
 8002790:	4870      	ldr	r0, [pc, #448]	; (8002954 <main+0x6d4>)
 8002792:	f8df 91f0 	ldr.w	r9, [pc, #496]	; 8002984 <main+0x704>
 8002796:	6084      	str	r4, [r0, #8]
 8002798:	f44f 7282 	mov.w	r2, #260	; 0x104
 800279c:	e9c0 e200 	strd	lr, r2, [r0]
 80027a0:	f44f 62e0 	mov.w	r2, #1792	; 0x700
 80027a4:	e9c0 2403 	strd	r2, r4, [r0, #12]
 80027a8:	f44f 7200 	mov.w	r2, #512	; 0x200
 80027ac:	e9c0 2406 	strd	r2, r4, [r0, #24]
 80027b0:	2207      	movs	r2, #7
 80027b2:	e9c0 240b 	strd	r2, r4, [r0, #44]	; 0x2c
 80027b6:	e9c0 4408 	strd	r4, r4, [r0, #32]
 80027ba:	6144      	str	r4, [r0, #20]
 80027bc:	6284      	str	r4, [r0, #40]	; 0x28
 80027be:	6347      	str	r7, [r0, #52]	; 0x34
 80027c0:	f003 f99d 	bl	8005afe <HAL_SPI_Init>
 80027c4:	f005 fc82 	bl	80080cc <MX_FATFS_Init>
 80027c8:	4a63      	ldr	r2, [pc, #396]	; (8002958 <main+0x6d8>)
 80027ca:	f8c9 4008 	str.w	r4, [r9, #8]
 80027ce:	e9c9 2400 	strd	r2, r4, [r9]
 80027d2:	4648      	mov	r0, r9
 80027d4:	f44f 7296 	mov.w	r2, #300	; 0x12c
 80027d8:	f8c9 200c 	str.w	r2, [r9, #12]
 80027dc:	f8c9 4018 	str.w	r4, [r9, #24]
 80027e0:	e9cd 4417 	strd	r4, r4, [sp, #92]	; 0x5c
 80027e4:	9419      	str	r4, [sp, #100]	; 0x64
 80027e6:	f004 fb75 	bl	8006ed4 <HAL_TIM_Base_Init>
 80027ea:	a917      	add	r1, sp, #92	; 0x5c
 80027ec:	4648      	mov	r0, r9
 80027ee:	9417      	str	r4, [sp, #92]	; 0x5c
 80027f0:	9419      	str	r4, [sp, #100]	; 0x64
 80027f2:	f004 fc4f 	bl	8007094 <HAL_TIMEx_MasterConfigSynchronization>
 80027f6:	2210      	movs	r2, #16
 80027f8:	4621      	mov	r1, r4
 80027fa:	a80c      	add	r0, sp, #48	; 0x30
 80027fc:	f00a fda2 	bl	800d344 <memset>
 8002800:	221c      	movs	r2, #28
 8002802:	4621      	mov	r1, r4
 8002804:	a810      	add	r0, sp, #64	; 0x40
 8002806:	e9cd 4409 	strd	r4, r4, [sp, #36]	; 0x24
 800280a:	940b      	str	r4, [sp, #44]	; 0x2c
 800280c:	f00a fd9a 	bl	800d344 <memset>
 8002810:	4621      	mov	r1, r4
 8002812:	222c      	movs	r2, #44	; 0x2c
 8002814:	a817      	add	r0, sp, #92	; 0x5c
 8002816:	f8df 9170 	ldr.w	r9, [pc, #368]	; 8002988 <main+0x708>
 800281a:	f00a fd93 	bl	800d344 <memset>
 800281e:	4a4f      	ldr	r2, [pc, #316]	; (800295c <main+0x6dc>)
 8002820:	f8c9 4018 	str.w	r4, [r9, #24]
 8002824:	2320      	movs	r3, #32
 8002826:	e9c9 2500 	strd	r2, r5, [r9]
 800282a:	4648      	mov	r0, r9
 800282c:	f44f 7248 	mov.w	r2, #800	; 0x320
 8002830:	e9c9 3202 	strd	r3, r2, [r9, #8]
 8002834:	e9c9 4404 	strd	r4, r4, [r9, #16]
 8002838:	f004 fb4c 	bl	8006ed4 <HAL_TIM_Base_Init>
 800283c:	a90c      	add	r1, sp, #48	; 0x30
 800283e:	4648      	mov	r0, r9
 8002840:	f8cd 8030 	str.w	r8, [sp, #48]	; 0x30
 8002844:	f004 f802 	bl	800684c <HAL_TIM_ConfigClockSource>
 8002848:	4648      	mov	r0, r9
 800284a:	f004 fb7d 	bl	8006f48 <HAL_TIM_PWM_Init>
 800284e:	2340      	movs	r3, #64	; 0x40
 8002850:	f44f 0280 	mov.w	r2, #4194304	; 0x400000
 8002854:	a909      	add	r1, sp, #36	; 0x24
 8002856:	4648      	mov	r0, r9
 8002858:	e9cd 3209 	strd	r3, r2, [sp, #36]	; 0x24
 800285c:	940b      	str	r4, [sp, #44]	; 0x2c
 800285e:	f004 fc19 	bl	8007094 <HAL_TIMEx_MasterConfigSynchronization>
 8002862:	4a3f      	ldr	r2, [pc, #252]	; (8002960 <main+0x6e0>)
 8002864:	9416      	str	r4, [sp, #88]	; 0x58
 8002866:	f44f 78fa 	mov.w	r8, #500	; 0x1f4
 800286a:	e9cd 2810 	strd	r2, r8, [sp, #64]	; 0x40
 800286e:	a910      	add	r1, sp, #64	; 0x40
 8002870:	4622      	mov	r2, r4
 8002872:	4648      	mov	r0, r9
 8002874:	e9cd 6414 	strd	r6, r4, [sp, #80]	; 0x50
 8002878:	e9cd 4412 	strd	r4, r4, [sp, #72]	; 0x48
 800287c:	f003 ff5e 	bl	800673c <HAL_TIM_PWM_ConfigChannel>
 8002880:	f8d9 1000 	ldr.w	r1, [r9]
 8002884:	698a      	ldr	r2, [r1, #24]
 8002886:	f022 0208 	bic.w	r2, r2, #8
 800288a:	618a      	str	r2, [r1, #24]
 800288c:	4648      	mov	r0, r9
 800288e:	4632      	mov	r2, r6
 8002890:	a910      	add	r1, sp, #64	; 0x40
 8002892:	9411      	str	r4, [sp, #68]	; 0x44
 8002894:	f003 ff52 	bl	800673c <HAL_TIM_PWM_ConfigChannel>
 8002898:	f8d9 1000 	ldr.w	r1, [r9]
 800289c:	4e31      	ldr	r6, [pc, #196]	; (8002964 <main+0x6e4>)
 800289e:	698a      	ldr	r2, [r1, #24]
 80028a0:	f422 6200 	bic.w	r2, r2, #2048	; 0x800
 80028a4:	618a      	str	r2, [r1, #24]
 80028a6:	4648      	mov	r0, r9
 80028a8:	463a      	mov	r2, r7
 80028aa:	a910      	add	r1, sp, #64	; 0x40
 80028ac:	f8cd 8044 	str.w	r8, [sp, #68]	; 0x44
 80028b0:	9414      	str	r4, [sp, #80]	; 0x50
 80028b2:	f003 ff43 	bl	800673c <HAL_TIM_PWM_ConfigChannel>
 80028b6:	f8d9 1000 	ldr.w	r1, [r9]
 80028ba:	69ca      	ldr	r2, [r1, #28]
 80028bc:	f022 0208 	bic.w	r2, r2, #8
 80028c0:	61ca      	str	r2, [r1, #28]
 80028c2:	4648      	mov	r0, r9
 80028c4:	220c      	movs	r2, #12
 80028c6:	a910      	add	r1, sp, #64	; 0x40
 80028c8:	9411      	str	r4, [sp, #68]	; 0x44
 80028ca:	f003 ff37 	bl	800673c <HAL_TIM_PWM_ConfigChannel>
 80028ce:	f8d9 1000 	ldr.w	r1, [r9]
 80028d2:	69ca      	ldr	r2, [r1, #28]
 80028d4:	f422 6200 	bic.w	r2, r2, #2048	; 0x800
 80028d8:	61ca      	str	r2, [r1, #28]
 80028da:	f44f 5300 	mov.w	r3, #8192	; 0x2000
 80028de:	2264      	movs	r2, #100	; 0x64
 80028e0:	a917      	add	r1, sp, #92	; 0x5c
 80028e2:	4648      	mov	r0, r9
 80028e4:	e9cd 341c 	strd	r3, r4, [sp, #112]	; 0x70
 80028e8:	e9cd 241a 	strd	r2, r4, [sp, #104]	; 0x68
 80028ec:	e9cd 4417 	strd	r4, r4, [sp, #92]	; 0x5c
 80028f0:	e9cd 4b1e 	strd	r4, fp, [sp, #120]	; 0x78
 80028f4:	e9cd 4420 	strd	r4, r4, [sp, #128]	; 0x80
 80028f8:	9419      	str	r4, [sp, #100]	; 0x64
 80028fa:	f004 fc15 	bl	8007128 <HAL_TIMEx_ConfigBreakDeadTime>
 80028fe:	4648      	mov	r0, r9
 8002900:	f000 fae0 	bl	8002ec4 <HAL_TIM_MspPostInit>
 8002904:	4818      	ldr	r0, [pc, #96]	; (8002968 <main+0x6e8>)
 8002906:	462a      	mov	r2, r5
 8002908:	4639      	mov	r1, r7
 800290a:	f001 fd09 	bl	8004320 <HAL_GPIO_WritePin>
 800290e:	4816      	ldr	r0, [pc, #88]	; (8002968 <main+0x6e8>)
 8002910:	462a      	mov	r2, r5
 8002912:	4651      	mov	r1, sl
 8002914:	f001 fd04 	bl	8004320 <HAL_GPIO_WritePin>
 8002918:	4814      	ldr	r0, [pc, #80]	; (800296c <main+0x6ec>)
 800291a:	462a      	mov	r2, r5
 800291c:	f44f 5100 	mov.w	r1, #8192	; 0x2000
 8002920:	f001 fcfe 	bl	8004320 <HAL_GPIO_WritePin>
 8002924:	f006 f806 	bl	8008934 <ILI9341_Init>
 8002928:	480f      	ldr	r0, [pc, #60]	; (8002968 <main+0x6e8>)
 800292a:	6034      	str	r4, [r6, #0]
 800292c:	462a      	mov	r2, r5
 800292e:	4651      	mov	r1, sl
 8002930:	f001 fcf6 	bl	8004320 <HAL_GPIO_WritePin>
 8002934:	480c      	ldr	r0, [pc, #48]	; (8002968 <main+0x6e8>)
 8002936:	4622      	mov	r2, r4
 8002938:	4639      	mov	r1, r7
 800293a:	f001 fcf1 	bl	8004320 <HAL_GPIO_WritePin>
 800293e:	e025      	b.n	800298c <main+0x70c>
 8002940:	20009180 	.word	0x20009180
 8002944:	200090e0 	.word	0x200090e0
 8002948:	50000100 	.word	0x50000100
 800294c:	40012c00 	.word	0x40012c00
 8002950:	40007400 	.word	0x40007400
 8002954:	200093c0 	.word	0x200093c0
 8002958:	40001400 	.word	0x40001400
 800295c:	40013400 	.word	0x40013400
 8002960:	00010060 	.word	0x00010060
 8002964:	200088e0 	.word	0x200088e0
 8002968:	48000800 	.word	0x48000800
 800296c:	48000400 	.word	0x48000400
 8002970:	20009424 	.word	0x20009424
 8002974:	200091d0 	.word	0x200091d0
 8002978:	2000959c 	.word	0x2000959c
 800297c:	40000400 	.word	0x40000400
 8002980:	40003c00 	.word	0x40003c00
 8002984:	20009658 	.word	0x20009658
 8002988:	20009714 	.word	0x20009714
 800298c:	492b      	ldr	r1, [pc, #172]	; (8002a3c <main+0x7bc>)
 800298e:	482c      	ldr	r0, [pc, #176]	; (8002a40 <main+0x7c0>)
 8002990:	462a      	mov	r2, r5
 8002992:	f008 fa3b 	bl	800ae0c <f_mount>
 8002996:	b100      	cbz	r0, 800299a <main+0x71a>
 8002998:	6035      	str	r5, [r6, #0]
 800299a:	f005 ffcb 	bl	8008934 <ILI9341_Init>
 800299e:	4829      	ldr	r0, [pc, #164]	; (8002a44 <main+0x7c4>)
 80029a0:	4c29      	ldr	r4, [pc, #164]	; (8002a48 <main+0x7c8>)
 80029a2:	f003 fd1b 	bl	80063dc <HAL_TIM_Base_Start_IT>
 80029a6:	2100      	movs	r1, #0
 80029a8:	4826      	ldr	r0, [pc, #152]	; (8002a44 <main+0x7c4>)
 80029aa:	f004 f935 	bl	8006c18 <HAL_TIM_PWM_Start_IT>
 80029ae:	2100      	movs	r1, #0
 80029b0:	4824      	ldr	r0, [pc, #144]	; (8002a44 <main+0x7c4>)
 80029b2:	f004 fb6d 	bl	8007090 <HAL_TIMEx_PWMN_Start>
 80029b6:	4825      	ldr	r0, [pc, #148]	; (8002a4c <main+0x7cc>)
 80029b8:	f003 fcda 	bl	8006370 <HAL_TIM_Base_Start>
 80029bc:	4a24      	ldr	r2, [pc, #144]	; (8002a50 <main+0x7d0>)
 80029be:	4823      	ldr	r0, [pc, #140]	; (8002a4c <main+0x7cc>)
 80029c0:	23fa      	movs	r3, #250	; 0xfa
 80029c2:	2100      	movs	r1, #0
 80029c4:	f004 fa3c 	bl	8006e40 <HAL_TIM_PWM_Start_DMA>
 80029c8:	4822      	ldr	r0, [pc, #136]	; (8002a54 <main+0x7d4>)
 80029ca:	f003 fcd1 	bl	8006370 <HAL_TIM_Base_Start>
 80029ce:	4822      	ldr	r0, [pc, #136]	; (8002a58 <main+0x7d8>)
 80029d0:	f003 fcce 	bl	8006370 <HAL_TIM_Base_Start>
 80029d4:	2100      	movs	r1, #0
 80029d6:	4820      	ldr	r0, [pc, #128]	; (8002a58 <main+0x7d8>)
 80029d8:	f004 f874 	bl	8006ac4 <HAL_TIM_PWM_Start>
 80029dc:	2100      	movs	r1, #0
 80029de:	481e      	ldr	r0, [pc, #120]	; (8002a58 <main+0x7d8>)
 80029e0:	f004 fb56 	bl	8007090 <HAL_TIMEx_PWMN_Start>
 80029e4:	2104      	movs	r1, #4
 80029e6:	481c      	ldr	r0, [pc, #112]	; (8002a58 <main+0x7d8>)
 80029e8:	f004 f86c 	bl	8006ac4 <HAL_TIM_PWM_Start>
 80029ec:	2104      	movs	r1, #4
 80029ee:	481a      	ldr	r0, [pc, #104]	; (8002a58 <main+0x7d8>)
 80029f0:	f004 fb4e 	bl	8007090 <HAL_TIMEx_PWMN_Start>
 80029f4:	2108      	movs	r1, #8
 80029f6:	4818      	ldr	r0, [pc, #96]	; (8002a58 <main+0x7d8>)
 80029f8:	f004 f864 	bl	8006ac4 <HAL_TIM_PWM_Start>
 80029fc:	2108      	movs	r1, #8
 80029fe:	4816      	ldr	r0, [pc, #88]	; (8002a58 <main+0x7d8>)
 8002a00:	f004 fb46 	bl	8007090 <HAL_TIMEx_PWMN_Start>
 8002a04:	f7ff fbbc 	bl	8002180 <GenOnda>
 8002a08:	2100      	movs	r1, #0
 8002a0a:	4a14      	ldr	r2, [pc, #80]	; (8002a5c <main+0x7dc>)
 8002a0c:	9100      	str	r1, [sp, #0]
 8002a0e:	2364      	movs	r3, #100	; 0x64
 8002a10:	4813      	ldr	r0, [pc, #76]	; (8002a60 <main+0x7e0>)
 8002a12:	f001 fa23 	bl	8003e5c <HAL_DAC_Start_DMA>
 8002a16:	f7fe f8d9 	bl	8000bcc <AppInit>
 8002a1a:	2102      	movs	r1, #2
 8002a1c:	4620      	mov	r0, r4
 8002a1e:	f001 fc79 	bl	8004314 <HAL_GPIO_ReadPin>
 8002a22:	b938      	cbnz	r0, 8002a34 <main+0x7b4>
 8002a24:	f7ff f8f8 	bl	8001c18 <AtencionTecla>
 8002a28:	2120      	movs	r1, #32
 8002a2a:	f04f 4090 	mov.w	r0, #1207959552	; 0x48000000
 8002a2e:	f001 fc7c 	bl	800432a <HAL_GPIO_TogglePin>
 8002a32:	e7f2      	b.n	8002a1a <main+0x79a>
 8002a34:	f7fe f8d4 	bl	8000be0 <AppLoop>
 8002a38:	e7f6      	b.n	8002a28 <main+0x7a8>
 8002a3a:	bf00      	nop
 8002a3c:	08010e84 	.word	0x08010e84
 8002a40:	20008e60 	.word	0x20008e60
 8002a44:	20009424 	.word	0x20009424
 8002a48:	48000400 	.word	0x48000400
 8002a4c:	200094e0 	.word	0x200094e0
 8002a50:	200088e4 	.word	0x200088e4
 8002a54:	2000959c 	.word	0x2000959c
 8002a58:	20009714 	.word	0x20009714
 8002a5c:	20008ccc 	.word	0x20008ccc
 8002a60:	200091d0 	.word	0x200091d0

08002a64 <HAL_TIM_PeriodElapsedCallback>:
 8002a64:	6802      	ldr	r2, [r0, #0]
 8002a66:	4b08      	ldr	r3, [pc, #32]	; (8002a88 <HAL_TIM_PeriodElapsedCallback+0x24>)
 8002a68:	429a      	cmp	r2, r3
 8002a6a:	d10b      	bne.n	8002a84 <HAL_TIM_PeriodElapsedCallback+0x20>
 8002a6c:	f503 4354 	add.w	r3, r3, #54272	; 0xd400
 8002a70:	6d9a      	ldr	r2, [r3, #88]	; 0x58
 8002a72:	f022 0201 	bic.w	r2, r2, #1
 8002a76:	659a      	str	r2, [r3, #88]	; 0x58
 8002a78:	22f9      	movs	r2, #249	; 0xf9
 8002a7a:	65da      	str	r2, [r3, #92]	; 0x5c
 8002a7c:	6d9a      	ldr	r2, [r3, #88]	; 0x58
 8002a7e:	f042 0201 	orr.w	r2, r2, #1
 8002a82:	659a      	str	r2, [r3, #88]	; 0x58
 8002a84:	4770      	bx	lr
 8002a86:	bf00      	nop
 8002a88:	40012c00 	.word	0x40012c00

08002a8c <Error_Handler>:
 8002a8c:	4770      	bx	lr
	...

08002a90 <HAL_MspInit>:
 8002a90:	4b0b      	ldr	r3, [pc, #44]	; (8002ac0 <HAL_MspInit+0x30>)
 8002a92:	699a      	ldr	r2, [r3, #24]
 8002a94:	f042 0201 	orr.w	r2, r2, #1
 8002a98:	619a      	str	r2, [r3, #24]
 8002a9a:	699a      	ldr	r2, [r3, #24]
 8002a9c:	b082      	sub	sp, #8
 8002a9e:	f002 0201 	and.w	r2, r2, #1
 8002aa2:	9200      	str	r2, [sp, #0]
 8002aa4:	9a00      	ldr	r2, [sp, #0]
 8002aa6:	69da      	ldr	r2, [r3, #28]
 8002aa8:	f042 5280 	orr.w	r2, r2, #268435456	; 0x10000000
 8002aac:	61da      	str	r2, [r3, #28]
 8002aae:	69db      	ldr	r3, [r3, #28]
 8002ab0:	f003 5380 	and.w	r3, r3, #268435456	; 0x10000000
 8002ab4:	9301      	str	r3, [sp, #4]
 8002ab6:	9b01      	ldr	r3, [sp, #4]
 8002ab8:	2007      	movs	r0, #7
 8002aba:	b002      	add	sp, #8
 8002abc:	f001 b93a 	b.w	8003d34 <HAL_NVIC_SetPriorityGrouping>
 8002ac0:	40021000 	.word	0x40021000

08002ac4 <HAL_ADC_MspInit>:
 8002ac4:	b570      	push	{r4, r5, r6, lr}
 8002ac6:	4605      	mov	r5, r0
 8002ac8:	b08e      	sub	sp, #56	; 0x38
 8002aca:	2214      	movs	r2, #20
 8002acc:	2100      	movs	r1, #0
 8002ace:	a809      	add	r0, sp, #36	; 0x24
 8002ad0:	f00a fc38 	bl	800d344 <memset>
 8002ad4:	682b      	ldr	r3, [r5, #0]
 8002ad6:	f1b3 4fa0 	cmp.w	r3, #1342177280	; 0x50000000
 8002ada:	d13d      	bne.n	8002b58 <HAL_ADC_MspInit+0x94>
 8002adc:	4a5f      	ldr	r2, [pc, #380]	; (8002c5c <HAL_ADC_MspInit+0x198>)
 8002ade:	6813      	ldr	r3, [r2, #0]
 8002ae0:	3301      	adds	r3, #1
 8002ae2:	2b01      	cmp	r3, #1
 8002ae4:	6013      	str	r3, [r2, #0]
 8002ae6:	4b5e      	ldr	r3, [pc, #376]	; (8002c60 <HAL_ADC_MspInit+0x19c>)
 8002ae8:	d108      	bne.n	8002afc <HAL_ADC_MspInit+0x38>
 8002aea:	695a      	ldr	r2, [r3, #20]
 8002aec:	f042 5280 	orr.w	r2, r2, #268435456	; 0x10000000
 8002af0:	615a      	str	r2, [r3, #20]
 8002af2:	695a      	ldr	r2, [r3, #20]
 8002af4:	f002 5280 	and.w	r2, r2, #268435456	; 0x10000000
 8002af8:	9201      	str	r2, [sp, #4]
 8002afa:	9a01      	ldr	r2, [sp, #4]
 8002afc:	695a      	ldr	r2, [r3, #20]
 8002afe:	4859      	ldr	r0, [pc, #356]	; (8002c64 <HAL_ADC_MspInit+0x1a0>)
 8002b00:	4c59      	ldr	r4, [pc, #356]	; (8002c68 <HAL_ADC_MspInit+0x1a4>)
 8002b02:	f442 2280 	orr.w	r2, r2, #262144	; 0x40000
 8002b06:	615a      	str	r2, [r3, #20]
 8002b08:	695b      	ldr	r3, [r3, #20]
 8002b0a:	f403 2380 	and.w	r3, r3, #262144	; 0x40000
 8002b0e:	9302      	str	r3, [sp, #8]
 8002b10:	9b02      	ldr	r3, [sp, #8]
 8002b12:	f44f 6600 	mov.w	r6, #2048	; 0x800
 8002b16:	2303      	movs	r3, #3
 8002b18:	a909      	add	r1, sp, #36	; 0x24
 8002b1a:	e9cd 6309 	strd	r6, r3, [sp, #36]	; 0x24
 8002b1e:	f001 fb27 	bl	8004170 <HAL_GPIO_Init>
 8002b22:	f8df c174 	ldr.w	ip, [pc, #372]	; 8002c98 <HAL_ADC_MspInit+0x1d4>
 8002b26:	6166      	str	r6, [r4, #20]
 8002b28:	2300      	movs	r3, #0
 8002b2a:	f04f 0e80 	mov.w	lr, #128	; 0x80
 8002b2e:	f44f 7200 	mov.w	r2, #512	; 0x200
 8002b32:	e9c4 c300 	strd	ip, r3, [r4]
 8002b36:	e9c4 e203 	strd	lr, r2, [r4, #12]
 8002b3a:	60a3      	str	r3, [r4, #8]
 8002b3c:	61a3      	str	r3, [r4, #24]
 8002b3e:	f44f 5340 	mov.w	r3, #12288	; 0x3000
 8002b42:	61e3      	str	r3, [r4, #28]
 8002b44:	4620      	mov	r0, r4
 8002b46:	f001 fa4f 	bl	8003fe8 <HAL_DMA_Init>
 8002b4a:	b108      	cbz	r0, 8002b50 <HAL_ADC_MspInit+0x8c>
 8002b4c:	f7ff ff9e 	bl	8002a8c <Error_Handler>
 8002b50:	63ac      	str	r4, [r5, #56]	; 0x38
 8002b52:	6265      	str	r5, [r4, #36]	; 0x24
 8002b54:	b00e      	add	sp, #56	; 0x38
 8002b56:	bd70      	pop	{r4, r5, r6, pc}
 8002b58:	4a44      	ldr	r2, [pc, #272]	; (8002c6c <HAL_ADC_MspInit+0x1a8>)
 8002b5a:	4293      	cmp	r3, r2
 8002b5c:	d12f      	bne.n	8002bbe <HAL_ADC_MspInit+0xfa>
 8002b5e:	4a3f      	ldr	r2, [pc, #252]	; (8002c5c <HAL_ADC_MspInit+0x198>)
 8002b60:	6813      	ldr	r3, [r2, #0]
 8002b62:	3301      	adds	r3, #1
 8002b64:	2b01      	cmp	r3, #1
 8002b66:	6013      	str	r3, [r2, #0]
 8002b68:	4b3d      	ldr	r3, [pc, #244]	; (8002c60 <HAL_ADC_MspInit+0x19c>)
 8002b6a:	d108      	bne.n	8002b7e <HAL_ADC_MspInit+0xba>
 8002b6c:	695a      	ldr	r2, [r3, #20]
 8002b6e:	f042 5280 	orr.w	r2, r2, #268435456	; 0x10000000
 8002b72:	615a      	str	r2, [r3, #20]
 8002b74:	695a      	ldr	r2, [r3, #20]
 8002b76:	f002 5280 	and.w	r2, r2, #268435456	; 0x10000000
 8002b7a:	9203      	str	r2, [sp, #12]
 8002b7c:	9a03      	ldr	r2, [sp, #12]
 8002b7e:	695a      	ldr	r2, [r3, #20]
 8002b80:	483b      	ldr	r0, [pc, #236]	; (8002c70 <HAL_ADC_MspInit+0x1ac>)
 8002b82:	4c3c      	ldr	r4, [pc, #240]	; (8002c74 <HAL_ADC_MspInit+0x1b0>)
 8002b84:	f442 2200 	orr.w	r2, r2, #524288	; 0x80000
 8002b88:	615a      	str	r2, [r3, #20]
 8002b8a:	695b      	ldr	r3, [r3, #20]
 8002b8c:	f403 2300 	and.w	r3, r3, #524288	; 0x80000
 8002b90:	9304      	str	r3, [sp, #16]
 8002b92:	9b04      	ldr	r3, [sp, #16]
 8002b94:	2620      	movs	r6, #32
 8002b96:	2303      	movs	r3, #3
 8002b98:	a909      	add	r1, sp, #36	; 0x24
 8002b9a:	e9cd 6309 	strd	r6, r3, [sp, #36]	; 0x24
 8002b9e:	f001 fae7 	bl	8004170 <HAL_GPIO_Init>
 8002ba2:	4b35      	ldr	r3, [pc, #212]	; (8002c78 <HAL_ADC_MspInit+0x1b4>)
 8002ba4:	6023      	str	r3, [r4, #0]
 8002ba6:	f44f 7200 	mov.w	r2, #512	; 0x200
 8002baa:	2180      	movs	r1, #128	; 0x80
 8002bac:	e9c4 1203 	strd	r1, r2, [r4, #12]
 8002bb0:	2300      	movs	r3, #0
 8002bb2:	f44f 6200 	mov.w	r2, #2048	; 0x800
 8002bb6:	e9c4 3301 	strd	r3, r3, [r4, #4]
 8002bba:	6162      	str	r2, [r4, #20]
 8002bbc:	e7be      	b.n	8002b3c <HAL_ADC_MspInit+0x78>
 8002bbe:	4a2f      	ldr	r2, [pc, #188]	; (8002c7c <HAL_ADC_MspInit+0x1b8>)
 8002bc0:	4293      	cmp	r3, r2
 8002bc2:	d123      	bne.n	8002c0c <HAL_ADC_MspInit+0x148>
 8002bc4:	4a2e      	ldr	r2, [pc, #184]	; (8002c80 <HAL_ADC_MspInit+0x1bc>)
 8002bc6:	6813      	ldr	r3, [r2, #0]
 8002bc8:	3301      	adds	r3, #1
 8002bca:	2b01      	cmp	r3, #1
 8002bcc:	6013      	str	r3, [r2, #0]
 8002bce:	4b24      	ldr	r3, [pc, #144]	; (8002c60 <HAL_ADC_MspInit+0x19c>)
 8002bd0:	d108      	bne.n	8002be4 <HAL_ADC_MspInit+0x120>
 8002bd2:	695a      	ldr	r2, [r3, #20]
 8002bd4:	f042 5200 	orr.w	r2, r2, #536870912	; 0x20000000
 8002bd8:	615a      	str	r2, [r3, #20]
 8002bda:	695a      	ldr	r2, [r3, #20]
 8002bdc:	f002 5200 	and.w	r2, r2, #536870912	; 0x20000000
 8002be0:	9205      	str	r2, [sp, #20]
 8002be2:	9a05      	ldr	r2, [sp, #20]
 8002be4:	695a      	ldr	r2, [r3, #20]
 8002be6:	481f      	ldr	r0, [pc, #124]	; (8002c64 <HAL_ADC_MspInit+0x1a0>)
 8002be8:	f442 2280 	orr.w	r2, r2, #262144	; 0x40000
 8002bec:	615a      	str	r2, [r3, #20]
 8002bee:	695b      	ldr	r3, [r3, #20]
 8002bf0:	f403 2380 	and.w	r3, r3, #262144	; 0x40000
 8002bf4:	9306      	str	r3, [sp, #24]
 8002bf6:	9b06      	ldr	r3, [sp, #24]
 8002bf8:	2401      	movs	r4, #1
 8002bfa:	2303      	movs	r3, #3
 8002bfc:	a909      	add	r1, sp, #36	; 0x24
 8002bfe:	e9cd 4309 	strd	r4, r3, [sp, #36]	; 0x24
 8002c02:	f001 fab5 	bl	8004170 <HAL_GPIO_Init>
 8002c06:	4c1f      	ldr	r4, [pc, #124]	; (8002c84 <HAL_ADC_MspInit+0x1c0>)
 8002c08:	4b1f      	ldr	r3, [pc, #124]	; (8002c88 <HAL_ADC_MspInit+0x1c4>)
 8002c0a:	e7cb      	b.n	8002ba4 <HAL_ADC_MspInit+0xe0>
 8002c0c:	4a1f      	ldr	r2, [pc, #124]	; (8002c8c <HAL_ADC_MspInit+0x1c8>)
 8002c0e:	4293      	cmp	r3, r2
 8002c10:	d1a0      	bne.n	8002b54 <HAL_ADC_MspInit+0x90>
 8002c12:	4a1b      	ldr	r2, [pc, #108]	; (8002c80 <HAL_ADC_MspInit+0x1bc>)
 8002c14:	6813      	ldr	r3, [r2, #0]
 8002c16:	3301      	adds	r3, #1
 8002c18:	2b01      	cmp	r3, #1
 8002c1a:	6013      	str	r3, [r2, #0]
 8002c1c:	4b10      	ldr	r3, [pc, #64]	; (8002c60 <HAL_ADC_MspInit+0x19c>)
 8002c1e:	d108      	bne.n	8002c32 <HAL_ADC_MspInit+0x16e>
 8002c20:	695a      	ldr	r2, [r3, #20]
 8002c22:	f042 5200 	orr.w	r2, r2, #536870912	; 0x20000000
 8002c26:	615a      	str	r2, [r3, #20]
 8002c28:	695a      	ldr	r2, [r3, #20]
 8002c2a:	f002 5200 	and.w	r2, r2, #536870912	; 0x20000000
 8002c2e:	9207      	str	r2, [sp, #28]
 8002c30:	9a07      	ldr	r2, [sp, #28]
 8002c32:	695a      	ldr	r2, [r3, #20]
 8002c34:	4c16      	ldr	r4, [pc, #88]	; (8002c90 <HAL_ADC_MspInit+0x1cc>)
 8002c36:	f442 2280 	orr.w	r2, r2, #262144	; 0x40000
 8002c3a:	615a      	str	r2, [r3, #20]
 8002c3c:	695b      	ldr	r3, [r3, #20]
 8002c3e:	f403 2380 	and.w	r3, r3, #262144	; 0x40000
 8002c42:	9308      	str	r3, [sp, #32]
 8002c44:	9b08      	ldr	r3, [sp, #32]
 8002c46:	f44f 5080 	mov.w	r0, #4096	; 0x1000
 8002c4a:	2303      	movs	r3, #3
 8002c4c:	e9cd 0309 	strd	r0, r3, [sp, #36]	; 0x24
 8002c50:	a909      	add	r1, sp, #36	; 0x24
 8002c52:	4804      	ldr	r0, [pc, #16]	; (8002c64 <HAL_ADC_MspInit+0x1a0>)
 8002c54:	f001 fa8c 	bl	8004170 <HAL_GPIO_Init>
 8002c58:	4b0e      	ldr	r3, [pc, #56]	; (8002c94 <HAL_ADC_MspInit+0x1d0>)
 8002c5a:	e7a3      	b.n	8002ba4 <HAL_ADC_MspInit+0xe0>
 8002c5c:	20009858 	.word	0x20009858
 8002c60:	40021000 	.word	0x40021000
 8002c64:	48000400 	.word	0x48000400
 8002c68:	200091e4 	.word	0x200091e4
 8002c6c:	50000100 	.word	0x50000100
 8002c70:	48000800 	.word	0x48000800
 8002c74:	20009228 	.word	0x20009228
 8002c78:	40020408 	.word	0x40020408
 8002c7c:	50000400 	.word	0x50000400
 8002c80:	2000985c 	.word	0x2000985c
 8002c84:	2000926c 	.word	0x2000926c
 8002c88:	40020458 	.word	0x40020458
 8002c8c:	50000500 	.word	0x50000500
 8002c90:	200092b0 	.word	0x200092b0
 8002c94:	4002041c 	.word	0x4002041c
 8002c98:	40020008 	.word	0x40020008

08002c9c <HAL_DAC_MspInit>:
 8002c9c:	b570      	push	{r4, r5, r6, lr}
 8002c9e:	4605      	mov	r5, r0
 8002ca0:	b088      	sub	sp, #32
 8002ca2:	2214      	movs	r2, #20
 8002ca4:	2100      	movs	r1, #0
 8002ca6:	a803      	add	r0, sp, #12
 8002ca8:	f00a fb4c 	bl	800d344 <memset>
 8002cac:	682a      	ldr	r2, [r5, #0]
 8002cae:	4b20      	ldr	r3, [pc, #128]	; (8002d30 <HAL_DAC_MspInit+0x94>)
 8002cb0:	429a      	cmp	r2, r3
 8002cb2:	d13a      	bne.n	8002d2a <HAL_DAC_MspInit+0x8e>
 8002cb4:	f503 33ce 	add.w	r3, r3, #105472	; 0x19c00
 8002cb8:	2610      	movs	r6, #16
 8002cba:	69da      	ldr	r2, [r3, #28]
 8002cbc:	4c1d      	ldr	r4, [pc, #116]	; (8002d34 <HAL_DAC_MspInit+0x98>)
 8002cbe:	f042 5200 	orr.w	r2, r2, #536870912	; 0x20000000
 8002cc2:	61da      	str	r2, [r3, #28]
 8002cc4:	69da      	ldr	r2, [r3, #28]
 8002cc6:	f002 5200 	and.w	r2, r2, #536870912	; 0x20000000
 8002cca:	9201      	str	r2, [sp, #4]
 8002ccc:	9a01      	ldr	r2, [sp, #4]
 8002cce:	695a      	ldr	r2, [r3, #20]
 8002cd0:	f442 3200 	orr.w	r2, r2, #131072	; 0x20000
 8002cd4:	615a      	str	r2, [r3, #20]
 8002cd6:	695b      	ldr	r3, [r3, #20]
 8002cd8:	f403 3300 	and.w	r3, r3, #131072	; 0x20000
 8002cdc:	9302      	str	r3, [sp, #8]
 8002cde:	9b02      	ldr	r3, [sp, #8]
 8002ce0:	a903      	add	r1, sp, #12
 8002ce2:	2303      	movs	r3, #3
 8002ce4:	f04f 4090 	mov.w	r0, #1207959552	; 0x48000000
 8002ce8:	e9cd 6303 	strd	r6, r3, [sp, #12]
 8002cec:	f001 fa40 	bl	8004170 <HAL_GPIO_Init>
 8002cf0:	4b11      	ldr	r3, [pc, #68]	; (8002d38 <HAL_DAC_MspInit+0x9c>)
 8002cf2:	2280      	movs	r2, #128	; 0x80
 8002cf4:	e9c4 3600 	strd	r3, r6, [r4]
 8002cf8:	2300      	movs	r3, #0
 8002cfa:	e9c4 3202 	strd	r3, r2, [r4, #8]
 8002cfe:	f44f 7100 	mov.w	r1, #512	; 0x200
 8002d02:	f44f 6200 	mov.w	r2, #2048	; 0x800
 8002d06:	e9c4 1204 	strd	r1, r2, [r4, #16]
 8002d0a:	4620      	mov	r0, r4
 8002d0c:	2220      	movs	r2, #32
 8002d0e:	e9c4 2306 	strd	r2, r3, [r4, #24]
 8002d12:	f001 f969 	bl	8003fe8 <HAL_DMA_Init>
 8002d16:	b108      	cbz	r0, 8002d1c <HAL_DAC_MspInit+0x80>
 8002d18:	f7ff feb8 	bl	8002a8c <Error_Handler>
 8002d1c:	4a07      	ldr	r2, [pc, #28]	; (8002d3c <HAL_DAC_MspInit+0xa0>)
 8002d1e:	6813      	ldr	r3, [r2, #0]
 8002d20:	f443 5300 	orr.w	r3, r3, #8192	; 0x2000
 8002d24:	6013      	str	r3, [r2, #0]
 8002d26:	60ac      	str	r4, [r5, #8]
 8002d28:	6265      	str	r5, [r4, #36]	; 0x24
 8002d2a:	b008      	add	sp, #32
 8002d2c:	bd70      	pop	{r4, r5, r6, pc}
 8002d2e:	bf00      	nop
 8002d30:	40007400 	.word	0x40007400
 8002d34:	200092f4 	.word	0x200092f4
 8002d38:	40020030 	.word	0x40020030
 8002d3c:	40010000 	.word	0x40010000

08002d40 <HAL_SPI_MspInit>:
 8002d40:	b510      	push	{r4, lr}
 8002d42:	4604      	mov	r4, r0
 8002d44:	b088      	sub	sp, #32
 8002d46:	2214      	movs	r2, #20
 8002d48:	2100      	movs	r1, #0
 8002d4a:	a803      	add	r0, sp, #12
 8002d4c:	f00a fafa 	bl	800d344 <memset>
 8002d50:	6822      	ldr	r2, [r4, #0]
 8002d52:	4b13      	ldr	r3, [pc, #76]	; (8002da0 <HAL_SPI_MspInit+0x60>)
 8002d54:	429a      	cmp	r2, r3
 8002d56:	d120      	bne.n	8002d9a <HAL_SPI_MspInit+0x5a>
 8002d58:	f503 33ea 	add.w	r3, r3, #119808	; 0x1d400
 8002d5c:	2103      	movs	r1, #3
 8002d5e:	69da      	ldr	r2, [r3, #28]
 8002d60:	4810      	ldr	r0, [pc, #64]	; (8002da4 <HAL_SPI_MspInit+0x64>)
 8002d62:	f442 4200 	orr.w	r2, r2, #32768	; 0x8000
 8002d66:	61da      	str	r2, [r3, #28]
 8002d68:	69da      	ldr	r2, [r3, #28]
 8002d6a:	f402 4200 	and.w	r2, r2, #32768	; 0x8000
 8002d6e:	9201      	str	r2, [sp, #4]
 8002d70:	9a01      	ldr	r2, [sp, #4]
 8002d72:	695a      	ldr	r2, [r3, #20]
 8002d74:	f442 2200 	orr.w	r2, r2, #524288	; 0x80000
 8002d78:	615a      	str	r2, [r3, #20]
 8002d7a:	695b      	ldr	r3, [r3, #20]
 8002d7c:	f403 2300 	and.w	r3, r3, #524288	; 0x80000
 8002d80:	9302      	str	r3, [sp, #8]
 8002d82:	9b02      	ldr	r3, [sp, #8]
 8002d84:	f44f 52e0 	mov.w	r2, #7168	; 0x1c00
 8002d88:	2302      	movs	r3, #2
 8002d8a:	e9cd 2303 	strd	r2, r3, [sp, #12]
 8002d8e:	2306      	movs	r3, #6
 8002d90:	e9cd 1306 	strd	r1, r3, [sp, #24]
 8002d94:	a903      	add	r1, sp, #12
 8002d96:	f001 f9eb 	bl	8004170 <HAL_GPIO_Init>
 8002d9a:	b008      	add	sp, #32
 8002d9c:	bd10      	pop	{r4, pc}
 8002d9e:	bf00      	nop
 8002da0:	40003c00 	.word	0x40003c00
 8002da4:	48000800 	.word	0x48000800

08002da8 <HAL_TIM_Base_MspInit>:
 8002da8:	b530      	push	{r4, r5, lr}
 8002daa:	6803      	ldr	r3, [r0, #0]
 8002dac:	4a3e      	ldr	r2, [pc, #248]	; (8002ea8 <HAL_TIM_Base_MspInit+0x100>)
 8002dae:	4293      	cmp	r3, r2
 8002db0:	b087      	sub	sp, #28
 8002db2:	4605      	mov	r5, r0
 8002db4:	d114      	bne.n	8002de0 <HAL_TIM_Base_MspInit+0x38>
 8002db6:	4b3d      	ldr	r3, [pc, #244]	; (8002eac <HAL_TIM_Base_MspInit+0x104>)
 8002db8:	699a      	ldr	r2, [r3, #24]
 8002dba:	f442 6200 	orr.w	r2, r2, #2048	; 0x800
 8002dbe:	619a      	str	r2, [r3, #24]
 8002dc0:	699b      	ldr	r3, [r3, #24]
 8002dc2:	2200      	movs	r2, #0
 8002dc4:	f403 6300 	and.w	r3, r3, #2048	; 0x800
 8002dc8:	9301      	str	r3, [sp, #4]
 8002dca:	2019      	movs	r0, #25
 8002dcc:	4611      	mov	r1, r2
 8002dce:	9b01      	ldr	r3, [sp, #4]
 8002dd0:	f000 ffc2 	bl	8003d58 <HAL_NVIC_SetPriority>
 8002dd4:	2019      	movs	r0, #25
 8002dd6:	b007      	add	sp, #28
 8002dd8:	e8bd 4030 	ldmia.w	sp!, {r4, r5, lr}
 8002ddc:	f000 bfee 	b.w	8003dbc <HAL_NVIC_EnableIRQ>
 8002de0:	f1b3 4f80 	cmp.w	r3, #1073741824	; 0x40000000
 8002de4:	d129      	bne.n	8002e3a <HAL_TIM_Base_MspInit+0x92>
 8002de6:	f503 3304 	add.w	r3, r3, #135168	; 0x21000
 8002dea:	4c31      	ldr	r4, [pc, #196]	; (8002eb0 <HAL_TIM_Base_MspInit+0x108>)
 8002dec:	69da      	ldr	r2, [r3, #28]
 8002dee:	f042 0201 	orr.w	r2, r2, #1
 8002df2:	61da      	str	r2, [r3, #28]
 8002df4:	69db      	ldr	r3, [r3, #28]
 8002df6:	4a2f      	ldr	r2, [pc, #188]	; (8002eb4 <HAL_TIM_Base_MspInit+0x10c>)
 8002df8:	f003 0301 	and.w	r3, r3, #1
 8002dfc:	9302      	str	r3, [sp, #8]
 8002dfe:	9b02      	ldr	r3, [sp, #8]
 8002e00:	2310      	movs	r3, #16
 8002e02:	e9c4 2300 	strd	r2, r3, [r4]
 8002e06:	2100      	movs	r1, #0
 8002e08:	2380      	movs	r3, #128	; 0x80
 8002e0a:	f44f 7000 	mov.w	r0, #512	; 0x200
 8002e0e:	e9c4 1302 	strd	r1, r3, [r4, #8]
 8002e12:	f44f 6300 	mov.w	r3, #2048	; 0x800
 8002e16:	e9c4 0304 	strd	r0, r3, [r4, #16]
 8002e1a:	f04f 0c20 	mov.w	ip, #32
 8002e1e:	f44f 5340 	mov.w	r3, #12288	; 0x3000
 8002e22:	4620      	mov	r0, r4
 8002e24:	e9c4 c306 	strd	ip, r3, [r4, #24]
 8002e28:	f001 f8de 	bl	8003fe8 <HAL_DMA_Init>
 8002e2c:	b108      	cbz	r0, 8002e32 <HAL_TIM_Base_MspInit+0x8a>
 8002e2e:	f7ff fe2d 	bl	8002a8c <Error_Handler>
 8002e32:	626c      	str	r4, [r5, #36]	; 0x24
 8002e34:	6265      	str	r5, [r4, #36]	; 0x24
 8002e36:	b007      	add	sp, #28
 8002e38:	bd30      	pop	{r4, r5, pc}
 8002e3a:	4a1f      	ldr	r2, [pc, #124]	; (8002eb8 <HAL_TIM_Base_MspInit+0x110>)
 8002e3c:	4293      	cmp	r3, r2
 8002e3e:	d110      	bne.n	8002e62 <HAL_TIM_Base_MspInit+0xba>
 8002e40:	4b1a      	ldr	r3, [pc, #104]	; (8002eac <HAL_TIM_Base_MspInit+0x104>)
 8002e42:	69da      	ldr	r2, [r3, #28]
 8002e44:	f042 0202 	orr.w	r2, r2, #2
 8002e48:	61da      	str	r2, [r3, #28]
 8002e4a:	69db      	ldr	r3, [r3, #28]
 8002e4c:	f003 0302 	and.w	r3, r3, #2
 8002e50:	9303      	str	r3, [sp, #12]
 8002e52:	201d      	movs	r0, #29
 8002e54:	2207      	movs	r2, #7
 8002e56:	2100      	movs	r1, #0
 8002e58:	9b03      	ldr	r3, [sp, #12]
 8002e5a:	f000 ff7d 	bl	8003d58 <HAL_NVIC_SetPriority>
 8002e5e:	201d      	movs	r0, #29
 8002e60:	e7b9      	b.n	8002dd6 <HAL_TIM_Base_MspInit+0x2e>
 8002e62:	4a16      	ldr	r2, [pc, #88]	; (8002ebc <HAL_TIM_Base_MspInit+0x114>)
 8002e64:	4293      	cmp	r3, r2
 8002e66:	d110      	bne.n	8002e8a <HAL_TIM_Base_MspInit+0xe2>
 8002e68:	4b10      	ldr	r3, [pc, #64]	; (8002eac <HAL_TIM_Base_MspInit+0x104>)
 8002e6a:	69da      	ldr	r2, [r3, #28]
 8002e6c:	f042 0220 	orr.w	r2, r2, #32
 8002e70:	61da      	str	r2, [r3, #28]
 8002e72:	69db      	ldr	r3, [r3, #28]
 8002e74:	2200      	movs	r2, #0
 8002e76:	f003 0320 	and.w	r3, r3, #32
 8002e7a:	9304      	str	r3, [sp, #16]
 8002e7c:	2037      	movs	r0, #55	; 0x37
 8002e7e:	4611      	mov	r1, r2
 8002e80:	9b04      	ldr	r3, [sp, #16]
 8002e82:	f000 ff69 	bl	8003d58 <HAL_NVIC_SetPriority>
 8002e86:	2037      	movs	r0, #55	; 0x37
 8002e88:	e7a5      	b.n	8002dd6 <HAL_TIM_Base_MspInit+0x2e>
 8002e8a:	4a0d      	ldr	r2, [pc, #52]	; (8002ec0 <HAL_TIM_Base_MspInit+0x118>)
 8002e8c:	4293      	cmp	r3, r2
 8002e8e:	d1d2      	bne.n	8002e36 <HAL_TIM_Base_MspInit+0x8e>
 8002e90:	4b06      	ldr	r3, [pc, #24]	; (8002eac <HAL_TIM_Base_MspInit+0x104>)
 8002e92:	699a      	ldr	r2, [r3, #24]
 8002e94:	f442 5200 	orr.w	r2, r2, #8192	; 0x2000
 8002e98:	619a      	str	r2, [r3, #24]
 8002e9a:	699b      	ldr	r3, [r3, #24]
 8002e9c:	f403 5300 	and.w	r3, r3, #8192	; 0x2000
 8002ea0:	9305      	str	r3, [sp, #20]
 8002ea2:	9b05      	ldr	r3, [sp, #20]
 8002ea4:	e7c7      	b.n	8002e36 <HAL_TIM_Base_MspInit+0x8e>
 8002ea6:	bf00      	nop
 8002ea8:	40012c00 	.word	0x40012c00
 8002eac:	40021000 	.word	0x40021000
 8002eb0:	2000937c 	.word	0x2000937c
 8002eb4:	40020058 	.word	0x40020058
 8002eb8:	40000400 	.word	0x40000400
 8002ebc:	40001400 	.word	0x40001400
 8002ec0:	40013400 	.word	0x40013400

08002ec4 <HAL_TIM_MspPostInit>:
 8002ec4:	b570      	push	{r4, r5, r6, lr}
 8002ec6:	2214      	movs	r2, #20
 8002ec8:	b08a      	sub	sp, #40	; 0x28
 8002eca:	4604      	mov	r4, r0
 8002ecc:	2100      	movs	r1, #0
 8002ece:	eb0d 0002 	add.w	r0, sp, r2
 8002ed2:	f00a fa37 	bl	800d344 <memset>
 8002ed6:	6823      	ldr	r3, [r4, #0]
 8002ed8:	4a43      	ldr	r2, [pc, #268]	; (8002fe8 <HAL_TIM_MspPostInit+0x124>)
 8002eda:	4293      	cmp	r3, r2
 8002edc:	d121      	bne.n	8002f22 <HAL_TIM_MspPostInit+0x5e>
 8002ede:	4b43      	ldr	r3, [pc, #268]	; (8002fec <HAL_TIM_MspPostInit+0x128>)
 8002ee0:	4843      	ldr	r0, [pc, #268]	; (8002ff0 <HAL_TIM_MspPostInit+0x12c>)
 8002ee2:	695a      	ldr	r2, [r3, #20]
 8002ee4:	f442 2200 	orr.w	r2, r2, #524288	; 0x80000
 8002ee8:	615a      	str	r2, [r3, #20]
 8002eea:	695b      	ldr	r3, [r3, #20]
 8002eec:	f403 2300 	and.w	r3, r3, #524288	; 0x80000
 8002ef0:	9300      	str	r3, [sp, #0]
 8002ef2:	2402      	movs	r4, #2
 8002ef4:	9b00      	ldr	r3, [sp, #0]
 8002ef6:	f44f 5300 	mov.w	r3, #8192	; 0x2000
 8002efa:	e9cd 3405 	strd	r3, r4, [sp, #20]
 8002efe:	a905      	add	r1, sp, #20
 8002f00:	2304      	movs	r3, #4
 8002f02:	9309      	str	r3, [sp, #36]	; 0x24
 8002f04:	f001 f934 	bl	8004170 <HAL_GPIO_Init>
 8002f08:	2301      	movs	r3, #1
 8002f0a:	e9cd 3405 	strd	r3, r4, [sp, #20]
 8002f0e:	2300      	movs	r3, #0
 8002f10:	e9cd 3307 	strd	r3, r3, [sp, #28]
 8002f14:	4836      	ldr	r0, [pc, #216]	; (8002ff0 <HAL_TIM_MspPostInit+0x12c>)
 8002f16:	9409      	str	r4, [sp, #36]	; 0x24
 8002f18:	a905      	add	r1, sp, #20
 8002f1a:	f001 f929 	bl	8004170 <HAL_GPIO_Init>
 8002f1e:	b00a      	add	sp, #40	; 0x28
 8002f20:	bd70      	pop	{r4, r5, r6, pc}
 8002f22:	f1b3 4f80 	cmp.w	r3, #1073741824	; 0x40000000
 8002f26:	d113      	bne.n	8002f50 <HAL_TIM_MspPostInit+0x8c>
 8002f28:	f503 3304 	add.w	r3, r3, #135168	; 0x21000
 8002f2c:	a905      	add	r1, sp, #20
 8002f2e:	695a      	ldr	r2, [r3, #20]
 8002f30:	f442 3200 	orr.w	r2, r2, #131072	; 0x20000
 8002f34:	615a      	str	r2, [r3, #20]
 8002f36:	695b      	ldr	r3, [r3, #20]
 8002f38:	f403 3300 	and.w	r3, r3, #131072	; 0x20000
 8002f3c:	9301      	str	r3, [sp, #4]
 8002f3e:	9b01      	ldr	r3, [sp, #4]
 8002f40:	2202      	movs	r2, #2
 8002f42:	2301      	movs	r3, #1
 8002f44:	e9cd 3205 	strd	r3, r2, [sp, #20]
 8002f48:	9309      	str	r3, [sp, #36]	; 0x24
 8002f4a:	f04f 4090 	mov.w	r0, #1207959552	; 0x48000000
 8002f4e:	e7e4      	b.n	8002f1a <HAL_TIM_MspPostInit+0x56>
 8002f50:	4a28      	ldr	r2, [pc, #160]	; (8002ff4 <HAL_TIM_MspPostInit+0x130>)
 8002f52:	4293      	cmp	r3, r2
 8002f54:	d1e3      	bne.n	8002f1e <HAL_TIM_MspPostInit+0x5a>
 8002f56:	4b25      	ldr	r3, [pc, #148]	; (8002fec <HAL_TIM_MspPostInit+0x128>)
 8002f58:	695a      	ldr	r2, [r3, #20]
 8002f5a:	f442 3200 	orr.w	r2, r2, #131072	; 0x20000
 8002f5e:	615a      	str	r2, [r3, #20]
 8002f60:	695a      	ldr	r2, [r3, #20]
 8002f62:	f402 3200 	and.w	r2, r2, #131072	; 0x20000
 8002f66:	9202      	str	r2, [sp, #8]
 8002f68:	9a02      	ldr	r2, [sp, #8]
 8002f6a:	695a      	ldr	r2, [r3, #20]
 8002f6c:	f442 2200 	orr.w	r2, r2, #524288	; 0x80000
 8002f70:	615a      	str	r2, [r3, #20]
 8002f72:	695a      	ldr	r2, [r3, #20]
 8002f74:	f402 2200 	and.w	r2, r2, #524288	; 0x80000
 8002f78:	9203      	str	r2, [sp, #12]
 8002f7a:	9a03      	ldr	r2, [sp, #12]
 8002f7c:	695a      	ldr	r2, [r3, #20]
 8002f7e:	f442 2280 	orr.w	r2, r2, #262144	; 0x40000
 8002f82:	615a      	str	r2, [r3, #20]
 8002f84:	695b      	ldr	r3, [r3, #20]
 8002f86:	f403 2380 	and.w	r3, r3, #262144	; 0x40000
 8002f8a:	9304      	str	r3, [sp, #16]
 8002f8c:	2502      	movs	r5, #2
 8002f8e:	9b04      	ldr	r3, [sp, #16]
 8002f90:	2604      	movs	r6, #4
 8002f92:	2380      	movs	r3, #128	; 0x80
 8002f94:	a905      	add	r1, sp, #20
 8002f96:	f04f 4090 	mov.w	r0, #1207959552	; 0x48000000
 8002f9a:	2400      	movs	r4, #0
 8002f9c:	e9cd 3505 	strd	r3, r5, [sp, #20]
 8002fa0:	9609      	str	r6, [sp, #36]	; 0x24
 8002fa2:	f001 f8e5 	bl	8004170 <HAL_GPIO_Init>
 8002fa6:	2340      	movs	r3, #64	; 0x40
 8002fa8:	4811      	ldr	r0, [pc, #68]	; (8002ff0 <HAL_TIM_MspPostInit+0x12c>)
 8002faa:	9609      	str	r6, [sp, #36]	; 0x24
 8002fac:	a905      	add	r1, sp, #20
 8002fae:	e9cd 3505 	strd	r3, r5, [sp, #20]
 8002fb2:	e9cd 4407 	strd	r4, r4, [sp, #28]
 8002fb6:	f001 f8db 	bl	8004170 <HAL_GPIO_Init>
 8002fba:	2320      	movs	r3, #32
 8002fbc:	e9cd 3505 	strd	r3, r5, [sp, #20]
 8002fc0:	480d      	ldr	r0, [pc, #52]	; (8002ff8 <HAL_TIM_MspPostInit+0x134>)
 8002fc2:	2303      	movs	r3, #3
 8002fc4:	a905      	add	r1, sp, #20
 8002fc6:	9309      	str	r3, [sp, #36]	; 0x24
 8002fc8:	e9cd 4407 	strd	r4, r4, [sp, #28]
 8002fcc:	f001 f8d0 	bl	8004170 <HAL_GPIO_Init>
 8002fd0:	f44f 7300 	mov.w	r3, #512	; 0x200
 8002fd4:	e9cd 3505 	strd	r3, r5, [sp, #20]
 8002fd8:	230a      	movs	r3, #10
 8002fda:	e9cd 4407 	strd	r4, r4, [sp, #28]
 8002fde:	4806      	ldr	r0, [pc, #24]	; (8002ff8 <HAL_TIM_MspPostInit+0x134>)
 8002fe0:	9309      	str	r3, [sp, #36]	; 0x24
 8002fe2:	a905      	add	r1, sp, #20
 8002fe4:	e799      	b.n	8002f1a <HAL_TIM_MspPostInit+0x56>
 8002fe6:	bf00      	nop
 8002fe8:	40012c00 	.word	0x40012c00
 8002fec:	40021000 	.word	0x40021000
 8002ff0:	48000800 	.word	0x48000800
 8002ff4:	40013400 	.word	0x40013400
 8002ff8:	48000400 	.word	0x48000400

08002ffc <HAL_UART_MspInit>:
 8002ffc:	b510      	push	{r4, lr}
 8002ffe:	4604      	mov	r4, r0
 8003000:	b088      	sub	sp, #32
 8003002:	2214      	movs	r2, #20
 8003004:	2100      	movs	r1, #0
 8003006:	a803      	add	r0, sp, #12
 8003008:	f00a f99c 	bl	800d344 <memset>
 800300c:	6822      	ldr	r2, [r4, #0]
 800300e:	4b13      	ldr	r3, [pc, #76]	; (800305c <HAL_UART_MspInit+0x60>)
 8003010:	429a      	cmp	r2, r3
 8003012:	d120      	bne.n	8003056 <HAL_UART_MspInit+0x5a>
 8003014:	f503 33e6 	add.w	r3, r3, #117760	; 0x1cc00
 8003018:	2103      	movs	r1, #3
 800301a:	69da      	ldr	r2, [r3, #28]
 800301c:	f442 3200 	orr.w	r2, r2, #131072	; 0x20000
 8003020:	61da      	str	r2, [r3, #28]
 8003022:	69da      	ldr	r2, [r3, #28]
 8003024:	f402 3200 	and.w	r2, r2, #131072	; 0x20000
 8003028:	9201      	str	r2, [sp, #4]
 800302a:	9a01      	ldr	r2, [sp, #4]
 800302c:	695a      	ldr	r2, [r3, #20]
 800302e:	f442 3200 	orr.w	r2, r2, #131072	; 0x20000
 8003032:	615a      	str	r2, [r3, #20]
 8003034:	695b      	ldr	r3, [r3, #20]
 8003036:	f403 3300 	and.w	r3, r3, #131072	; 0x20000
 800303a:	9302      	str	r3, [sp, #8]
 800303c:	9b02      	ldr	r3, [sp, #8]
 800303e:	220c      	movs	r2, #12
 8003040:	2302      	movs	r3, #2
 8003042:	e9cd 2303 	strd	r2, r3, [sp, #12]
 8003046:	2307      	movs	r3, #7
 8003048:	e9cd 1306 	strd	r1, r3, [sp, #24]
 800304c:	f04f 4090 	mov.w	r0, #1207959552	; 0x48000000
 8003050:	a903      	add	r1, sp, #12
 8003052:	f001 f88d 	bl	8004170 <HAL_GPIO_Init>
 8003056:	b008      	add	sp, #32
 8003058:	bd10      	pop	{r4, pc}
 800305a:	bf00      	nop
 800305c:	40004400 	.word	0x40004400

08003060 <SDTimer_Handler>:
 8003060:	4a05      	ldr	r2, [pc, #20]	; (8003078 <SDTimer_Handler+0x18>)
 8003062:	7813      	ldrb	r3, [r2, #0]
 8003064:	b10b      	cbz	r3, 800306a <SDTimer_Handler+0xa>
 8003066:	3b01      	subs	r3, #1
 8003068:	7013      	strb	r3, [r2, #0]
 800306a:	4a04      	ldr	r2, [pc, #16]	; (800307c <SDTimer_Handler+0x1c>)
 800306c:	7813      	ldrb	r3, [r2, #0]
 800306e:	b10b      	cbz	r3, 8003074 <SDTimer_Handler+0x14>
 8003070:	3b01      	subs	r3, #1
 8003072:	7013      	strb	r3, [r2, #0]
 8003074:	4770      	bx	lr
 8003076:	bf00      	nop
 8003078:	20009861 	.word	0x20009861
 800307c:	20009862 	.word	0x20009862

08003080 <NMI_Handler>:
 8003080:	4770      	bx	lr

08003082 <HardFault_Handler>:
 8003082:	e7fe      	b.n	8003082 <HardFault_Handler>

08003084 <MemManage_Handler>:
 8003084:	e7fe      	b.n	8003084 <MemManage_Handler>

08003086 <BusFault_Handler>:
 8003086:	e7fe      	b.n	8003086 <BusFault_Handler>

08003088 <UsageFault_Handler>:
 8003088:	e7fe      	b.n	8003088 <UsageFault_Handler>

0800308a <SVC_Handler>:
 800308a:	4770      	bx	lr

0800308c <DebugMon_Handler>:
 800308c:	4770      	bx	lr

0800308e <PendSV_Handler>:
 800308e:	4770      	bx	lr

08003090 <SysTick_Handler>:
 8003090:	b508      	push	{r3, lr}
 8003092:	4a08      	ldr	r2, [pc, #32]	; (80030b4 <SysTick_Handler+0x24>)
 8003094:	7813      	ldrb	r3, [r2, #0]
 8003096:	3301      	adds	r3, #1
 8003098:	b2db      	uxtb	r3, r3
 800309a:	2b09      	cmp	r3, #9
 800309c:	d804      	bhi.n	80030a8 <SysTick_Handler+0x18>
 800309e:	7013      	strb	r3, [r2, #0]
 80030a0:	e8bd 4008 	ldmia.w	sp!, {r3, lr}
 80030a4:	f000 b8f2 	b.w	800328c <HAL_IncTick>
 80030a8:	2300      	movs	r3, #0
 80030aa:	7013      	strb	r3, [r2, #0]
 80030ac:	f7ff ffd8 	bl	8003060 <SDTimer_Handler>
 80030b0:	e7f6      	b.n	80030a0 <SysTick_Handler+0x10>
 80030b2:	bf00      	nop
 80030b4:	20009860 	.word	0x20009860

080030b8 <DMA1_Channel1_IRQHandler>:
 80030b8:	4801      	ldr	r0, [pc, #4]	; (80030c0 <DMA1_Channel1_IRQHandler+0x8>)
 80030ba:	f001 b812 	b.w	80040e2 <HAL_DMA_IRQHandler>
 80030be:	bf00      	nop
 80030c0:	200091e4 	.word	0x200091e4

080030c4 <DMA1_Channel3_IRQHandler>:
 80030c4:	4801      	ldr	r0, [pc, #4]	; (80030cc <DMA1_Channel3_IRQHandler+0x8>)
 80030c6:	f001 b80c 	b.w	80040e2 <HAL_DMA_IRQHandler>
 80030ca:	bf00      	nop
 80030cc:	200092f4 	.word	0x200092f4

080030d0 <DMA1_Channel5_IRQHandler>:
 80030d0:	4801      	ldr	r0, [pc, #4]	; (80030d8 <DMA1_Channel5_IRQHandler+0x8>)
 80030d2:	f001 b806 	b.w	80040e2 <HAL_DMA_IRQHandler>
 80030d6:	bf00      	nop
 80030d8:	2000937c 	.word	0x2000937c

080030dc <TIM1_UP_TIM16_IRQHandler>:
 80030dc:	4801      	ldr	r0, [pc, #4]	; (80030e4 <TIM1_UP_TIM16_IRQHandler+0x8>)
 80030de:	f003 b9b7 	b.w	8006450 <HAL_TIM_IRQHandler>
 80030e2:	bf00      	nop
 80030e4:	20009424 	.word	0x20009424

080030e8 <TIM3_IRQHandler>:
 80030e8:	4801      	ldr	r0, [pc, #4]	; (80030f0 <TIM3_IRQHandler+0x8>)
 80030ea:	f003 b9b1 	b.w	8006450 <HAL_TIM_IRQHandler>
 80030ee:	bf00      	nop
 80030f0:	2000959c 	.word	0x2000959c

080030f4 <TIM7_IRQHandler>:
 80030f4:	4801      	ldr	r0, [pc, #4]	; (80030fc <TIM7_IRQHandler+0x8>)
 80030f6:	f003 b9ab 	b.w	8006450 <HAL_TIM_IRQHandler>
 80030fa:	bf00      	nop
 80030fc:	20009658 	.word	0x20009658

08003100 <DMA2_Channel1_IRQHandler>:
 8003100:	4801      	ldr	r0, [pc, #4]	; (8003108 <DMA2_Channel1_IRQHandler+0x8>)
 8003102:	f000 bfee 	b.w	80040e2 <HAL_DMA_IRQHandler>
 8003106:	bf00      	nop
 8003108:	20009228 	.word	0x20009228

0800310c <DMA2_Channel2_IRQHandler>:
 800310c:	4801      	ldr	r0, [pc, #4]	; (8003114 <DMA2_Channel2_IRQHandler+0x8>)
 800310e:	f000 bfe8 	b.w	80040e2 <HAL_DMA_IRQHandler>
 8003112:	bf00      	nop
 8003114:	200092b0 	.word	0x200092b0

08003118 <DMA2_Channel5_IRQHandler>:
 8003118:	4801      	ldr	r0, [pc, #4]	; (8003120 <DMA2_Channel5_IRQHandler+0x8>)
 800311a:	f000 bfe2 	b.w	80040e2 <HAL_DMA_IRQHandler>
 800311e:	bf00      	nop
 8003120:	2000926c 	.word	0x2000926c

08003124 <USB_LP_IRQHandler>:
 8003124:	4801      	ldr	r0, [pc, #4]	; (800312c <USB_LP_IRQHandler+0x8>)
 8003126:	f001 b98b 	b.w	8004440 <HAL_PCD_IRQHandler>
 800312a:	bf00      	nop
 800312c:	2000c4d8 	.word	0x2000c4d8

08003130 <_sbrk>:
 8003130:	4a0a      	ldr	r2, [pc, #40]	; (800315c <_sbrk+0x2c>)
 8003132:	6811      	ldr	r1, [r2, #0]
 8003134:	b508      	push	{r3, lr}
 8003136:	4603      	mov	r3, r0
 8003138:	b909      	cbnz	r1, 800313e <_sbrk+0xe>
 800313a:	4909      	ldr	r1, [pc, #36]	; (8003160 <_sbrk+0x30>)
 800313c:	6011      	str	r1, [r2, #0]
 800313e:	6810      	ldr	r0, [r2, #0]
 8003140:	4669      	mov	r1, sp
 8003142:	4403      	add	r3, r0
 8003144:	428b      	cmp	r3, r1
 8003146:	d906      	bls.n	8003156 <_sbrk+0x26>
 8003148:	f00a f904 	bl	800d354 <__errno>
 800314c:	230c      	movs	r3, #12
 800314e:	6003      	str	r3, [r0, #0]
 8003150:	f04f 30ff 	mov.w	r0, #4294967295
 8003154:	bd08      	pop	{r3, pc}
 8003156:	6013      	str	r3, [r2, #0]
 8003158:	e7fc      	b.n	8003154 <_sbrk+0x24>
 800315a:	bf00      	nop
 800315c:	20009864 	.word	0x20009864
 8003160:	2000cb30 	.word	0x2000cb30

08003164 <SystemInit>:
 8003164:	4915      	ldr	r1, [pc, #84]	; (80031bc <SystemInit+0x58>)
 8003166:	f8d1 3088 	ldr.w	r3, [r1, #136]	; 0x88
 800316a:	f443 0370 	orr.w	r3, r3, #15728640	; 0xf00000
 800316e:	f8c1 3088 	str.w	r3, [r1, #136]	; 0x88
 8003172:	4b13      	ldr	r3, [pc, #76]	; (80031c0 <SystemInit+0x5c>)
 8003174:	681a      	ldr	r2, [r3, #0]
 8003176:	f042 0201 	orr.w	r2, r2, #1
 800317a:	601a      	str	r2, [r3, #0]
 800317c:	6858      	ldr	r0, [r3, #4]
 800317e:	4a11      	ldr	r2, [pc, #68]	; (80031c4 <SystemInit+0x60>)
 8003180:	4002      	ands	r2, r0
 8003182:	605a      	str	r2, [r3, #4]
 8003184:	681a      	ldr	r2, [r3, #0]
 8003186:	f022 7284 	bic.w	r2, r2, #17301504	; 0x1080000
 800318a:	f422 3280 	bic.w	r2, r2, #65536	; 0x10000
 800318e:	601a      	str	r2, [r3, #0]
 8003190:	681a      	ldr	r2, [r3, #0]
 8003192:	f422 2280 	bic.w	r2, r2, #262144	; 0x40000
 8003196:	601a      	str	r2, [r3, #0]
 8003198:	685a      	ldr	r2, [r3, #4]
 800319a:	f422 02fe 	bic.w	r2, r2, #8323072	; 0x7f0000
 800319e:	605a      	str	r2, [r3, #4]
 80031a0:	6ada      	ldr	r2, [r3, #44]	; 0x2c
 80031a2:	f022 020f 	bic.w	r2, r2, #15
 80031a6:	62da      	str	r2, [r3, #44]	; 0x2c
 80031a8:	6b18      	ldr	r0, [r3, #48]	; 0x30
 80031aa:	4a07      	ldr	r2, [pc, #28]	; (80031c8 <SystemInit+0x64>)
 80031ac:	4002      	ands	r2, r0
 80031ae:	631a      	str	r2, [r3, #48]	; 0x30
 80031b0:	2200      	movs	r2, #0
 80031b2:	609a      	str	r2, [r3, #8]
 80031b4:	f04f 6300 	mov.w	r3, #134217728	; 0x8000000
 80031b8:	608b      	str	r3, [r1, #8]
 80031ba:	4770      	bx	lr
 80031bc:	e000ed00 	.word	0xe000ed00
 80031c0:	40021000 	.word	0x40021000
 80031c4:	f87fc00c 	.word	0xf87fc00c
 80031c8:	ff00fccc 	.word	0xff00fccc

080031cc <Reset_Handler>:
 80031cc:	f8df d034 	ldr.w	sp, [pc, #52]	; 8003204 <LoopForever+0x2>
 80031d0:	2100      	movs	r1, #0
 80031d2:	e003      	b.n	80031dc <LoopCopyDataInit>

080031d4 <CopyDataInit>:
 80031d4:	4b0c      	ldr	r3, [pc, #48]	; (8003208 <LoopForever+0x6>)
 80031d6:	585b      	ldr	r3, [r3, r1]
 80031d8:	5043      	str	r3, [r0, r1]
 80031da:	3104      	adds	r1, #4

080031dc <LoopCopyDataInit>:
 80031dc:	480b      	ldr	r0, [pc, #44]	; (800320c <LoopForever+0xa>)
 80031de:	4b0c      	ldr	r3, [pc, #48]	; (8003210 <LoopForever+0xe>)
 80031e0:	1842      	adds	r2, r0, r1
 80031e2:	429a      	cmp	r2, r3
 80031e4:	d3f6      	bcc.n	80031d4 <CopyDataInit>
 80031e6:	4a0b      	ldr	r2, [pc, #44]	; (8003214 <LoopForever+0x12>)
 80031e8:	e002      	b.n	80031f0 <LoopFillZerobss>

080031ea <FillZerobss>:
 80031ea:	2300      	movs	r3, #0
 80031ec:	f842 3b04 	str.w	r3, [r2], #4

080031f0 <LoopFillZerobss>:
 80031f0:	4b09      	ldr	r3, [pc, #36]	; (8003218 <LoopForever+0x16>)
 80031f2:	429a      	cmp	r2, r3
 80031f4:	d3f9      	bcc.n	80031ea <FillZerobss>
 80031f6:	f7ff ffb5 	bl	8003164 <SystemInit>
 80031fa:	f00a f8b1 	bl	800d360 <__libc_init_array>
 80031fe:	f7ff f83f 	bl	8002280 <main>

08003202 <LoopForever>:
 8003202:	e7fe      	b.n	8003202 <LoopForever>
 8003204:	20010000 	.word	0x20010000
 8003208:	080110f0 	.word	0x080110f0
 800320c:	20000000 	.word	0x20000000
 8003210:	200001f0 	.word	0x200001f0
 8003214:	200001f0 	.word	0x200001f0
 8003218:	2000cb2c 	.word	0x2000cb2c

0800321c <ADC1_2_IRQHandler>:
 800321c:	e7fe      	b.n	800321c <ADC1_2_IRQHandler>
	...

08003220 <HAL_InitTick>:
 8003220:	b538      	push	{r3, r4, r5, lr}
 8003222:	4b0e      	ldr	r3, [pc, #56]	; (800325c <HAL_InitTick+0x3c>)
 8003224:	781a      	ldrb	r2, [r3, #0]
 8003226:	f44f 737a 	mov.w	r3, #1000	; 0x3e8
 800322a:	fbb3 f3f2 	udiv	r3, r3, r2
 800322e:	4a0c      	ldr	r2, [pc, #48]	; (8003260 <HAL_InitTick+0x40>)
 8003230:	4605      	mov	r5, r0
 8003232:	6810      	ldr	r0, [r2, #0]
 8003234:	fbb0 f0f3 	udiv	r0, r0, r3
 8003238:	f000 fdce 	bl	8003dd8 <HAL_SYSTICK_Config>
 800323c:	4604      	mov	r4, r0
 800323e:	b958      	cbnz	r0, 8003258 <HAL_InitTick+0x38>
 8003240:	2d0f      	cmp	r5, #15
 8003242:	d809      	bhi.n	8003258 <HAL_InitTick+0x38>
 8003244:	4602      	mov	r2, r0
 8003246:	4629      	mov	r1, r5
 8003248:	f04f 30ff 	mov.w	r0, #4294967295
 800324c:	f000 fd84 	bl	8003d58 <HAL_NVIC_SetPriority>
 8003250:	4b04      	ldr	r3, [pc, #16]	; (8003264 <HAL_InitTick+0x44>)
 8003252:	4620      	mov	r0, r4
 8003254:	601d      	str	r5, [r3, #0]
 8003256:	bd38      	pop	{r3, r4, r5, pc}
 8003258:	2001      	movs	r0, #1
 800325a:	e7fc      	b.n	8003256 <HAL_InitTick+0x36>
 800325c:	20000008 	.word	0x20000008
 8003260:	20000004 	.word	0x20000004
 8003264:	2000000c 	.word	0x2000000c

08003268 <HAL_Init>:
 8003268:	4a07      	ldr	r2, [pc, #28]	; (8003288 <HAL_Init+0x20>)
 800326a:	b508      	push	{r3, lr}
 800326c:	6813      	ldr	r3, [r2, #0]
 800326e:	f043 0310 	orr.w	r3, r3, #16
 8003272:	6013      	str	r3, [r2, #0]
 8003274:	2003      	movs	r0, #3
 8003276:	f000 fd5d 	bl	8003d34 <HAL_NVIC_SetPriorityGrouping>
 800327a:	2000      	movs	r0, #0
 800327c:	f7ff ffd0 	bl	8003220 <HAL_InitTick>
 8003280:	f7ff fc06 	bl	8002a90 <HAL_MspInit>
 8003284:	2000      	movs	r0, #0
 8003286:	bd08      	pop	{r3, pc}
 8003288:	40022000 	.word	0x40022000

0800328c <HAL_IncTick>:
 800328c:	4a03      	ldr	r2, [pc, #12]	; (800329c <HAL_IncTick+0x10>)
 800328e:	4b04      	ldr	r3, [pc, #16]	; (80032a0 <HAL_IncTick+0x14>)
 8003290:	6811      	ldr	r1, [r2, #0]
 8003292:	781b      	ldrb	r3, [r3, #0]
 8003294:	440b      	add	r3, r1
 8003296:	6013      	str	r3, [r2, #0]
 8003298:	4770      	bx	lr
 800329a:	bf00      	nop
 800329c:	20009868 	.word	0x20009868
 80032a0:	20000008 	.word	0x20000008

080032a4 <HAL_GetTick>:
 80032a4:	4b01      	ldr	r3, [pc, #4]	; (80032ac <HAL_GetTick+0x8>)
 80032a6:	6818      	ldr	r0, [r3, #0]
 80032a8:	4770      	bx	lr
 80032aa:	bf00      	nop
 80032ac:	20009868 	.word	0x20009868

080032b0 <HAL_Delay>:
 80032b0:	b538      	push	{r3, r4, r5, lr}
 80032b2:	4604      	mov	r4, r0
 80032b4:	f7ff fff6 	bl	80032a4 <HAL_GetTick>
 80032b8:	1c63      	adds	r3, r4, #1
 80032ba:	bf1c      	itt	ne
 80032bc:	4b05      	ldrne	r3, [pc, #20]	; (80032d4 <HAL_Delay+0x24>)
 80032be:	781b      	ldrbne	r3, [r3, #0]
 80032c0:	4605      	mov	r5, r0
 80032c2:	bf18      	it	ne
 80032c4:	18e4      	addne	r4, r4, r3
 80032c6:	f7ff ffed 	bl	80032a4 <HAL_GetTick>
 80032ca:	1b43      	subs	r3, r0, r5
 80032cc:	42a3      	cmp	r3, r4
 80032ce:	d3fa      	bcc.n	80032c6 <HAL_Delay+0x16>
 80032d0:	bd38      	pop	{r3, r4, r5, pc}
 80032d2:	bf00      	nop
 80032d4:	20000008 	.word	0x20000008

080032d8 <HAL_ADC_ConvCpltCallback>:
 80032d8:	4770      	bx	lr

080032da <HAL_ADC_ConvHalfCpltCallback>:
 80032da:	4770      	bx	lr

080032dc <HAL_ADC_ErrorCallback>:
 80032dc:	4770      	bx	lr

080032de <ADC_Disable>:
 80032de:	b538      	push	{r3, r4, r5, lr}
 80032e0:	6803      	ldr	r3, [r0, #0]
 80032e2:	4604      	mov	r4, r0
 80032e4:	6898      	ldr	r0, [r3, #8]
 80032e6:	f000 0003 	and.w	r0, r0, #3
 80032ea:	2801      	cmp	r0, #1
 80032ec:	d001      	beq.n	80032f2 <ADC_Disable+0x14>
 80032ee:	2000      	movs	r0, #0
 80032f0:	bd38      	pop	{r3, r4, r5, pc}
 80032f2:	681a      	ldr	r2, [r3, #0]
 80032f4:	07d1      	lsls	r1, r2, #31
 80032f6:	d5fa      	bpl.n	80032ee <ADC_Disable+0x10>
 80032f8:	689a      	ldr	r2, [r3, #8]
 80032fa:	f002 020d 	and.w	r2, r2, #13
 80032fe:	2a01      	cmp	r2, #1
 8003300:	d11f      	bne.n	8003342 <ADC_Disable+0x64>
 8003302:	689a      	ldr	r2, [r3, #8]
 8003304:	f042 0202 	orr.w	r2, r2, #2
 8003308:	609a      	str	r2, [r3, #8]
 800330a:	2203      	movs	r2, #3
 800330c:	601a      	str	r2, [r3, #0]
 800330e:	f7ff ffc9 	bl	80032a4 <HAL_GetTick>
 8003312:	4605      	mov	r5, r0
 8003314:	6823      	ldr	r3, [r4, #0]
 8003316:	689b      	ldr	r3, [r3, #8]
 8003318:	07db      	lsls	r3, r3, #31
 800331a:	d5e8      	bpl.n	80032ee <ADC_Disable+0x10>
 800331c:	f7ff ffc2 	bl	80032a4 <HAL_GetTick>
 8003320:	1b40      	subs	r0, r0, r5
 8003322:	2802      	cmp	r0, #2
 8003324:	d9f6      	bls.n	8003314 <ADC_Disable+0x36>
 8003326:	6823      	ldr	r3, [r4, #0]
 8003328:	689b      	ldr	r3, [r3, #8]
 800332a:	07da      	lsls	r2, r3, #31
 800332c:	d5f2      	bpl.n	8003314 <ADC_Disable+0x36>
 800332e:	6c23      	ldr	r3, [r4, #64]	; 0x40
 8003330:	f043 0310 	orr.w	r3, r3, #16
 8003334:	6423      	str	r3, [r4, #64]	; 0x40
 8003336:	6c63      	ldr	r3, [r4, #68]	; 0x44
 8003338:	f043 0301 	orr.w	r3, r3, #1
 800333c:	6463      	str	r3, [r4, #68]	; 0x44
 800333e:	2001      	movs	r0, #1
 8003340:	e7d6      	b.n	80032f0 <ADC_Disable+0x12>
 8003342:	6c23      	ldr	r3, [r4, #64]	; 0x40
 8003344:	f043 0310 	orr.w	r3, r3, #16
 8003348:	6423      	str	r3, [r4, #64]	; 0x40
 800334a:	6c63      	ldr	r3, [r4, #68]	; 0x44
 800334c:	f043 0301 	orr.w	r3, r3, #1
 8003350:	6463      	str	r3, [r4, #68]	; 0x44
 8003352:	e7cd      	b.n	80032f0 <ADC_Disable+0x12>

08003354 <ADC_ConversionStop>:
 8003354:	6803      	ldr	r3, [r0, #0]
 8003356:	689a      	ldr	r2, [r3, #8]
 8003358:	f012 0f0c 	tst.w	r2, #12
 800335c:	b570      	push	{r4, r5, r6, lr}
 800335e:	4604      	mov	r4, r0
 8003360:	d101      	bne.n	8003366 <ADC_ConversionStop+0x12>
 8003362:	2000      	movs	r0, #0
 8003364:	bd70      	pop	{r4, r5, r6, pc}
 8003366:	68da      	ldr	r2, [r3, #12]
 8003368:	0190      	lsls	r0, r2, #6
 800336a:	d525      	bpl.n	80033b8 <ADC_ConversionStop+0x64>
 800336c:	8b20      	ldrh	r0, [r4, #24]
 800336e:	f240 1201 	movw	r2, #257	; 0x101
 8003372:	4290      	cmp	r0, r2
 8003374:	d120      	bne.n	80033b8 <ADC_ConversionStop+0x64>
 8003376:	4a23      	ldr	r2, [pc, #140]	; (8003404 <ADC_ConversionStop+0xb0>)
 8003378:	6819      	ldr	r1, [r3, #0]
 800337a:	0649      	lsls	r1, r1, #25
 800337c:	d510      	bpl.n	80033a0 <ADC_ConversionStop+0x4c>
 800337e:	2240      	movs	r2, #64	; 0x40
 8003380:	601a      	str	r2, [r3, #0]
 8003382:	210c      	movs	r1, #12
 8003384:	689a      	ldr	r2, [r3, #8]
 8003386:	0752      	lsls	r2, r2, #29
 8003388:	d506      	bpl.n	8003398 <ADC_ConversionStop+0x44>
 800338a:	689a      	ldr	r2, [r3, #8]
 800338c:	0796      	lsls	r6, r2, #30
 800338e:	bf5e      	ittt	pl
 8003390:	689a      	ldrpl	r2, [r3, #8]
 8003392:	f042 0210 	orrpl.w	r2, r2, #16
 8003396:	609a      	strpl	r2, [r3, #8]
 8003398:	290c      	cmp	r1, #12
 800339a:	d10f      	bne.n	80033bc <ADC_ConversionStop+0x68>
 800339c:	2504      	movs	r5, #4
 800339e:	e01d      	b.n	80033dc <ADC_ConversionStop+0x88>
 80033a0:	3a01      	subs	r2, #1
 80033a2:	d1e9      	bne.n	8003378 <ADC_ConversionStop+0x24>
 80033a4:	6c23      	ldr	r3, [r4, #64]	; 0x40
 80033a6:	f043 0310 	orr.w	r3, r3, #16
 80033aa:	6423      	str	r3, [r4, #64]	; 0x40
 80033ac:	6c63      	ldr	r3, [r4, #68]	; 0x44
 80033ae:	f043 0301 	orr.w	r3, r3, #1
 80033b2:	6463      	str	r3, [r4, #68]	; 0x44
 80033b4:	2001      	movs	r0, #1
 80033b6:	e7d5      	b.n	8003364 <ADC_ConversionStop+0x10>
 80033b8:	2960      	cmp	r1, #96	; 0x60
 80033ba:	d1e3      	bne.n	8003384 <ADC_ConversionStop+0x30>
 80033bc:	689a      	ldr	r2, [r3, #8]
 80033be:	0710      	lsls	r0, r2, #28
 80033c0:	d506      	bpl.n	80033d0 <ADC_ConversionStop+0x7c>
 80033c2:	689a      	ldr	r2, [r3, #8]
 80033c4:	0792      	lsls	r2, r2, #30
 80033c6:	bf5e      	ittt	pl
 80033c8:	689a      	ldrpl	r2, [r3, #8]
 80033ca:	f042 0220 	orrpl.w	r2, r2, #32
 80033ce:	609a      	strpl	r2, [r3, #8]
 80033d0:	2960      	cmp	r1, #96	; 0x60
 80033d2:	d014      	beq.n	80033fe <ADC_ConversionStop+0xaa>
 80033d4:	296c      	cmp	r1, #108	; 0x6c
 80033d6:	bf14      	ite	ne
 80033d8:	2504      	movne	r5, #4
 80033da:	250c      	moveq	r5, #12
 80033dc:	f7ff ff62 	bl	80032a4 <HAL_GetTick>
 80033e0:	4606      	mov	r6, r0
 80033e2:	6823      	ldr	r3, [r4, #0]
 80033e4:	689b      	ldr	r3, [r3, #8]
 80033e6:	422b      	tst	r3, r5
 80033e8:	d0bb      	beq.n	8003362 <ADC_ConversionStop+0xe>
 80033ea:	f7ff ff5b 	bl	80032a4 <HAL_GetTick>
 80033ee:	1b80      	subs	r0, r0, r6
 80033f0:	280b      	cmp	r0, #11
 80033f2:	d9f6      	bls.n	80033e2 <ADC_ConversionStop+0x8e>
 80033f4:	6823      	ldr	r3, [r4, #0]
 80033f6:	689b      	ldr	r3, [r3, #8]
 80033f8:	422b      	tst	r3, r5
 80033fa:	d0f2      	beq.n	80033e2 <ADC_ConversionStop+0x8e>
 80033fc:	e7d2      	b.n	80033a4 <ADC_ConversionStop+0x50>
 80033fe:	2508      	movs	r5, #8
 8003400:	e7ec      	b.n	80033dc <ADC_ConversionStop+0x88>
 8003402:	bf00      	nop
 8003404:	00099401 	.word	0x00099401

08003408 <ADC_Enable>:
 8003408:	b538      	push	{r3, r4, r5, lr}
 800340a:	6803      	ldr	r3, [r0, #0]
 800340c:	689a      	ldr	r2, [r3, #8]
 800340e:	f002 0203 	and.w	r2, r2, #3
 8003412:	2a01      	cmp	r2, #1
 8003414:	4604      	mov	r4, r0
 8003416:	d104      	bne.n	8003422 <ADC_Enable+0x1a>
 8003418:	681a      	ldr	r2, [r3, #0]
 800341a:	07d1      	lsls	r1, r2, #31
 800341c:	d501      	bpl.n	8003422 <ADC_Enable+0x1a>
 800341e:	2000      	movs	r0, #0
 8003420:	bd38      	pop	{r3, r4, r5, pc}
 8003422:	6899      	ldr	r1, [r3, #8]
 8003424:	4a10      	ldr	r2, [pc, #64]	; (8003468 <ADC_Enable+0x60>)
 8003426:	4211      	tst	r1, r2
 8003428:	d009      	beq.n	800343e <ADC_Enable+0x36>
 800342a:	6c23      	ldr	r3, [r4, #64]	; 0x40
 800342c:	f043 0310 	orr.w	r3, r3, #16
 8003430:	6423      	str	r3, [r4, #64]	; 0x40
 8003432:	6c63      	ldr	r3, [r4, #68]	; 0x44
 8003434:	f043 0301 	orr.w	r3, r3, #1
 8003438:	6463      	str	r3, [r4, #68]	; 0x44
 800343a:	2001      	movs	r0, #1
 800343c:	e7f0      	b.n	8003420 <ADC_Enable+0x18>
 800343e:	689a      	ldr	r2, [r3, #8]
 8003440:	f042 0201 	orr.w	r2, r2, #1
 8003444:	609a      	str	r2, [r3, #8]
 8003446:	f7ff ff2d 	bl	80032a4 <HAL_GetTick>
 800344a:	4605      	mov	r5, r0
 800344c:	6823      	ldr	r3, [r4, #0]
 800344e:	681b      	ldr	r3, [r3, #0]
 8003450:	07db      	lsls	r3, r3, #31
 8003452:	d4e4      	bmi.n	800341e <ADC_Enable+0x16>
 8003454:	f7ff ff26 	bl	80032a4 <HAL_GetTick>
 8003458:	1b40      	subs	r0, r0, r5
 800345a:	2802      	cmp	r0, #2
 800345c:	d9f6      	bls.n	800344c <ADC_Enable+0x44>
 800345e:	6823      	ldr	r3, [r4, #0]
 8003460:	681b      	ldr	r3, [r3, #0]
 8003462:	07da      	lsls	r2, r3, #31
 8003464:	d4f2      	bmi.n	800344c <ADC_Enable+0x44>
 8003466:	e7e0      	b.n	800342a <ADC_Enable+0x22>
 8003468:	8000003f 	.word	0x8000003f

0800346c <ADC_DMAError>:
 800346c:	6a40      	ldr	r0, [r0, #36]	; 0x24
 800346e:	6c03      	ldr	r3, [r0, #64]	; 0x40
 8003470:	f043 0340 	orr.w	r3, r3, #64	; 0x40
 8003474:	6403      	str	r3, [r0, #64]	; 0x40
 8003476:	6c43      	ldr	r3, [r0, #68]	; 0x44
 8003478:	f043 0304 	orr.w	r3, r3, #4
 800347c:	6443      	str	r3, [r0, #68]	; 0x44
 800347e:	f7ff bf2d 	b.w	80032dc <HAL_ADC_ErrorCallback>

08003482 <ADC_DMAHalfConvCplt>:
 8003482:	6a40      	ldr	r0, [r0, #36]	; 0x24
 8003484:	f7ff bf29 	b.w	80032da <HAL_ADC_ConvHalfCpltCallback>

08003488 <ADC_DMAConvCplt>:
 8003488:	6a43      	ldr	r3, [r0, #36]	; 0x24
 800348a:	6c1a      	ldr	r2, [r3, #64]	; 0x40
 800348c:	f012 0f50 	tst.w	r2, #80	; 0x50
 8003490:	d118      	bne.n	80034c4 <ADC_DMAConvCplt+0x3c>
 8003492:	6c1a      	ldr	r2, [r3, #64]	; 0x40
 8003494:	f442 7200 	orr.w	r2, r2, #512	; 0x200
 8003498:	641a      	str	r2, [r3, #64]	; 0x40
 800349a:	681a      	ldr	r2, [r3, #0]
 800349c:	68d2      	ldr	r2, [r2, #12]
 800349e:	f412 6f40 	tst.w	r2, #3072	; 0xc00
 80034a2:	d10c      	bne.n	80034be <ADC_DMAConvCplt+0x36>
 80034a4:	7e5a      	ldrb	r2, [r3, #25]
 80034a6:	b952      	cbnz	r2, 80034be <ADC_DMAConvCplt+0x36>
 80034a8:	6c1a      	ldr	r2, [r3, #64]	; 0x40
 80034aa:	f422 7280 	bic.w	r2, r2, #256	; 0x100
 80034ae:	641a      	str	r2, [r3, #64]	; 0x40
 80034b0:	6c1a      	ldr	r2, [r3, #64]	; 0x40
 80034b2:	04d2      	lsls	r2, r2, #19
 80034b4:	bf5e      	ittt	pl
 80034b6:	6c1a      	ldrpl	r2, [r3, #64]	; 0x40
 80034b8:	f042 0201 	orrpl.w	r2, r2, #1
 80034bc:	641a      	strpl	r2, [r3, #64]	; 0x40
 80034be:	4618      	mov	r0, r3
 80034c0:	f7ff bf0a 	b.w	80032d8 <HAL_ADC_ConvCpltCallback>
 80034c4:	6b9b      	ldr	r3, [r3, #56]	; 0x38
 80034c6:	6b1b      	ldr	r3, [r3, #48]	; 0x30
 80034c8:	4718      	bx	r3
	...

080034cc <HAL_ADC_Init>:
 80034cc:	b537      	push	{r0, r1, r2, r4, r5, lr}
 80034ce:	2500      	movs	r5, #0
 80034d0:	9501      	str	r5, [sp, #4]
 80034d2:	4604      	mov	r4, r0
 80034d4:	2800      	cmp	r0, #0
 80034d6:	f000 811d 	beq.w	8003714 <HAL_ADC_Init+0x248>
 80034da:	6c03      	ldr	r3, [r0, #64]	; 0x40
 80034dc:	06db      	lsls	r3, r3, #27
 80034de:	d416      	bmi.n	800350e <HAL_ADC_Init+0x42>
 80034e0:	6c03      	ldr	r3, [r0, #64]	; 0x40
 80034e2:	2b00      	cmp	r3, #0
 80034e4:	f000 80b7 	beq.w	8003656 <HAL_ADC_Init+0x18a>
 80034e8:	2500      	movs	r5, #0
 80034ea:	6823      	ldr	r3, [r4, #0]
 80034ec:	689a      	ldr	r2, [r3, #8]
 80034ee:	00d2      	lsls	r2, r2, #3
 80034f0:	d502      	bpl.n	80034f8 <HAL_ADC_Init+0x2c>
 80034f2:	689b      	ldr	r3, [r3, #8]
 80034f4:	0098      	lsls	r0, r3, #2
 80034f6:	d50a      	bpl.n	800350e <HAL_ADC_Init+0x42>
 80034f8:	6c23      	ldr	r3, [r4, #64]	; 0x40
 80034fa:	f023 0312 	bic.w	r3, r3, #18
 80034fe:	f043 0310 	orr.w	r3, r3, #16
 8003502:	6423      	str	r3, [r4, #64]	; 0x40
 8003504:	6c63      	ldr	r3, [r4, #68]	; 0x44
 8003506:	f043 0301 	orr.w	r3, r3, #1
 800350a:	6463      	str	r3, [r4, #68]	; 0x44
 800350c:	2501      	movs	r5, #1
 800350e:	6c23      	ldr	r3, [r4, #64]	; 0x40
 8003510:	06d9      	lsls	r1, r3, #27
 8003512:	f100 80f9 	bmi.w	8003708 <HAL_ADC_Init+0x23c>
 8003516:	2d00      	cmp	r5, #0
 8003518:	f040 80f6 	bne.w	8003708 <HAL_ADC_Init+0x23c>
 800351c:	6823      	ldr	r3, [r4, #0]
 800351e:	689a      	ldr	r2, [r3, #8]
 8003520:	0752      	lsls	r2, r2, #29
 8003522:	f100 80f1 	bmi.w	8003708 <HAL_ADC_Init+0x23c>
 8003526:	6c22      	ldr	r2, [r4, #64]	; 0x40
 8003528:	f422 7281 	bic.w	r2, r2, #258	; 0x102
 800352c:	f042 0202 	orr.w	r2, r2, #2
 8003530:	f1b3 4fa0 	cmp.w	r3, #1342177280	; 0x50000000
 8003534:	6422      	str	r2, [r4, #64]	; 0x40
 8003536:	4a7b      	ldr	r2, [pc, #492]	; (8003724 <HAL_ADC_Init+0x258>)
 8003538:	d004      	beq.n	8003544 <HAL_ADC_Init+0x78>
 800353a:	4293      	cmp	r3, r2
 800353c:	f040 80ec 	bne.w	8003718 <HAL_ADC_Init+0x24c>
 8003540:	f04f 42a0 	mov.w	r2, #1342177280	; 0x50000000
 8003544:	4978      	ldr	r1, [pc, #480]	; (8003728 <HAL_ADC_Init+0x25c>)
 8003546:	6898      	ldr	r0, [r3, #8]
 8003548:	f000 0003 	and.w	r0, r0, #3
 800354c:	2801      	cmp	r0, #1
 800354e:	d102      	bne.n	8003556 <HAL_ADC_Init+0x8a>
 8003550:	6818      	ldr	r0, [r3, #0]
 8003552:	07c0      	lsls	r0, r0, #31
 8003554:	d40e      	bmi.n	8003574 <HAL_ADC_Init+0xa8>
 8003556:	b13a      	cbz	r2, 8003568 <HAL_ADC_Init+0x9c>
 8003558:	6890      	ldr	r0, [r2, #8]
 800355a:	f000 0003 	and.w	r0, r0, #3
 800355e:	2801      	cmp	r0, #1
 8003560:	d102      	bne.n	8003568 <HAL_ADC_Init+0x9c>
 8003562:	6812      	ldr	r2, [r2, #0]
 8003564:	07d2      	lsls	r2, r2, #31
 8003566:	d405      	bmi.n	8003574 <HAL_ADC_Init+0xa8>
 8003568:	688a      	ldr	r2, [r1, #8]
 800356a:	6860      	ldr	r0, [r4, #4]
 800356c:	f422 3240 	bic.w	r2, r2, #196608	; 0x30000
 8003570:	4302      	orrs	r2, r0
 8003572:	608a      	str	r2, [r1, #8]
 8003574:	e9d4 2102 	ldrd	r2, r1, [r4, #8]
 8003578:	4311      	orrs	r1, r2
 800357a:	6b62      	ldr	r2, [r4, #52]	; 0x34
 800357c:	7e60      	ldrb	r0, [r4, #25]
 800357e:	3a01      	subs	r2, #1
 8003580:	bf18      	it	ne
 8003582:	2201      	movne	r2, #1
 8003584:	ea41 3140 	orr.w	r1, r1, r0, lsl #13
 8003588:	ea41 3102 	orr.w	r1, r1, r2, lsl #12
 800358c:	f894 2020 	ldrb.w	r2, [r4, #32]
 8003590:	2a01      	cmp	r2, #1
 8003592:	d108      	bne.n	80035a6 <HAL_ADC_Init+0xda>
 8003594:	2800      	cmp	r0, #0
 8003596:	f040 809a 	bne.w	80036ce <HAL_ADC_Init+0x202>
 800359a:	6a62      	ldr	r2, [r4, #36]	; 0x24
 800359c:	3a01      	subs	r2, #1
 800359e:	ea41 4242 	orr.w	r2, r1, r2, lsl #17
 80035a2:	f442 3180 	orr.w	r1, r2, #65536	; 0x10000
 80035a6:	6aa2      	ldr	r2, [r4, #40]	; 0x28
 80035a8:	2a01      	cmp	r2, #1
 80035aa:	d024      	beq.n	80035f6 <HAL_ADC_Init+0x12a>
 80035ac:	485f      	ldr	r0, [pc, #380]	; (800372c <HAL_ADC_Init+0x260>)
 80035ae:	4283      	cmp	r3, r0
 80035b0:	d004      	beq.n	80035bc <HAL_ADC_Init+0xf0>
 80035b2:	f500 7080 	add.w	r0, r0, #256	; 0x100
 80035b6:	4283      	cmp	r3, r0
 80035b8:	f040 8094 	bne.w	80036e4 <HAL_ADC_Init+0x218>
 80035bc:	f5b2 7f30 	cmp.w	r2, #704	; 0x2c0
 80035c0:	f000 8093 	beq.w	80036ea <HAL_ADC_Init+0x21e>
 80035c4:	f5b2 7f80 	cmp.w	r2, #256	; 0x100
 80035c8:	f000 8092 	beq.w	80036f0 <HAL_ADC_Init+0x224>
 80035cc:	f5b2 7fe0 	cmp.w	r2, #448	; 0x1c0
 80035d0:	f000 8091 	beq.w	80036f6 <HAL_ADC_Init+0x22a>
 80035d4:	f5b2 5f8a 	cmp.w	r2, #4416	; 0x1140
 80035d8:	f000 8090 	beq.w	80036fc <HAL_ADC_Init+0x230>
 80035dc:	f5b2 5f84 	cmp.w	r2, #4224	; 0x1080
 80035e0:	f000 808f 	beq.w	8003702 <HAL_ADC_Init+0x236>
 80035e4:	f5b2 5f86 	cmp.w	r2, #4288	; 0x10c0
 80035e8:	bf08      	it	eq
 80035ea:	f44f 72c0 	moveq.w	r2, #384	; 0x180
 80035ee:	6ae0      	ldr	r0, [r4, #44]	; 0x2c
 80035f0:	4308      	orrs	r0, r1
 80035f2:	ea40 0102 	orr.w	r1, r0, r2
 80035f6:	689a      	ldr	r2, [r3, #8]
 80035f8:	f012 0f0c 	tst.w	r2, #12
 80035fc:	d10c      	bne.n	8003618 <HAL_ADC_Init+0x14c>
 80035fe:	68da      	ldr	r2, [r3, #12]
 8003600:	f422 4280 	bic.w	r2, r2, #16384	; 0x4000
 8003604:	f022 0202 	bic.w	r2, r2, #2
 8003608:	60da      	str	r2, [r3, #12]
 800360a:	f894 2030 	ldrb.w	r2, [r4, #48]	; 0x30
 800360e:	7e20      	ldrb	r0, [r4, #24]
 8003610:	0052      	lsls	r2, r2, #1
 8003612:	ea42 3280 	orr.w	r2, r2, r0, lsl #14
 8003616:	4311      	orrs	r1, r2
 8003618:	68d8      	ldr	r0, [r3, #12]
 800361a:	4a45      	ldr	r2, [pc, #276]	; (8003730 <HAL_ADC_Init+0x264>)
 800361c:	4002      	ands	r2, r0
 800361e:	430a      	orrs	r2, r1
 8003620:	60da      	str	r2, [r3, #12]
 8003622:	6922      	ldr	r2, [r4, #16]
 8003624:	2a01      	cmp	r2, #1
 8003626:	bf05      	ittet	eq
 8003628:	6b19      	ldreq	r1, [r3, #48]	; 0x30
 800362a:	69e2      	ldreq	r2, [r4, #28]
 800362c:	6b1a      	ldrne	r2, [r3, #48]	; 0x30
 800362e:	f102 32ff 	addeq.w	r2, r2, #4294967295
 8003632:	bf06      	itte	eq
 8003634:	f021 010f 	biceq.w	r1, r1, #15
 8003638:	430a      	orreq	r2, r1
 800363a:	f022 020f 	bicne.w	r2, r2, #15
 800363e:	631a      	str	r2, [r3, #48]	; 0x30
 8003640:	2300      	movs	r3, #0
 8003642:	6463      	str	r3, [r4, #68]	; 0x44
 8003644:	6c23      	ldr	r3, [r4, #64]	; 0x40
 8003646:	f023 0303 	bic.w	r3, r3, #3
 800364a:	f043 0301 	orr.w	r3, r3, #1
 800364e:	6423      	str	r3, [r4, #64]	; 0x40
 8003650:	4628      	mov	r0, r5
 8003652:	b003      	add	sp, #12
 8003654:	bd30      	pop	{r4, r5, pc}
 8003656:	e9c0 3312 	strd	r3, r3, [r0, #72]	; 0x48
 800365a:	6443      	str	r3, [r0, #68]	; 0x44
 800365c:	f880 303c 	strb.w	r3, [r0, #60]	; 0x3c
 8003660:	f7ff fa30 	bl	8002ac4 <HAL_ADC_MspInit>
 8003664:	6823      	ldr	r3, [r4, #0]
 8003666:	689b      	ldr	r3, [r3, #8]
 8003668:	00d8      	lsls	r0, r3, #3
 800366a:	f53f af3d 	bmi.w	80034e8 <HAL_ADC_Init+0x1c>
 800366e:	4620      	mov	r0, r4
 8003670:	f7ff fe35 	bl	80032de <ADC_Disable>
 8003674:	6c23      	ldr	r3, [r4, #64]	; 0x40
 8003676:	06d9      	lsls	r1, r3, #27
 8003678:	4605      	mov	r5, r0
 800367a:	f53f af36 	bmi.w	80034ea <HAL_ADC_Init+0x1e>
 800367e:	2800      	cmp	r0, #0
 8003680:	f47f af33 	bne.w	80034ea <HAL_ADC_Init+0x1e>
 8003684:	6c23      	ldr	r3, [r4, #64]	; 0x40
 8003686:	6822      	ldr	r2, [r4, #0]
 8003688:	f423 5388 	bic.w	r3, r3, #4352	; 0x1100
 800368c:	f023 0302 	bic.w	r3, r3, #2
 8003690:	f043 0302 	orr.w	r3, r3, #2
 8003694:	6423      	str	r3, [r4, #64]	; 0x40
 8003696:	6893      	ldr	r3, [r2, #8]
 8003698:	f023 5340 	bic.w	r3, r3, #805306368	; 0x30000000
 800369c:	6093      	str	r3, [r2, #8]
 800369e:	6893      	ldr	r3, [r2, #8]
 80036a0:	f043 5380 	orr.w	r3, r3, #268435456	; 0x10000000
 80036a4:	6093      	str	r3, [r2, #8]
 80036a6:	4b23      	ldr	r3, [pc, #140]	; (8003734 <HAL_ADC_Init+0x268>)
 80036a8:	4a23      	ldr	r2, [pc, #140]	; (8003738 <HAL_ADC_Init+0x26c>)
 80036aa:	681b      	ldr	r3, [r3, #0]
 80036ac:	fbb3 f3f2 	udiv	r3, r3, r2
 80036b0:	220a      	movs	r2, #10
 80036b2:	4353      	muls	r3, r2
 80036b4:	9301      	str	r3, [sp, #4]
 80036b6:	9b01      	ldr	r3, [sp, #4]
 80036b8:	2b00      	cmp	r3, #0
 80036ba:	f43f af15 	beq.w	80034e8 <HAL_ADC_Init+0x1c>
 80036be:	9b01      	ldr	r3, [sp, #4]
 80036c0:	3b01      	subs	r3, #1
 80036c2:	e7f7      	b.n	80036b4 <HAL_ADC_Init+0x1e8>
 80036c4:	428b      	cmp	r3, r1
 80036c6:	bf18      	it	ne
 80036c8:	2200      	movne	r2, #0
 80036ca:	491c      	ldr	r1, [pc, #112]	; (800373c <HAL_ADC_Init+0x270>)
 80036cc:	e73b      	b.n	8003546 <HAL_ADC_Init+0x7a>
 80036ce:	6c22      	ldr	r2, [r4, #64]	; 0x40
 80036d0:	f022 0222 	bic.w	r2, r2, #34	; 0x22
 80036d4:	f042 0220 	orr.w	r2, r2, #32
 80036d8:	6422      	str	r2, [r4, #64]	; 0x40
 80036da:	6c62      	ldr	r2, [r4, #68]	; 0x44
 80036dc:	f042 0201 	orr.w	r2, r2, #1
 80036e0:	6462      	str	r2, [r4, #68]	; 0x44
 80036e2:	e760      	b.n	80035a6 <HAL_ADC_Init+0xda>
 80036e4:	f422 5280 	bic.w	r2, r2, #4096	; 0x1000
 80036e8:	e781      	b.n	80035ee <HAL_ADC_Init+0x122>
 80036ea:	f44f 72e0 	mov.w	r2, #448	; 0x1c0
 80036ee:	e77e      	b.n	80035ee <HAL_ADC_Init+0x122>
 80036f0:	f44f 7230 	mov.w	r2, #704	; 0x2c0
 80036f4:	e77b      	b.n	80035ee <HAL_ADC_Init+0x122>
 80036f6:	f44f 7280 	mov.w	r2, #256	; 0x100
 80036fa:	e778      	b.n	80035ee <HAL_ADC_Init+0x122>
 80036fc:	f44f 7270 	mov.w	r2, #960	; 0x3c0
 8003700:	e775      	b.n	80035ee <HAL_ADC_Init+0x122>
 8003702:	f44f 72a0 	mov.w	r2, #320	; 0x140
 8003706:	e772      	b.n	80035ee <HAL_ADC_Init+0x122>
 8003708:	6c23      	ldr	r3, [r4, #64]	; 0x40
 800370a:	f023 0312 	bic.w	r3, r3, #18
 800370e:	f043 0310 	orr.w	r3, r3, #16
 8003712:	6423      	str	r3, [r4, #64]	; 0x40
 8003714:	2501      	movs	r5, #1
 8003716:	e79b      	b.n	8003650 <HAL_ADC_Init+0x184>
 8003718:	4a04      	ldr	r2, [pc, #16]	; (800372c <HAL_ADC_Init+0x260>)
 800371a:	4909      	ldr	r1, [pc, #36]	; (8003740 <HAL_ADC_Init+0x274>)
 800371c:	4293      	cmp	r3, r2
 800371e:	d1d1      	bne.n	80036c4 <HAL_ADC_Init+0x1f8>
 8003720:	460a      	mov	r2, r1
 8003722:	e7d2      	b.n	80036ca <HAL_ADC_Init+0x1fe>
 8003724:	50000100 	.word	0x50000100
 8003728:	50000300 	.word	0x50000300
 800372c:	50000400 	.word	0x50000400
 8003730:	fff0c007 	.word	0xfff0c007
 8003734:	20000004 	.word	0x20000004
 8003738:	000f4240 	.word	0x000f4240
 800373c:	50000700 	.word	0x50000700
 8003740:	50000500 	.word	0x50000500

08003744 <HAL_ADC_Start_DMA>:
 8003744:	b5f7      	push	{r0, r1, r2, r4, r5, r6, r7, lr}
 8003746:	4613      	mov	r3, r2
 8003748:	6802      	ldr	r2, [r0, #0]
 800374a:	460f      	mov	r7, r1
 800374c:	6891      	ldr	r1, [r2, #8]
 800374e:	0749      	lsls	r1, r1, #29
 8003750:	4604      	mov	r4, r0
 8003752:	f100 8090 	bmi.w	8003876 <HAL_ADC_Start_DMA+0x132>
 8003756:	f890 103c 	ldrb.w	r1, [r0, #60]	; 0x3c
 800375a:	2901      	cmp	r1, #1
 800375c:	f000 808b 	beq.w	8003876 <HAL_ADC_Start_DMA+0x132>
 8003760:	2101      	movs	r1, #1
 8003762:	f1b2 4fa0 	cmp.w	r2, #1342177280	; 0x50000000
 8003766:	f880 103c 	strb.w	r1, [r0, #60]	; 0x3c
 800376a:	d002      	beq.n	8003772 <HAL_ADC_Start_DMA+0x2e>
 800376c:	4943      	ldr	r1, [pc, #268]	; (800387c <HAL_ADC_Start_DMA+0x138>)
 800376e:	428a      	cmp	r2, r1
 8003770:	d15c      	bne.n	800382c <HAL_ADC_Start_DMA+0xe8>
 8003772:	4a43      	ldr	r2, [pc, #268]	; (8003880 <HAL_ADC_Start_DMA+0x13c>)
 8003774:	6892      	ldr	r2, [r2, #8]
 8003776:	f012 0f1f 	tst.w	r2, #31
 800377a:	bf0c      	ite	eq
 800377c:	2201      	moveq	r2, #1
 800377e:	2200      	movne	r2, #0
 8003780:	2a00      	cmp	r2, #0
 8003782:	d074      	beq.n	800386e <HAL_ADC_Start_DMA+0x12a>
 8003784:	4620      	mov	r0, r4
 8003786:	9301      	str	r3, [sp, #4]
 8003788:	f7ff fe3e 	bl	8003408 <ADC_Enable>
 800378c:	4606      	mov	r6, r0
 800378e:	2800      	cmp	r0, #0
 8003790:	d169      	bne.n	8003866 <HAL_ADC_Start_DMA+0x122>
 8003792:	6c20      	ldr	r0, [r4, #64]	; 0x40
 8003794:	6825      	ldr	r5, [r4, #0]
 8003796:	9b01      	ldr	r3, [sp, #4]
 8003798:	f420 6070 	bic.w	r0, r0, #3840	; 0xf00
 800379c:	f020 0001 	bic.w	r0, r0, #1
 80037a0:	f440 7080 	orr.w	r0, r0, #256	; 0x100
 80037a4:	f1b5 4fa0 	cmp.w	r5, #1342177280	; 0x50000000
 80037a8:	6420      	str	r0, [r4, #64]	; 0x40
 80037aa:	d002      	beq.n	80037b2 <HAL_ADC_Start_DMA+0x6e>
 80037ac:	4a33      	ldr	r2, [pc, #204]	; (800387c <HAL_ADC_Start_DMA+0x138>)
 80037ae:	4295      	cmp	r5, r2
 80037b0:	d13e      	bne.n	8003830 <HAL_ADC_Start_DMA+0xec>
 80037b2:	4a33      	ldr	r2, [pc, #204]	; (8003880 <HAL_ADC_Start_DMA+0x13c>)
 80037b4:	6892      	ldr	r2, [r2, #8]
 80037b6:	06d2      	lsls	r2, r2, #27
 80037b8:	d002      	beq.n	80037c0 <HAL_ADC_Start_DMA+0x7c>
 80037ba:	f1b5 4fa0 	cmp.w	r5, #1342177280	; 0x50000000
 80037be:	d13b      	bne.n	8003838 <HAL_ADC_Start_DMA+0xf4>
 80037c0:	6c22      	ldr	r2, [r4, #64]	; 0x40
 80037c2:	f422 1280 	bic.w	r2, r2, #1048576	; 0x100000
 80037c6:	6422      	str	r2, [r4, #64]	; 0x40
 80037c8:	68ea      	ldr	r2, [r5, #12]
 80037ca:	0191      	lsls	r1, r2, #6
 80037cc:	d505      	bpl.n	80037da <HAL_ADC_Start_DMA+0x96>
 80037ce:	6c22      	ldr	r2, [r4, #64]	; 0x40
 80037d0:	f422 5240 	bic.w	r2, r2, #12288	; 0x3000
 80037d4:	f442 5280 	orr.w	r2, r2, #4096	; 0x1000
 80037d8:	6422      	str	r2, [r4, #64]	; 0x40
 80037da:	6c22      	ldr	r2, [r4, #64]	; 0x40
 80037dc:	6ba0      	ldr	r0, [r4, #56]	; 0x38
 80037de:	f412 5280 	ands.w	r2, r2, #4096	; 0x1000
 80037e2:	bf1c      	itt	ne
 80037e4:	6c62      	ldrne	r2, [r4, #68]	; 0x44
 80037e6:	f022 0206 	bicne.w	r2, r2, #6
 80037ea:	6462      	str	r2, [r4, #68]	; 0x44
 80037ec:	2200      	movs	r2, #0
 80037ee:	f884 203c 	strb.w	r2, [r4, #60]	; 0x3c
 80037f2:	4a24      	ldr	r2, [pc, #144]	; (8003884 <HAL_ADC_Start_DMA+0x140>)
 80037f4:	6282      	str	r2, [r0, #40]	; 0x28
 80037f6:	4a24      	ldr	r2, [pc, #144]	; (8003888 <HAL_ADC_Start_DMA+0x144>)
 80037f8:	62c2      	str	r2, [r0, #44]	; 0x2c
 80037fa:	4a24      	ldr	r2, [pc, #144]	; (800388c <HAL_ADC_Start_DMA+0x148>)
 80037fc:	6302      	str	r2, [r0, #48]	; 0x30
 80037fe:	221c      	movs	r2, #28
 8003800:	602a      	str	r2, [r5, #0]
 8003802:	686a      	ldr	r2, [r5, #4]
 8003804:	f042 0210 	orr.w	r2, r2, #16
 8003808:	606a      	str	r2, [r5, #4]
 800380a:	68ea      	ldr	r2, [r5, #12]
 800380c:	f042 0201 	orr.w	r2, r2, #1
 8003810:	60ea      	str	r2, [r5, #12]
 8003812:	f105 0140 	add.w	r1, r5, #64	; 0x40
 8003816:	463a      	mov	r2, r7
 8003818:	f000 fc08 	bl	800402c <HAL_DMA_Start_IT>
 800381c:	6822      	ldr	r2, [r4, #0]
 800381e:	6893      	ldr	r3, [r2, #8]
 8003820:	f043 0304 	orr.w	r3, r3, #4
 8003824:	6093      	str	r3, [r2, #8]
 8003826:	4630      	mov	r0, r6
 8003828:	b003      	add	sp, #12
 800382a:	bdf0      	pop	{r4, r5, r6, r7, pc}
 800382c:	4a18      	ldr	r2, [pc, #96]	; (8003890 <HAL_ADC_Start_DMA+0x14c>)
 800382e:	e7a1      	b.n	8003774 <HAL_ADC_Start_DMA+0x30>
 8003830:	4a17      	ldr	r2, [pc, #92]	; (8003890 <HAL_ADC_Start_DMA+0x14c>)
 8003832:	6892      	ldr	r2, [r2, #8]
 8003834:	06d0      	lsls	r0, r2, #27
 8003836:	d0c3      	beq.n	80037c0 <HAL_ADC_Start_DMA+0x7c>
 8003838:	4916      	ldr	r1, [pc, #88]	; (8003894 <HAL_ADC_Start_DMA+0x150>)
 800383a:	428d      	cmp	r5, r1
 800383c:	d0c0      	beq.n	80037c0 <HAL_ADC_Start_DMA+0x7c>
 800383e:	6c22      	ldr	r2, [r4, #64]	; 0x40
 8003840:	f442 1280 	orr.w	r2, r2, #1048576	; 0x100000
 8003844:	6422      	str	r2, [r4, #64]	; 0x40
 8003846:	4a0d      	ldr	r2, [pc, #52]	; (800387c <HAL_ADC_Start_DMA+0x138>)
 8003848:	4295      	cmp	r5, r2
 800384a:	bf0a      	itet	eq
 800384c:	f04f 42a0 	moveq.w	r2, #1342177280	; 0x50000000
 8003850:	68ca      	ldrne	r2, [r1, #12]
 8003852:	68d2      	ldreq	r2, [r2, #12]
 8003854:	0192      	lsls	r2, r2, #6
 8003856:	bf41      	itttt	mi
 8003858:	6c20      	ldrmi	r0, [r4, #64]	; 0x40
 800385a:	f420 5040 	bicmi.w	r0, r0, #12288	; 0x3000
 800385e:	f440 5080 	orrmi.w	r0, r0, #4096	; 0x1000
 8003862:	6420      	strmi	r0, [r4, #64]	; 0x40
 8003864:	e7b9      	b.n	80037da <HAL_ADC_Start_DMA+0x96>
 8003866:	2300      	movs	r3, #0
 8003868:	f884 303c 	strb.w	r3, [r4, #60]	; 0x3c
 800386c:	e7db      	b.n	8003826 <HAL_ADC_Start_DMA+0xe2>
 800386e:	f884 203c 	strb.w	r2, [r4, #60]	; 0x3c
 8003872:	2601      	movs	r6, #1
 8003874:	e7d7      	b.n	8003826 <HAL_ADC_Start_DMA+0xe2>
 8003876:	2602      	movs	r6, #2
 8003878:	e7d5      	b.n	8003826 <HAL_ADC_Start_DMA+0xe2>
 800387a:	bf00      	nop
 800387c:	50000100 	.word	0x50000100
 8003880:	50000300 	.word	0x50000300
 8003884:	08003489 	.word	0x08003489
 8003888:	08003483 	.word	0x08003483
 800388c:	0800346d 	.word	0x0800346d
 8003890:	50000700 	.word	0x50000700
 8003894:	50000400 	.word	0x50000400

08003898 <HAL_ADC_Stop_DMA>:
 8003898:	b538      	push	{r3, r4, r5, lr}
 800389a:	f890 303c 	ldrb.w	r3, [r0, #60]	; 0x3c
 800389e:	2b01      	cmp	r3, #1
 80038a0:	4605      	mov	r5, r0
 80038a2:	d035      	beq.n	8003910 <HAL_ADC_Stop_DMA+0x78>
 80038a4:	2301      	movs	r3, #1
 80038a6:	f880 303c 	strb.w	r3, [r0, #60]	; 0x3c
 80038aa:	216c      	movs	r1, #108	; 0x6c
 80038ac:	f7ff fd52 	bl	8003354 <ADC_ConversionStop>
 80038b0:	4604      	mov	r4, r0
 80038b2:	b9e0      	cbnz	r0, 80038ee <HAL_ADC_Stop_DMA+0x56>
 80038b4:	682a      	ldr	r2, [r5, #0]
 80038b6:	6ba8      	ldr	r0, [r5, #56]	; 0x38
 80038b8:	68d3      	ldr	r3, [r2, #12]
 80038ba:	f023 0301 	bic.w	r3, r3, #1
 80038be:	60d3      	str	r3, [r2, #12]
 80038c0:	f890 3021 	ldrb.w	r3, [r0, #33]	; 0x21
 80038c4:	2b02      	cmp	r3, #2
 80038c6:	d107      	bne.n	80038d8 <HAL_ADC_Stop_DMA+0x40>
 80038c8:	f000 fbec 	bl	80040a4 <HAL_DMA_Abort>
 80038cc:	4604      	mov	r4, r0
 80038ce:	b118      	cbz	r0, 80038d8 <HAL_ADC_Stop_DMA+0x40>
 80038d0:	6c2b      	ldr	r3, [r5, #64]	; 0x40
 80038d2:	f043 0340 	orr.w	r3, r3, #64	; 0x40
 80038d6:	642b      	str	r3, [r5, #64]	; 0x40
 80038d8:	682a      	ldr	r2, [r5, #0]
 80038da:	6853      	ldr	r3, [r2, #4]
 80038dc:	f023 0310 	bic.w	r3, r3, #16
 80038e0:	6053      	str	r3, [r2, #4]
 80038e2:	4628      	mov	r0, r5
 80038e4:	b944      	cbnz	r4, 80038f8 <HAL_ADC_Stop_DMA+0x60>
 80038e6:	f7ff fcfa 	bl	80032de <ADC_Disable>
 80038ea:	4604      	mov	r4, r0
 80038ec:	b138      	cbz	r0, 80038fe <HAL_ADC_Stop_DMA+0x66>
 80038ee:	2300      	movs	r3, #0
 80038f0:	f885 303c 	strb.w	r3, [r5, #60]	; 0x3c
 80038f4:	4620      	mov	r0, r4
 80038f6:	bd38      	pop	{r3, r4, r5, pc}
 80038f8:	f7ff fcf1 	bl	80032de <ADC_Disable>
 80038fc:	e7f7      	b.n	80038ee <HAL_ADC_Stop_DMA+0x56>
 80038fe:	6c2b      	ldr	r3, [r5, #64]	; 0x40
 8003900:	f423 5388 	bic.w	r3, r3, #4352	; 0x1100
 8003904:	f023 0301 	bic.w	r3, r3, #1
 8003908:	f043 0301 	orr.w	r3, r3, #1
 800390c:	642b      	str	r3, [r5, #64]	; 0x40
 800390e:	e7ee      	b.n	80038ee <HAL_ADC_Stop_DMA+0x56>
 8003910:	2402      	movs	r4, #2
 8003912:	e7ef      	b.n	80038f4 <HAL_ADC_Stop_DMA+0x5c>

08003914 <HAL_ADC_ConfigChannel>:
 8003914:	b5f7      	push	{r0, r1, r2, r4, r5, r6, r7, lr}
 8003916:	2300      	movs	r3, #0
 8003918:	9301      	str	r3, [sp, #4]
 800391a:	f890 303c 	ldrb.w	r3, [r0, #60]	; 0x3c
 800391e:	68ce      	ldr	r6, [r1, #12]
 8003920:	2b01      	cmp	r3, #1
 8003922:	4605      	mov	r5, r0
 8003924:	f000 8172 	beq.w	8003c0c <HAL_ADC_ConfigChannel+0x2f8>
 8003928:	682b      	ldr	r3, [r5, #0]
 800392a:	2001      	movs	r0, #1
 800392c:	f885 003c 	strb.w	r0, [r5, #60]	; 0x3c
 8003930:	689a      	ldr	r2, [r3, #8]
 8003932:	0752      	lsls	r2, r2, #29
 8003934:	f100 8165 	bmi.w	8003c02 <HAL_ADC_ConfigChannel+0x2ee>
 8003938:	6848      	ldr	r0, [r1, #4]
 800393a:	680c      	ldr	r4, [r1, #0]
 800393c:	2206      	movs	r2, #6
 800393e:	2804      	cmp	r0, #4
 8003940:	fb00 f202 	mul.w	r2, r0, r2
 8003944:	d82c      	bhi.n	80039a0 <HAL_ADC_ConfigChannel+0x8c>
 8003946:	6b18      	ldr	r0, [r3, #48]	; 0x30
 8003948:	271f      	movs	r7, #31
 800394a:	4097      	lsls	r7, r2
 800394c:	ea20 0007 	bic.w	r0, r0, r7
 8003950:	fa04 f202 	lsl.w	r2, r4, r2
 8003954:	4302      	orrs	r2, r0
 8003956:	631a      	str	r2, [r3, #48]	; 0x30
 8003958:	689a      	ldr	r2, [r3, #8]
 800395a:	f012 0f0c 	tst.w	r2, #12
 800395e:	d158      	bne.n	8003a12 <HAL_ADC_ConfigChannel+0xfe>
 8003960:	2c09      	cmp	r4, #9
 8003962:	f8d1 c008 	ldr.w	ip, [r1, #8]
 8003966:	eb04 0244 	add.w	r2, r4, r4, lsl #1
 800396a:	f04f 0007 	mov.w	r0, #7
 800396e:	d93c      	bls.n	80039ea <HAL_ADC_ConfigChannel+0xd6>
 8003970:	699f      	ldr	r7, [r3, #24]
 8003972:	3a1e      	subs	r2, #30
 8003974:	4090      	lsls	r0, r2
 8003976:	ea27 0000 	bic.w	r0, r7, r0
 800397a:	fa0c f202 	lsl.w	r2, ip, r2
 800397e:	4302      	orrs	r2, r0
 8003980:	619a      	str	r2, [r3, #24]
 8003982:	68da      	ldr	r2, [r3, #12]
 8003984:	6948      	ldr	r0, [r1, #20]
 8003986:	f3c2 02c1 	ubfx	r2, r2, #3, #2
 800398a:	0052      	lsls	r2, r2, #1
 800398c:	4090      	lsls	r0, r2
 800398e:	690a      	ldr	r2, [r1, #16]
 8003990:	3a01      	subs	r2, #1
 8003992:	06a7      	lsls	r7, r4, #26
 8003994:	2a03      	cmp	r2, #3
 8003996:	d86b      	bhi.n	8003a70 <HAL_ADC_ConfigChannel+0x15c>
 8003998:	e8df f002 	tbb	[pc, r2]
 800399c:	5f544931 	.word	0x5f544931
 80039a0:	2809      	cmp	r0, #9
 80039a2:	d80a      	bhi.n	80039ba <HAL_ADC_ConfigChannel+0xa6>
 80039a4:	6b58      	ldr	r0, [r3, #52]	; 0x34
 80039a6:	3a1e      	subs	r2, #30
 80039a8:	271f      	movs	r7, #31
 80039aa:	4097      	lsls	r7, r2
 80039ac:	ea20 0007 	bic.w	r0, r0, r7
 80039b0:	fa04 f202 	lsl.w	r2, r4, r2
 80039b4:	4302      	orrs	r2, r0
 80039b6:	635a      	str	r2, [r3, #52]	; 0x34
 80039b8:	e7ce      	b.n	8003958 <HAL_ADC_ConfigChannel+0x44>
 80039ba:	280e      	cmp	r0, #14
 80039bc:	f04f 001f 	mov.w	r0, #31
 80039c0:	d809      	bhi.n	80039d6 <HAL_ADC_ConfigChannel+0xc2>
 80039c2:	6b9f      	ldr	r7, [r3, #56]	; 0x38
 80039c4:	3a3c      	subs	r2, #60	; 0x3c
 80039c6:	4090      	lsls	r0, r2
 80039c8:	ea27 0000 	bic.w	r0, r7, r0
 80039cc:	fa04 f202 	lsl.w	r2, r4, r2
 80039d0:	4302      	orrs	r2, r0
 80039d2:	639a      	str	r2, [r3, #56]	; 0x38
 80039d4:	e7c0      	b.n	8003958 <HAL_ADC_ConfigChannel+0x44>
 80039d6:	6bdf      	ldr	r7, [r3, #60]	; 0x3c
 80039d8:	3a5a      	subs	r2, #90	; 0x5a
 80039da:	4090      	lsls	r0, r2
 80039dc:	ea27 0000 	bic.w	r0, r7, r0
 80039e0:	fa04 f202 	lsl.w	r2, r4, r2
 80039e4:	4302      	orrs	r2, r0
 80039e6:	63da      	str	r2, [r3, #60]	; 0x3c
 80039e8:	e7b6      	b.n	8003958 <HAL_ADC_ConfigChannel+0x44>
 80039ea:	695f      	ldr	r7, [r3, #20]
 80039ec:	4090      	lsls	r0, r2
 80039ee:	ea27 0000 	bic.w	r0, r7, r0
 80039f2:	fa0c fc02 	lsl.w	ip, ip, r2
 80039f6:	ea40 000c 	orr.w	r0, r0, ip
 80039fa:	6158      	str	r0, [r3, #20]
 80039fc:	e7c1      	b.n	8003982 <HAL_ADC_ConfigChannel+0x6e>
 80039fe:	f8d3 c060 	ldr.w	ip, [r3, #96]	; 0x60
 8003a02:	4a83      	ldr	r2, [pc, #524]	; (8003c10 <HAL_ADC_ConfigChannel+0x2fc>)
 8003a04:	ea0c 0202 	and.w	r2, ip, r2
 8003a08:	433a      	orrs	r2, r7
 8003a0a:	4302      	orrs	r2, r0
 8003a0c:	f042 4200 	orr.w	r2, r2, #2147483648	; 0x80000000
 8003a10:	661a      	str	r2, [r3, #96]	; 0x60
 8003a12:	689a      	ldr	r2, [r3, #8]
 8003a14:	f002 0203 	and.w	r2, r2, #3
 8003a18:	2a01      	cmp	r2, #1
 8003a1a:	d14d      	bne.n	8003ab8 <HAL_ADC_ConfigChannel+0x1a4>
 8003a1c:	681a      	ldr	r2, [r3, #0]
 8003a1e:	07d7      	lsls	r7, r2, #31
 8003a20:	d54a      	bpl.n	8003ab8 <HAL_ADC_ConfigChannel+0x1a4>
 8003a22:	2000      	movs	r0, #0
 8003a24:	2300      	movs	r3, #0
 8003a26:	f885 303c 	strb.w	r3, [r5, #60]	; 0x3c
 8003a2a:	b003      	add	sp, #12
 8003a2c:	bdf0      	pop	{r4, r5, r6, r7, pc}
 8003a2e:	f8d3 c064 	ldr.w	ip, [r3, #100]	; 0x64
 8003a32:	4a77      	ldr	r2, [pc, #476]	; (8003c10 <HAL_ADC_ConfigChannel+0x2fc>)
 8003a34:	ea0c 0202 	and.w	r2, ip, r2
 8003a38:	433a      	orrs	r2, r7
 8003a3a:	4302      	orrs	r2, r0
 8003a3c:	f042 4200 	orr.w	r2, r2, #2147483648	; 0x80000000
 8003a40:	665a      	str	r2, [r3, #100]	; 0x64
 8003a42:	e7e6      	b.n	8003a12 <HAL_ADC_ConfigChannel+0xfe>
 8003a44:	f8d3 c068 	ldr.w	ip, [r3, #104]	; 0x68
 8003a48:	4a71      	ldr	r2, [pc, #452]	; (8003c10 <HAL_ADC_ConfigChannel+0x2fc>)
 8003a4a:	ea0c 0202 	and.w	r2, ip, r2
 8003a4e:	433a      	orrs	r2, r7
 8003a50:	4302      	orrs	r2, r0
 8003a52:	f042 4200 	orr.w	r2, r2, #2147483648	; 0x80000000
 8003a56:	669a      	str	r2, [r3, #104]	; 0x68
 8003a58:	e7db      	b.n	8003a12 <HAL_ADC_ConfigChannel+0xfe>
 8003a5a:	f8d3 c06c 	ldr.w	ip, [r3, #108]	; 0x6c
 8003a5e:	4a6c      	ldr	r2, [pc, #432]	; (8003c10 <HAL_ADC_ConfigChannel+0x2fc>)
 8003a60:	ea0c 0202 	and.w	r2, ip, r2
 8003a64:	433a      	orrs	r2, r7
 8003a66:	4302      	orrs	r2, r0
 8003a68:	f042 4200 	orr.w	r2, r2, #2147483648	; 0x80000000
 8003a6c:	66da      	str	r2, [r3, #108]	; 0x6c
 8003a6e:	e7d0      	b.n	8003a12 <HAL_ADC_ConfigChannel+0xfe>
 8003a70:	6e1a      	ldr	r2, [r3, #96]	; 0x60
 8003a72:	f002 42f8 	and.w	r2, r2, #2080374784	; 0x7c000000
 8003a76:	4297      	cmp	r7, r2
 8003a78:	bf02      	ittt	eq
 8003a7a:	6e1a      	ldreq	r2, [r3, #96]	; 0x60
 8003a7c:	f022 4200 	biceq.w	r2, r2, #2147483648	; 0x80000000
 8003a80:	661a      	streq	r2, [r3, #96]	; 0x60
 8003a82:	6e5a      	ldr	r2, [r3, #100]	; 0x64
 8003a84:	f002 42f8 	and.w	r2, r2, #2080374784	; 0x7c000000
 8003a88:	4297      	cmp	r7, r2
 8003a8a:	bf02      	ittt	eq
 8003a8c:	6e5a      	ldreq	r2, [r3, #100]	; 0x64
 8003a8e:	f022 4200 	biceq.w	r2, r2, #2147483648	; 0x80000000
 8003a92:	665a      	streq	r2, [r3, #100]	; 0x64
 8003a94:	6e9a      	ldr	r2, [r3, #104]	; 0x68
 8003a96:	f002 42f8 	and.w	r2, r2, #2080374784	; 0x7c000000
 8003a9a:	4297      	cmp	r7, r2
 8003a9c:	bf02      	ittt	eq
 8003a9e:	6e9a      	ldreq	r2, [r3, #104]	; 0x68
 8003aa0:	f022 4200 	biceq.w	r2, r2, #2147483648	; 0x80000000
 8003aa4:	669a      	streq	r2, [r3, #104]	; 0x68
 8003aa6:	6eda      	ldr	r2, [r3, #108]	; 0x6c
 8003aa8:	f002 42f8 	and.w	r2, r2, #2080374784	; 0x7c000000
 8003aac:	4297      	cmp	r7, r2
 8003aae:	d1b0      	bne.n	8003a12 <HAL_ADC_ConfigChannel+0xfe>
 8003ab0:	6eda      	ldr	r2, [r3, #108]	; 0x6c
 8003ab2:	f022 4200 	bic.w	r2, r2, #2147483648	; 0x80000000
 8003ab6:	e7d9      	b.n	8003a6c <HAL_ADC_ConfigChannel+0x158>
 8003ab8:	2201      	movs	r2, #1
 8003aba:	2e01      	cmp	r6, #1
 8003abc:	fa02 f204 	lsl.w	r2, r2, r4
 8003ac0:	d00a      	beq.n	8003ad8 <HAL_ADC_ConfigChannel+0x1c4>
 8003ac2:	f8d3 10b0 	ldr.w	r1, [r3, #176]	; 0xb0
 8003ac6:	ea21 0202 	bic.w	r2, r1, r2
 8003aca:	f8c3 20b0 	str.w	r2, [r3, #176]	; 0xb0
 8003ace:	f1b3 4fa0 	cmp.w	r3, #1342177280	; 0x50000000
 8003ad2:	d127      	bne.n	8003b24 <HAL_ADC_ConfigChannel+0x210>
 8003ad4:	494f      	ldr	r1, [pc, #316]	; (8003c14 <HAL_ADC_ConfigChannel+0x300>)
 8003ad6:	e02b      	b.n	8003b30 <HAL_ADC_ConfigChannel+0x21c>
 8003ad8:	f8d3 00b0 	ldr.w	r0, [r3, #176]	; 0xb0
 8003adc:	2c09      	cmp	r4, #9
 8003ade:	ea42 0200 	orr.w	r2, r2, r0
 8003ae2:	f8c3 20b0 	str.w	r2, [r3, #176]	; 0xb0
 8003ae6:	6888      	ldr	r0, [r1, #8]
 8003ae8:	d90c      	bls.n	8003b04 <HAL_ADC_ConfigChannel+0x1f0>
 8003aea:	eb04 0244 	add.w	r2, r4, r4, lsl #1
 8003aee:	6999      	ldr	r1, [r3, #24]
 8003af0:	3a1b      	subs	r2, #27
 8003af2:	2607      	movs	r6, #7
 8003af4:	4096      	lsls	r6, r2
 8003af6:	ea21 0106 	bic.w	r1, r1, r6
 8003afa:	fa00 f202 	lsl.w	r2, r0, r2
 8003afe:	430a      	orrs	r2, r1
 8003b00:	619a      	str	r2, [r3, #24]
 8003b02:	e7e4      	b.n	8003ace <HAL_ADC_ConfigChannel+0x1ba>
 8003b04:	1c61      	adds	r1, r4, #1
 8003b06:	695a      	ldr	r2, [r3, #20]
 8003b08:	eb01 0141 	add.w	r1, r1, r1, lsl #1
 8003b0c:	2607      	movs	r6, #7
 8003b0e:	408e      	lsls	r6, r1
 8003b10:	ea22 0206 	bic.w	r2, r2, r6
 8003b14:	fa00 f101 	lsl.w	r1, r0, r1
 8003b18:	430a      	orrs	r2, r1
 8003b1a:	f1b3 4fa0 	cmp.w	r3, #1342177280	; 0x50000000
 8003b1e:	615a      	str	r2, [r3, #20]
 8003b20:	f43f af7f 	beq.w	8003a22 <HAL_ADC_ConfigChannel+0x10e>
 8003b24:	483c      	ldr	r0, [pc, #240]	; (8003c18 <HAL_ADC_ConfigChannel+0x304>)
 8003b26:	493b      	ldr	r1, [pc, #236]	; (8003c14 <HAL_ADC_ConfigChannel+0x300>)
 8003b28:	4a3c      	ldr	r2, [pc, #240]	; (8003c1c <HAL_ADC_ConfigChannel+0x308>)
 8003b2a:	4283      	cmp	r3, r0
 8003b2c:	bf18      	it	ne
 8003b2e:	4611      	movne	r1, r2
 8003b30:	2c10      	cmp	r4, #16
 8003b32:	d13c      	bne.n	8003bae <HAL_ADC_ConfigChannel+0x29a>
 8003b34:	688a      	ldr	r2, [r1, #8]
 8003b36:	f412 0f00 	tst.w	r2, #8388608	; 0x800000
 8003b3a:	f47f af72 	bne.w	8003a22 <HAL_ADC_ConfigChannel+0x10e>
 8003b3e:	f1b3 4fa0 	cmp.w	r3, #1342177280	; 0x50000000
 8003b42:	4a35      	ldr	r2, [pc, #212]	; (8003c18 <HAL_ADC_ConfigChannel+0x304>)
 8003b44:	d009      	beq.n	8003b5a <HAL_ADC_ConfigChannel+0x246>
 8003b46:	4293      	cmp	r3, r2
 8003b48:	d03e      	beq.n	8003bc8 <HAL_ADC_ConfigChannel+0x2b4>
 8003b4a:	f502 7240 	add.w	r2, r2, #768	; 0x300
 8003b4e:	4293      	cmp	r3, r2
 8003b50:	4833      	ldr	r0, [pc, #204]	; (8003c20 <HAL_ADC_ConfigChannel+0x30c>)
 8003b52:	d03c      	beq.n	8003bce <HAL_ADC_ConfigChannel+0x2ba>
 8003b54:	4283      	cmp	r3, r0
 8003b56:	bf18      	it	ne
 8003b58:	2200      	movne	r2, #0
 8003b5a:	6898      	ldr	r0, [r3, #8]
 8003b5c:	f000 0003 	and.w	r0, r0, #3
 8003b60:	2801      	cmp	r0, #1
 8003b62:	d102      	bne.n	8003b6a <HAL_ADC_ConfigChannel+0x256>
 8003b64:	6818      	ldr	r0, [r3, #0]
 8003b66:	07c0      	lsls	r0, r0, #31
 8003b68:	d445      	bmi.n	8003bf6 <HAL_ADC_ConfigChannel+0x2e2>
 8003b6a:	b13a      	cbz	r2, 8003b7c <HAL_ADC_ConfigChannel+0x268>
 8003b6c:	6890      	ldr	r0, [r2, #8]
 8003b6e:	f000 0003 	and.w	r0, r0, #3
 8003b72:	2801      	cmp	r0, #1
 8003b74:	d102      	bne.n	8003b7c <HAL_ADC_ConfigChannel+0x268>
 8003b76:	6812      	ldr	r2, [r2, #0]
 8003b78:	07d2      	lsls	r2, r2, #31
 8003b7a:	d43c      	bmi.n	8003bf6 <HAL_ADC_ConfigChannel+0x2e2>
 8003b7c:	2c10      	cmp	r4, #16
 8003b7e:	d128      	bne.n	8003bd2 <HAL_ADC_ConfigChannel+0x2be>
 8003b80:	f1b3 4fa0 	cmp.w	r3, #1342177280	; 0x50000000
 8003b84:	f47f af4d 	bne.w	8003a22 <HAL_ADC_ConfigChannel+0x10e>
 8003b88:	688b      	ldr	r3, [r1, #8]
 8003b8a:	4a26      	ldr	r2, [pc, #152]	; (8003c24 <HAL_ADC_ConfigChannel+0x310>)
 8003b8c:	f443 0300 	orr.w	r3, r3, #8388608	; 0x800000
 8003b90:	608b      	str	r3, [r1, #8]
 8003b92:	4b25      	ldr	r3, [pc, #148]	; (8003c28 <HAL_ADC_ConfigChannel+0x314>)
 8003b94:	681b      	ldr	r3, [r3, #0]
 8003b96:	fbb3 f3f2 	udiv	r3, r3, r2
 8003b9a:	220a      	movs	r2, #10
 8003b9c:	4353      	muls	r3, r2
 8003b9e:	9301      	str	r3, [sp, #4]
 8003ba0:	9b01      	ldr	r3, [sp, #4]
 8003ba2:	2b00      	cmp	r3, #0
 8003ba4:	f43f af3d 	beq.w	8003a22 <HAL_ADC_ConfigChannel+0x10e>
 8003ba8:	9b01      	ldr	r3, [sp, #4]
 8003baa:	3b01      	subs	r3, #1
 8003bac:	e7f7      	b.n	8003b9e <HAL_ADC_ConfigChannel+0x28a>
 8003bae:	2c11      	cmp	r4, #17
 8003bb0:	d103      	bne.n	8003bba <HAL_ADC_ConfigChannel+0x2a6>
 8003bb2:	688a      	ldr	r2, [r1, #8]
 8003bb4:	f012 7f80 	tst.w	r2, #16777216	; 0x1000000
 8003bb8:	e7bf      	b.n	8003b3a <HAL_ADC_ConfigChannel+0x226>
 8003bba:	2c12      	cmp	r4, #18
 8003bbc:	f47f af31 	bne.w	8003a22 <HAL_ADC_ConfigChannel+0x10e>
 8003bc0:	688a      	ldr	r2, [r1, #8]
 8003bc2:	f412 0f80 	tst.w	r2, #4194304	; 0x400000
 8003bc6:	e7b8      	b.n	8003b3a <HAL_ADC_ConfigChannel+0x226>
 8003bc8:	f04f 42a0 	mov.w	r2, #1342177280	; 0x50000000
 8003bcc:	e7c5      	b.n	8003b5a <HAL_ADC_ConfigChannel+0x246>
 8003bce:	4602      	mov	r2, r0
 8003bd0:	e7c3      	b.n	8003b5a <HAL_ADC_ConfigChannel+0x246>
 8003bd2:	2c11      	cmp	r4, #17
 8003bd4:	d108      	bne.n	8003be8 <HAL_ADC_ConfigChannel+0x2d4>
 8003bd6:	f1b3 4fa0 	cmp.w	r3, #1342177280	; 0x50000000
 8003bda:	f47f af22 	bne.w	8003a22 <HAL_ADC_ConfigChannel+0x10e>
 8003bde:	688b      	ldr	r3, [r1, #8]
 8003be0:	f043 7380 	orr.w	r3, r3, #16777216	; 0x1000000
 8003be4:	608b      	str	r3, [r1, #8]
 8003be6:	e71c      	b.n	8003a22 <HAL_ADC_ConfigChannel+0x10e>
 8003be8:	2c12      	cmp	r4, #18
 8003bea:	f47f af1a 	bne.w	8003a22 <HAL_ADC_ConfigChannel+0x10e>
 8003bee:	688b      	ldr	r3, [r1, #8]
 8003bf0:	f443 0380 	orr.w	r3, r3, #4194304	; 0x400000
 8003bf4:	e7f6      	b.n	8003be4 <HAL_ADC_ConfigChannel+0x2d0>
 8003bf6:	6c2b      	ldr	r3, [r5, #64]	; 0x40
 8003bf8:	f043 0320 	orr.w	r3, r3, #32
 8003bfc:	642b      	str	r3, [r5, #64]	; 0x40
 8003bfe:	2001      	movs	r0, #1
 8003c00:	e710      	b.n	8003a24 <HAL_ADC_ConfigChannel+0x110>
 8003c02:	6c2b      	ldr	r3, [r5, #64]	; 0x40
 8003c04:	f043 0320 	orr.w	r3, r3, #32
 8003c08:	642b      	str	r3, [r5, #64]	; 0x40
 8003c0a:	e70b      	b.n	8003a24 <HAL_ADC_ConfigChannel+0x110>
 8003c0c:	2002      	movs	r0, #2
 8003c0e:	e70c      	b.n	8003a2a <HAL_ADC_ConfigChannel+0x116>
 8003c10:	83fff000 	.word	0x83fff000
 8003c14:	50000300 	.word	0x50000300
 8003c18:	50000100 	.word	0x50000100
 8003c1c:	50000700 	.word	0x50000700
 8003c20:	50000500 	.word	0x50000500
 8003c24:	000f4240 	.word	0x000f4240
 8003c28:	20000004 	.word	0x20000004

08003c2c <HAL_ADCEx_MultiModeConfigChannel>:
 8003c2c:	b5f0      	push	{r4, r5, r6, r7, lr}
 8003c2e:	4605      	mov	r5, r0
 8003c30:	4b3c      	ldr	r3, [pc, #240]	; (8003d24 <HAL_ADCEx_MultiModeConfigChannel+0xf8>)
 8003c32:	682c      	ldr	r4, [r5, #0]
 8003c34:	6808      	ldr	r0, [r1, #0]
 8003c36:	f1b4 4fa0 	cmp.w	r4, #1342177280	; 0x50000000
 8003c3a:	d009      	beq.n	8003c50 <HAL_ADCEx_MultiModeConfigChannel+0x24>
 8003c3c:	429c      	cmp	r4, r3
 8003c3e:	d035      	beq.n	8003cac <HAL_ADCEx_MultiModeConfigChannel+0x80>
 8003c40:	4a39      	ldr	r2, [pc, #228]	; (8003d28 <HAL_ADCEx_MultiModeConfigChannel+0xfc>)
 8003c42:	4294      	cmp	r4, r2
 8003c44:	f503 6380 	add.w	r3, r3, #1024	; 0x400
 8003c48:	d002      	beq.n	8003c50 <HAL_ADCEx_MultiModeConfigChannel+0x24>
 8003c4a:	429c      	cmp	r4, r3
 8003c4c:	d166      	bne.n	8003d1c <HAL_ADCEx_MultiModeConfigChannel+0xf0>
 8003c4e:	4613      	mov	r3, r2
 8003c50:	f895 203c 	ldrb.w	r2, [r5, #60]	; 0x3c
 8003c54:	2a01      	cmp	r2, #1
 8003c56:	d063      	beq.n	8003d20 <HAL_ADCEx_MultiModeConfigChannel+0xf4>
 8003c58:	2201      	movs	r2, #1
 8003c5a:	f885 203c 	strb.w	r2, [r5, #60]	; 0x3c
 8003c5e:	68a2      	ldr	r2, [r4, #8]
 8003c60:	0752      	lsls	r2, r2, #29
 8003c62:	d455      	bmi.n	8003d10 <HAL_ADCEx_MultiModeConfigChannel+0xe4>
 8003c64:	689a      	ldr	r2, [r3, #8]
 8003c66:	0757      	lsls	r7, r2, #29
 8003c68:	d452      	bmi.n	8003d10 <HAL_ADCEx_MultiModeConfigChannel+0xe4>
 8003c6a:	f1b4 4fa0 	cmp.w	r4, #1342177280	; 0x50000000
 8003c6e:	d020      	beq.n	8003cb2 <HAL_ADCEx_MultiModeConfigChannel+0x86>
 8003c70:	4f2c      	ldr	r7, [pc, #176]	; (8003d24 <HAL_ADCEx_MultiModeConfigChannel+0xf8>)
 8003c72:	4a2e      	ldr	r2, [pc, #184]	; (8003d2c <HAL_ADCEx_MultiModeConfigChannel+0x100>)
 8003c74:	4e2e      	ldr	r6, [pc, #184]	; (8003d30 <HAL_ADCEx_MultiModeConfigChannel+0x104>)
 8003c76:	42bc      	cmp	r4, r7
 8003c78:	bf08      	it	eq
 8003c7a:	4632      	moveq	r2, r6
 8003c7c:	b368      	cbz	r0, 8003cda <HAL_ADCEx_MultiModeConfigChannel+0xae>
 8003c7e:	6897      	ldr	r7, [r2, #8]
 8003c80:	f895 c030 	ldrb.w	ip, [r5, #48]	; 0x30
 8003c84:	684e      	ldr	r6, [r1, #4]
 8003c86:	f427 4760 	bic.w	r7, r7, #57344	; 0xe000
 8003c8a:	ea46 364c 	orr.w	r6, r6, ip, lsl #13
 8003c8e:	433e      	orrs	r6, r7
 8003c90:	6096      	str	r6, [r2, #8]
 8003c92:	68a6      	ldr	r6, [r4, #8]
 8003c94:	f006 0603 	and.w	r6, r6, #3
 8003c98:	2e01      	cmp	r6, #1
 8003c9a:	d10c      	bne.n	8003cb6 <HAL_ADCEx_MultiModeConfigChannel+0x8a>
 8003c9c:	6824      	ldr	r4, [r4, #0]
 8003c9e:	07e6      	lsls	r6, r4, #31
 8003ca0:	d509      	bpl.n	8003cb6 <HAL_ADCEx_MultiModeConfigChannel+0x8a>
 8003ca2:	2000      	movs	r0, #0
 8003ca4:	2300      	movs	r3, #0
 8003ca6:	f885 303c 	strb.w	r3, [r5, #60]	; 0x3c
 8003caa:	bdf0      	pop	{r4, r5, r6, r7, pc}
 8003cac:	f04f 43a0 	mov.w	r3, #1342177280	; 0x50000000
 8003cb0:	e7ce      	b.n	8003c50 <HAL_ADCEx_MultiModeConfigChannel+0x24>
 8003cb2:	4a1f      	ldr	r2, [pc, #124]	; (8003d30 <HAL_ADCEx_MultiModeConfigChannel+0x104>)
 8003cb4:	e7e2      	b.n	8003c7c <HAL_ADCEx_MultiModeConfigChannel+0x50>
 8003cb6:	689c      	ldr	r4, [r3, #8]
 8003cb8:	f004 0403 	and.w	r4, r4, #3
 8003cbc:	2c01      	cmp	r4, #1
 8003cbe:	d102      	bne.n	8003cc6 <HAL_ADCEx_MultiModeConfigChannel+0x9a>
 8003cc0:	681b      	ldr	r3, [r3, #0]
 8003cc2:	07dc      	lsls	r4, r3, #31
 8003cc4:	d4ed      	bmi.n	8003ca2 <HAL_ADCEx_MultiModeConfigChannel+0x76>
 8003cc6:	6893      	ldr	r3, [r2, #8]
 8003cc8:	6889      	ldr	r1, [r1, #8]
 8003cca:	f423 6371 	bic.w	r3, r3, #3856	; 0xf10
 8003cce:	4308      	orrs	r0, r1
 8003cd0:	f023 030f 	bic.w	r3, r3, #15
 8003cd4:	4318      	orrs	r0, r3
 8003cd6:	6090      	str	r0, [r2, #8]
 8003cd8:	e7e3      	b.n	8003ca2 <HAL_ADCEx_MultiModeConfigChannel+0x76>
 8003cda:	6891      	ldr	r1, [r2, #8]
 8003cdc:	f421 4160 	bic.w	r1, r1, #57344	; 0xe000
 8003ce0:	6091      	str	r1, [r2, #8]
 8003ce2:	68a1      	ldr	r1, [r4, #8]
 8003ce4:	f001 0103 	and.w	r1, r1, #3
 8003ce8:	2901      	cmp	r1, #1
 8003cea:	d102      	bne.n	8003cf2 <HAL_ADCEx_MultiModeConfigChannel+0xc6>
 8003cec:	6821      	ldr	r1, [r4, #0]
 8003cee:	07c9      	lsls	r1, r1, #31
 8003cf0:	d4d7      	bmi.n	8003ca2 <HAL_ADCEx_MultiModeConfigChannel+0x76>
 8003cf2:	6899      	ldr	r1, [r3, #8]
 8003cf4:	f001 0103 	and.w	r1, r1, #3
 8003cf8:	2901      	cmp	r1, #1
 8003cfa:	d102      	bne.n	8003d02 <HAL_ADCEx_MultiModeConfigChannel+0xd6>
 8003cfc:	681b      	ldr	r3, [r3, #0]
 8003cfe:	07db      	lsls	r3, r3, #31
 8003d00:	d4cf      	bmi.n	8003ca2 <HAL_ADCEx_MultiModeConfigChannel+0x76>
 8003d02:	6893      	ldr	r3, [r2, #8]
 8003d04:	f423 6371 	bic.w	r3, r3, #3856	; 0xf10
 8003d08:	f023 030f 	bic.w	r3, r3, #15
 8003d0c:	6093      	str	r3, [r2, #8]
 8003d0e:	e7c8      	b.n	8003ca2 <HAL_ADCEx_MultiModeConfigChannel+0x76>
 8003d10:	6c2b      	ldr	r3, [r5, #64]	; 0x40
 8003d12:	f043 0320 	orr.w	r3, r3, #32
 8003d16:	642b      	str	r3, [r5, #64]	; 0x40
 8003d18:	2001      	movs	r0, #1
 8003d1a:	e7c3      	b.n	8003ca4 <HAL_ADCEx_MultiModeConfigChannel+0x78>
 8003d1c:	2001      	movs	r0, #1
 8003d1e:	e7c4      	b.n	8003caa <HAL_ADCEx_MultiModeConfigChannel+0x7e>
 8003d20:	2002      	movs	r0, #2
 8003d22:	e7c2      	b.n	8003caa <HAL_ADCEx_MultiModeConfigChannel+0x7e>
 8003d24:	50000100 	.word	0x50000100
 8003d28:	50000400 	.word	0x50000400
 8003d2c:	50000700 	.word	0x50000700
 8003d30:	50000300 	.word	0x50000300

08003d34 <HAL_NVIC_SetPriorityGrouping>:
 8003d34:	4907      	ldr	r1, [pc, #28]	; (8003d54 <HAL_NVIC_SetPriorityGrouping+0x20>)
 8003d36:	68ca      	ldr	r2, [r1, #12]
 8003d38:	f422 62e0 	bic.w	r2, r2, #1792	; 0x700
 8003d3c:	0203      	lsls	r3, r0, #8
 8003d3e:	0412      	lsls	r2, r2, #16
 8003d40:	f403 63e0 	and.w	r3, r3, #1792	; 0x700
 8003d44:	0c12      	lsrs	r2, r2, #16
 8003d46:	4313      	orrs	r3, r2
 8003d48:	f043 63bf 	orr.w	r3, r3, #100139008	; 0x5f80000
 8003d4c:	f443 3300 	orr.w	r3, r3, #131072	; 0x20000
 8003d50:	60cb      	str	r3, [r1, #12]
 8003d52:	4770      	bx	lr
 8003d54:	e000ed00 	.word	0xe000ed00

08003d58 <HAL_NVIC_SetPriority>:
 8003d58:	4b16      	ldr	r3, [pc, #88]	; (8003db4 <HAL_NVIC_SetPriority+0x5c>)
 8003d5a:	b530      	push	{r4, r5, lr}
 8003d5c:	68dc      	ldr	r4, [r3, #12]
 8003d5e:	f3c4 2402 	ubfx	r4, r4, #8, #3
 8003d62:	f1c4 0307 	rsb	r3, r4, #7
 8003d66:	1d25      	adds	r5, r4, #4
 8003d68:	2b04      	cmp	r3, #4
 8003d6a:	bf28      	it	cs
 8003d6c:	2304      	movcs	r3, #4
 8003d6e:	2d06      	cmp	r5, #6
 8003d70:	f04f 35ff 	mov.w	r5, #4294967295
 8003d74:	bf8c      	ite	hi
 8003d76:	3c03      	subhi	r4, #3
 8003d78:	2400      	movls	r4, #0
 8003d7a:	fa05 f303 	lsl.w	r3, r5, r3
 8003d7e:	ea21 0303 	bic.w	r3, r1, r3
 8003d82:	40a5      	lsls	r5, r4
 8003d84:	ea22 0205 	bic.w	r2, r2, r5
 8003d88:	40a3      	lsls	r3, r4
 8003d8a:	2800      	cmp	r0, #0
 8003d8c:	ea43 0302 	orr.w	r3, r3, r2
 8003d90:	bfac      	ite	ge
 8003d92:	f100 4060 	addge.w	r0, r0, #3758096384	; 0xe0000000
 8003d96:	4a08      	ldrlt	r2, [pc, #32]	; (8003db8 <HAL_NVIC_SetPriority+0x60>)
 8003d98:	ea4f 1303 	mov.w	r3, r3, lsl #4
 8003d9c:	bfb8      	it	lt
 8003d9e:	f000 000f 	andlt.w	r0, r0, #15
 8003da2:	b2db      	uxtb	r3, r3
 8003da4:	bfaa      	itet	ge
 8003da6:	f500 4061 	addge.w	r0, r0, #57600	; 0xe100
 8003daa:	5413      	strblt	r3, [r2, r0]
 8003dac:	f880 3300 	strbge.w	r3, [r0, #768]	; 0x300
 8003db0:	bd30      	pop	{r4, r5, pc}
 8003db2:	bf00      	nop
 8003db4:	e000ed00 	.word	0xe000ed00
 8003db8:	e000ed14 	.word	0xe000ed14

08003dbc <HAL_NVIC_EnableIRQ>:
 8003dbc:	2800      	cmp	r0, #0
 8003dbe:	db07      	blt.n	8003dd0 <HAL_NVIC_EnableIRQ+0x14>
 8003dc0:	0941      	lsrs	r1, r0, #5
 8003dc2:	4a04      	ldr	r2, [pc, #16]	; (8003dd4 <HAL_NVIC_EnableIRQ+0x18>)
 8003dc4:	f000 001f 	and.w	r0, r0, #31
 8003dc8:	2301      	movs	r3, #1
 8003dca:	4083      	lsls	r3, r0
 8003dcc:	f842 3021 	str.w	r3, [r2, r1, lsl #2]
 8003dd0:	4770      	bx	lr
 8003dd2:	bf00      	nop
 8003dd4:	e000e100 	.word	0xe000e100

08003dd8 <HAL_SYSTICK_Config>:
 8003dd8:	3801      	subs	r0, #1
 8003dda:	f1b0 7f80 	cmp.w	r0, #16777216	; 0x1000000
 8003dde:	d20b      	bcs.n	8003df8 <HAL_SYSTICK_Config+0x20>
 8003de0:	f04f 23e0 	mov.w	r3, #3758153728	; 0xe000e000
 8003de4:	4a05      	ldr	r2, [pc, #20]	; (8003dfc <HAL_SYSTICK_Config+0x24>)
 8003de6:	6158      	str	r0, [r3, #20]
 8003de8:	21f0      	movs	r1, #240	; 0xf0
 8003dea:	f882 1023 	strb.w	r1, [r2, #35]	; 0x23
 8003dee:	2000      	movs	r0, #0
 8003df0:	2207      	movs	r2, #7
 8003df2:	6198      	str	r0, [r3, #24]
 8003df4:	611a      	str	r2, [r3, #16]
 8003df6:	4770      	bx	lr
 8003df8:	2001      	movs	r0, #1
 8003dfa:	4770      	bx	lr
 8003dfc:	e000ed00 	.word	0xe000ed00

08003e00 <HAL_DAC_Init>:
 8003e00:	b510      	push	{r4, lr}
 8003e02:	4604      	mov	r4, r0
 8003e04:	b168      	cbz	r0, 8003e22 <HAL_DAC_Init+0x22>
 8003e06:	7903      	ldrb	r3, [r0, #4]
 8003e08:	f003 02ff 	and.w	r2, r3, #255	; 0xff
 8003e0c:	b913      	cbnz	r3, 8003e14 <HAL_DAC_Init+0x14>
 8003e0e:	7142      	strb	r2, [r0, #5]
 8003e10:	f7fe ff44 	bl	8002c9c <HAL_DAC_MspInit>
 8003e14:	2302      	movs	r3, #2
 8003e16:	7123      	strb	r3, [r4, #4]
 8003e18:	2000      	movs	r0, #0
 8003e1a:	2301      	movs	r3, #1
 8003e1c:	6120      	str	r0, [r4, #16]
 8003e1e:	7123      	strb	r3, [r4, #4]
 8003e20:	bd10      	pop	{r4, pc}
 8003e22:	2001      	movs	r0, #1
 8003e24:	e7fc      	b.n	8003e20 <HAL_DAC_Init+0x20>

08003e26 <HAL_DAC_ConvCpltCallbackCh1>:
 8003e26:	4770      	bx	lr

08003e28 <HAL_DAC_ConvHalfCpltCallbackCh1>:
 8003e28:	4770      	bx	lr

08003e2a <HAL_DAC_ErrorCallbackCh1>:
 8003e2a:	4770      	bx	lr

08003e2c <DAC_DMAErrorCh1>:
 8003e2c:	b510      	push	{r4, lr}
 8003e2e:	6a44      	ldr	r4, [r0, #36]	; 0x24
 8003e30:	6923      	ldr	r3, [r4, #16]
 8003e32:	f043 0304 	orr.w	r3, r3, #4
 8003e36:	6123      	str	r3, [r4, #16]
 8003e38:	4620      	mov	r0, r4
 8003e3a:	f7ff fff6 	bl	8003e2a <HAL_DAC_ErrorCallbackCh1>
 8003e3e:	2301      	movs	r3, #1
 8003e40:	7123      	strb	r3, [r4, #4]
 8003e42:	bd10      	pop	{r4, pc}

08003e44 <DAC_DMAHalfConvCpltCh1>:
 8003e44:	6a40      	ldr	r0, [r0, #36]	; 0x24
 8003e46:	f7ff bfef 	b.w	8003e28 <HAL_DAC_ConvHalfCpltCallbackCh1>

08003e4a <DAC_DMAConvCpltCh1>:
 8003e4a:	b510      	push	{r4, lr}
 8003e4c:	6a44      	ldr	r4, [r0, #36]	; 0x24
 8003e4e:	4620      	mov	r0, r4
 8003e50:	f7ff ffe9 	bl	8003e26 <HAL_DAC_ConvCpltCallbackCh1>
 8003e54:	2301      	movs	r3, #1
 8003e56:	7123      	strb	r3, [r4, #4]
 8003e58:	bd10      	pop	{r4, pc}
	...

08003e5c <HAL_DAC_Start_DMA>:
 8003e5c:	b5f8      	push	{r3, r4, r5, r6, r7, lr}
 8003e5e:	460f      	mov	r7, r1
 8003e60:	4611      	mov	r1, r2
 8003e62:	7942      	ldrb	r2, [r0, #5]
 8003e64:	9e06      	ldr	r6, [sp, #24]
 8003e66:	2a01      	cmp	r2, #1
 8003e68:	4605      	mov	r5, r0
 8003e6a:	f04f 0002 	mov.w	r0, #2
 8003e6e:	d027      	beq.n	8003ec0 <HAL_DAC_Start_DMA+0x64>
 8003e70:	2201      	movs	r2, #1
 8003e72:	682c      	ldr	r4, [r5, #0]
 8003e74:	716a      	strb	r2, [r5, #5]
 8003e76:	7128      	strb	r0, [r5, #4]
 8003e78:	bb4f      	cbnz	r7, 8003ece <HAL_DAC_Start_DMA+0x72>
 8003e7a:	68aa      	ldr	r2, [r5, #8]
 8003e7c:	4825      	ldr	r0, [pc, #148]	; (8003f14 <HAL_DAC_Start_DMA+0xb8>)
 8003e7e:	6290      	str	r0, [r2, #40]	; 0x28
 8003e80:	4825      	ldr	r0, [pc, #148]	; (8003f18 <HAL_DAC_Start_DMA+0xbc>)
 8003e82:	62d0      	str	r0, [r2, #44]	; 0x2c
 8003e84:	4825      	ldr	r0, [pc, #148]	; (8003f1c <HAL_DAC_Start_DMA+0xc0>)
 8003e86:	6310      	str	r0, [r2, #48]	; 0x30
 8003e88:	6822      	ldr	r2, [r4, #0]
 8003e8a:	2e04      	cmp	r6, #4
 8003e8c:	f442 5280 	orr.w	r2, r2, #4096	; 0x1000
 8003e90:	6022      	str	r2, [r4, #0]
 8003e92:	d016      	beq.n	8003ec2 <HAL_DAC_Start_DMA+0x66>
 8003e94:	2e08      	cmp	r6, #8
 8003e96:	d017      	beq.n	8003ec8 <HAL_DAC_Start_DMA+0x6c>
 8003e98:	2e00      	cmp	r6, #0
 8003e9a:	d136      	bne.n	8003f0a <HAL_DAC_Start_DMA+0xae>
 8003e9c:	f104 0208 	add.w	r2, r4, #8
 8003ea0:	6820      	ldr	r0, [r4, #0]
 8003ea2:	f440 5000 	orr.w	r0, r0, #8192	; 0x2000
 8003ea6:	6020      	str	r0, [r4, #0]
 8003ea8:	68a8      	ldr	r0, [r5, #8]
 8003eaa:	f000 f8bf 	bl	800402c <HAL_DMA_Start_IT>
 8003eae:	682a      	ldr	r2, [r5, #0]
 8003eb0:	2000      	movs	r0, #0
 8003eb2:	7168      	strb	r0, [r5, #5]
 8003eb4:	6814      	ldr	r4, [r2, #0]
 8003eb6:	2301      	movs	r3, #1
 8003eb8:	fa03 f107 	lsl.w	r1, r3, r7
 8003ebc:	4321      	orrs	r1, r4
 8003ebe:	6011      	str	r1, [r2, #0]
 8003ec0:	bdf8      	pop	{r3, r4, r5, r6, r7, pc}
 8003ec2:	f104 020c 	add.w	r2, r4, #12
 8003ec6:	e7eb      	b.n	8003ea0 <HAL_DAC_Start_DMA+0x44>
 8003ec8:	f104 0210 	add.w	r2, r4, #16
 8003ecc:	e7e8      	b.n	8003ea0 <HAL_DAC_Start_DMA+0x44>
 8003ece:	68ea      	ldr	r2, [r5, #12]
 8003ed0:	4813      	ldr	r0, [pc, #76]	; (8003f20 <HAL_DAC_Start_DMA+0xc4>)
 8003ed2:	6290      	str	r0, [r2, #40]	; 0x28
 8003ed4:	4813      	ldr	r0, [pc, #76]	; (8003f24 <HAL_DAC_Start_DMA+0xc8>)
 8003ed6:	62d0      	str	r0, [r2, #44]	; 0x2c
 8003ed8:	4813      	ldr	r0, [pc, #76]	; (8003f28 <HAL_DAC_Start_DMA+0xcc>)
 8003eda:	6310      	str	r0, [r2, #48]	; 0x30
 8003edc:	6822      	ldr	r2, [r4, #0]
 8003ede:	2e04      	cmp	r6, #4
 8003ee0:	f042 5280 	orr.w	r2, r2, #268435456	; 0x10000000
 8003ee4:	6022      	str	r2, [r4, #0]
 8003ee6:	d00a      	beq.n	8003efe <HAL_DAC_Start_DMA+0xa2>
 8003ee8:	2e08      	cmp	r6, #8
 8003eea:	d00b      	beq.n	8003f04 <HAL_DAC_Start_DMA+0xa8>
 8003eec:	b97e      	cbnz	r6, 8003f0e <HAL_DAC_Start_DMA+0xb2>
 8003eee:	f104 0214 	add.w	r2, r4, #20
 8003ef2:	6820      	ldr	r0, [r4, #0]
 8003ef4:	f040 5000 	orr.w	r0, r0, #536870912	; 0x20000000
 8003ef8:	6020      	str	r0, [r4, #0]
 8003efa:	68e8      	ldr	r0, [r5, #12]
 8003efc:	e7d5      	b.n	8003eaa <HAL_DAC_Start_DMA+0x4e>
 8003efe:	f104 0218 	add.w	r2, r4, #24
 8003f02:	e7f6      	b.n	8003ef2 <HAL_DAC_Start_DMA+0x96>
 8003f04:	f104 021c 	add.w	r2, r4, #28
 8003f08:	e7f3      	b.n	8003ef2 <HAL_DAC_Start_DMA+0x96>
 8003f0a:	463a      	mov	r2, r7
 8003f0c:	e7c8      	b.n	8003ea0 <HAL_DAC_Start_DMA+0x44>
 8003f0e:	2200      	movs	r2, #0
 8003f10:	e7ef      	b.n	8003ef2 <HAL_DAC_Start_DMA+0x96>
 8003f12:	bf00      	nop
 8003f14:	08003e4b 	.word	0x08003e4b
 8003f18:	08003e45 	.word	0x08003e45
 8003f1c:	08003e2d 	.word	0x08003e2d
 8003f20:	08003f71 	.word	0x08003f71
 8003f24:	08003f83 	.word	0x08003f83
 8003f28:	08003f8f 	.word	0x08003f8f

08003f2c <HAL_DAC_ConfigChannel>:
 8003f2c:	b530      	push	{r4, r5, lr}
 8003f2e:	7943      	ldrb	r3, [r0, #5]
 8003f30:	2b01      	cmp	r3, #1
 8003f32:	f04f 0302 	mov.w	r3, #2
 8003f36:	d018      	beq.n	8003f6a <HAL_DAC_ConfigChannel+0x3e>
 8003f38:	6804      	ldr	r4, [r0, #0]
 8003f3a:	7103      	strb	r3, [r0, #4]
 8003f3c:	6825      	ldr	r5, [r4, #0]
 8003f3e:	f640 73fe 	movw	r3, #4094	; 0xffe
 8003f42:	4093      	lsls	r3, r2
 8003f44:	ea25 0503 	bic.w	r5, r5, r3
 8003f48:	e9d1 3100 	ldrd	r3, r1, [r1]
 8003f4c:	430b      	orrs	r3, r1
 8003f4e:	4093      	lsls	r3, r2
 8003f50:	432b      	orrs	r3, r5
 8003f52:	6023      	str	r3, [r4, #0]
 8003f54:	6823      	ldr	r3, [r4, #0]
 8003f56:	21c0      	movs	r1, #192	; 0xc0
 8003f58:	fa01 f202 	lsl.w	r2, r1, r2
 8003f5c:	ea23 0302 	bic.w	r3, r3, r2
 8003f60:	6023      	str	r3, [r4, #0]
 8003f62:	2301      	movs	r3, #1
 8003f64:	7103      	strb	r3, [r0, #4]
 8003f66:	2300      	movs	r3, #0
 8003f68:	7143      	strb	r3, [r0, #5]
 8003f6a:	4618      	mov	r0, r3
 8003f6c:	bd30      	pop	{r4, r5, pc}

08003f6e <HAL_DACEx_ConvCpltCallbackCh2>:
 8003f6e:	4770      	bx	lr

08003f70 <DAC_DMAConvCpltCh2>:
 8003f70:	b510      	push	{r4, lr}
 8003f72:	6a44      	ldr	r4, [r0, #36]	; 0x24
 8003f74:	4620      	mov	r0, r4
 8003f76:	f7ff fffa 	bl	8003f6e <HAL_DACEx_ConvCpltCallbackCh2>
 8003f7a:	2301      	movs	r3, #1
 8003f7c:	7123      	strb	r3, [r4, #4]
 8003f7e:	bd10      	pop	{r4, pc}

08003f80 <HAL_DACEx_ConvHalfCpltCallbackCh2>:
 8003f80:	4770      	bx	lr

08003f82 <DAC_DMAHalfConvCpltCh2>:
 8003f82:	b508      	push	{r3, lr}
 8003f84:	6a40      	ldr	r0, [r0, #36]	; 0x24
 8003f86:	f7ff fffb 	bl	8003f80 <HAL_DACEx_ConvHalfCpltCallbackCh2>
 8003f8a:	bd08      	pop	{r3, pc}

08003f8c <HAL_DACEx_ErrorCallbackCh2>:
 8003f8c:	4770      	bx	lr

08003f8e <DAC_DMAErrorCh2>:
 8003f8e:	b510      	push	{r4, lr}
 8003f90:	6a44      	ldr	r4, [r0, #36]	; 0x24
 8003f92:	6923      	ldr	r3, [r4, #16]
 8003f94:	f043 0304 	orr.w	r3, r3, #4
 8003f98:	6123      	str	r3, [r4, #16]
 8003f9a:	4620      	mov	r0, r4
 8003f9c:	f7ff fff6 	bl	8003f8c <HAL_DACEx_ErrorCallbackCh2>
 8003fa0:	2301      	movs	r3, #1
 8003fa2:	7123      	strb	r3, [r4, #4]
 8003fa4:	bd10      	pop	{r4, pc}
	...

08003fa8 <DMA_CalcBaseAndBitshift>:
 8003fa8:	6802      	ldr	r2, [r0, #0]
 8003faa:	4b0a      	ldr	r3, [pc, #40]	; (8003fd4 <DMA_CalcBaseAndBitshift+0x2c>)
 8003fac:	429a      	cmp	r2, r3
 8003fae:	f04f 0114 	mov.w	r1, #20
 8003fb2:	d808      	bhi.n	8003fc6 <DMA_CalcBaseAndBitshift+0x1e>
 8003fb4:	4b08      	ldr	r3, [pc, #32]	; (8003fd8 <DMA_CalcBaseAndBitshift+0x30>)
 8003fb6:	4413      	add	r3, r2
 8003fb8:	4a08      	ldr	r2, [pc, #32]	; (8003fdc <DMA_CalcBaseAndBitshift+0x34>)
 8003fba:	fbb3 f3f1 	udiv	r3, r3, r1
 8003fbe:	009b      	lsls	r3, r3, #2
 8003fc0:	e9c0 230f 	strd	r2, r3, [r0, #60]	; 0x3c
 8003fc4:	4770      	bx	lr
 8003fc6:	4b06      	ldr	r3, [pc, #24]	; (8003fe0 <DMA_CalcBaseAndBitshift+0x38>)
 8003fc8:	4413      	add	r3, r2
 8003fca:	4a06      	ldr	r2, [pc, #24]	; (8003fe4 <DMA_CalcBaseAndBitshift+0x3c>)
 8003fcc:	fbb3 f3f1 	udiv	r3, r3, r1
 8003fd0:	009b      	lsls	r3, r3, #2
 8003fd2:	e7f5      	b.n	8003fc0 <DMA_CalcBaseAndBitshift+0x18>
 8003fd4:	40020407 	.word	0x40020407
 8003fd8:	bffdfff8 	.word	0xbffdfff8
 8003fdc:	40020000 	.word	0x40020000
 8003fe0:	bffdfbf8 	.word	0xbffdfbf8
 8003fe4:	40020400 	.word	0x40020400

08003fe8 <HAL_DMA_Init>:
 8003fe8:	b538      	push	{r3, r4, r5, lr}
 8003fea:	4604      	mov	r4, r0
 8003fec:	b1e0      	cbz	r0, 8004028 <HAL_DMA_Init+0x40>
 8003fee:	e9d0 3501 	ldrd	r3, r5, [r0, #4]
 8003ff2:	432b      	orrs	r3, r5
 8003ff4:	68c5      	ldr	r5, [r0, #12]
 8003ff6:	6801      	ldr	r1, [r0, #0]
 8003ff8:	432b      	orrs	r3, r5
 8003ffa:	6905      	ldr	r5, [r0, #16]
 8003ffc:	680a      	ldr	r2, [r1, #0]
 8003ffe:	432b      	orrs	r3, r5
 8004000:	6945      	ldr	r5, [r0, #20]
 8004002:	432b      	orrs	r3, r5
 8004004:	6985      	ldr	r5, [r0, #24]
 8004006:	432b      	orrs	r3, r5
 8004008:	69c5      	ldr	r5, [r0, #28]
 800400a:	f422 527f 	bic.w	r2, r2, #16320	; 0x3fc0
 800400e:	f022 0230 	bic.w	r2, r2, #48	; 0x30
 8004012:	432b      	orrs	r3, r5
 8004014:	4313      	orrs	r3, r2
 8004016:	600b      	str	r3, [r1, #0]
 8004018:	f7ff ffc6 	bl	8003fa8 <DMA_CalcBaseAndBitshift>
 800401c:	2000      	movs	r0, #0
 800401e:	f44f 7380 	mov.w	r3, #256	; 0x100
 8004022:	63a0      	str	r0, [r4, #56]	; 0x38
 8004024:	8423      	strh	r3, [r4, #32]
 8004026:	bd38      	pop	{r3, r4, r5, pc}
 8004028:	2001      	movs	r0, #1
 800402a:	e7fc      	b.n	8004026 <HAL_DMA_Init+0x3e>

0800402c <HAL_DMA_Start_IT>:
 800402c:	b5f0      	push	{r4, r5, r6, r7, lr}
 800402e:	f890 4020 	ldrb.w	r4, [r0, #32]
 8004032:	2c01      	cmp	r4, #1
 8004034:	d034      	beq.n	80040a0 <HAL_DMA_Start_IT+0x74>
 8004036:	f890 5021 	ldrb.w	r5, [r0, #33]	; 0x21
 800403a:	2401      	movs	r4, #1
 800403c:	42a5      	cmp	r5, r4
 800403e:	f880 4020 	strb.w	r4, [r0, #32]
 8004042:	f04f 0600 	mov.w	r6, #0
 8004046:	f04f 0402 	mov.w	r4, #2
 800404a:	d127      	bne.n	800409c <HAL_DMA_Start_IT+0x70>
 800404c:	f880 4021 	strb.w	r4, [r0, #33]	; 0x21
 8004050:	6804      	ldr	r4, [r0, #0]
 8004052:	6386      	str	r6, [r0, #56]	; 0x38
 8004054:	6826      	ldr	r6, [r4, #0]
 8004056:	f026 0601 	bic.w	r6, r6, #1
 800405a:	6026      	str	r6, [r4, #0]
 800405c:	e9d0 670f 	ldrd	r6, r7, [r0, #60]	; 0x3c
 8004060:	40bd      	lsls	r5, r7
 8004062:	6075      	str	r5, [r6, #4]
 8004064:	6063      	str	r3, [r4, #4]
 8004066:	6843      	ldr	r3, [r0, #4]
 8004068:	2b10      	cmp	r3, #16
 800406a:	6ac3      	ldr	r3, [r0, #44]	; 0x2c
 800406c:	bf0b      	itete	eq
 800406e:	60a2      	streq	r2, [r4, #8]
 8004070:	60a1      	strne	r1, [r4, #8]
 8004072:	60e1      	streq	r1, [r4, #12]
 8004074:	60e2      	strne	r2, [r4, #12]
 8004076:	b14b      	cbz	r3, 800408c <HAL_DMA_Start_IT+0x60>
 8004078:	6823      	ldr	r3, [r4, #0]
 800407a:	f043 030e 	orr.w	r3, r3, #14
 800407e:	6023      	str	r3, [r4, #0]
 8004080:	6823      	ldr	r3, [r4, #0]
 8004082:	f043 0301 	orr.w	r3, r3, #1
 8004086:	6023      	str	r3, [r4, #0]
 8004088:	2000      	movs	r0, #0
 800408a:	bdf0      	pop	{r4, r5, r6, r7, pc}
 800408c:	6823      	ldr	r3, [r4, #0]
 800408e:	f043 030a 	orr.w	r3, r3, #10
 8004092:	6023      	str	r3, [r4, #0]
 8004094:	6823      	ldr	r3, [r4, #0]
 8004096:	f023 0304 	bic.w	r3, r3, #4
 800409a:	e7f0      	b.n	800407e <HAL_DMA_Start_IT+0x52>
 800409c:	f880 6020 	strb.w	r6, [r0, #32]
 80040a0:	2002      	movs	r0, #2
 80040a2:	e7f2      	b.n	800408a <HAL_DMA_Start_IT+0x5e>

080040a4 <HAL_DMA_Abort>:
 80040a4:	f890 3021 	ldrb.w	r3, [r0, #33]	; 0x21
 80040a8:	2b02      	cmp	r3, #2
 80040aa:	d007      	beq.n	80040bc <HAL_DMA_Abort+0x18>
 80040ac:	2304      	movs	r3, #4
 80040ae:	6383      	str	r3, [r0, #56]	; 0x38
 80040b0:	2301      	movs	r3, #1
 80040b2:	2200      	movs	r2, #0
 80040b4:	f880 2020 	strb.w	r2, [r0, #32]
 80040b8:	4618      	mov	r0, r3
 80040ba:	4770      	bx	lr
 80040bc:	6803      	ldr	r3, [r0, #0]
 80040be:	6bc1      	ldr	r1, [r0, #60]	; 0x3c
 80040c0:	681a      	ldr	r2, [r3, #0]
 80040c2:	f022 020e 	bic.w	r2, r2, #14
 80040c6:	601a      	str	r2, [r3, #0]
 80040c8:	681a      	ldr	r2, [r3, #0]
 80040ca:	f022 0201 	bic.w	r2, r2, #1
 80040ce:	601a      	str	r2, [r3, #0]
 80040d0:	6c03      	ldr	r3, [r0, #64]	; 0x40
 80040d2:	2201      	movs	r2, #1
 80040d4:	fa02 f303 	lsl.w	r3, r2, r3
 80040d8:	604b      	str	r3, [r1, #4]
 80040da:	f880 2021 	strb.w	r2, [r0, #33]	; 0x21
 80040de:	2300      	movs	r3, #0
 80040e0:	e7e7      	b.n	80040b2 <HAL_DMA_Abort+0xe>

080040e2 <HAL_DMA_IRQHandler>:
 80040e2:	6bc1      	ldr	r1, [r0, #60]	; 0x3c
 80040e4:	6c02      	ldr	r2, [r0, #64]	; 0x40
 80040e6:	6803      	ldr	r3, [r0, #0]
 80040e8:	b470      	push	{r4, r5, r6}
 80040ea:	680e      	ldr	r6, [r1, #0]
 80040ec:	681d      	ldr	r5, [r3, #0]
 80040ee:	2404      	movs	r4, #4
 80040f0:	4094      	lsls	r4, r2
 80040f2:	4234      	tst	r4, r6
 80040f4:	d00e      	beq.n	8004114 <HAL_DMA_IRQHandler+0x32>
 80040f6:	f015 0f04 	tst.w	r5, #4
 80040fa:	d00b      	beq.n	8004114 <HAL_DMA_IRQHandler+0x32>
 80040fc:	681a      	ldr	r2, [r3, #0]
 80040fe:	0692      	lsls	r2, r2, #26
 8004100:	bf5e      	ittt	pl
 8004102:	681a      	ldrpl	r2, [r3, #0]
 8004104:	f022 0204 	bicpl.w	r2, r2, #4
 8004108:	601a      	strpl	r2, [r3, #0]
 800410a:	6ac3      	ldr	r3, [r0, #44]	; 0x2c
 800410c:	604c      	str	r4, [r1, #4]
 800410e:	b363      	cbz	r3, 800416a <HAL_DMA_IRQHandler+0x88>
 8004110:	bc70      	pop	{r4, r5, r6}
 8004112:	4718      	bx	r3
 8004114:	2402      	movs	r4, #2
 8004116:	4094      	lsls	r4, r2
 8004118:	4234      	tst	r4, r6
 800411a:	d012      	beq.n	8004142 <HAL_DMA_IRQHandler+0x60>
 800411c:	f015 0f02 	tst.w	r5, #2
 8004120:	d00f      	beq.n	8004142 <HAL_DMA_IRQHandler+0x60>
 8004122:	681a      	ldr	r2, [r3, #0]
 8004124:	0695      	lsls	r5, r2, #26
 8004126:	d406      	bmi.n	8004136 <HAL_DMA_IRQHandler+0x54>
 8004128:	681a      	ldr	r2, [r3, #0]
 800412a:	f022 020a 	bic.w	r2, r2, #10
 800412e:	601a      	str	r2, [r3, #0]
 8004130:	2301      	movs	r3, #1
 8004132:	f880 3021 	strb.w	r3, [r0, #33]	; 0x21
 8004136:	2300      	movs	r3, #0
 8004138:	604c      	str	r4, [r1, #4]
 800413a:	f880 3020 	strb.w	r3, [r0, #32]
 800413e:	6a83      	ldr	r3, [r0, #40]	; 0x28
 8004140:	e7e5      	b.n	800410e <HAL_DMA_IRQHandler+0x2c>
 8004142:	2408      	movs	r4, #8
 8004144:	4094      	lsls	r4, r2
 8004146:	4234      	tst	r4, r6
 8004148:	d00f      	beq.n	800416a <HAL_DMA_IRQHandler+0x88>
 800414a:	072c      	lsls	r4, r5, #28
 800414c:	d50d      	bpl.n	800416a <HAL_DMA_IRQHandler+0x88>
 800414e:	681c      	ldr	r4, [r3, #0]
 8004150:	f024 040e 	bic.w	r4, r4, #14
 8004154:	601c      	str	r4, [r3, #0]
 8004156:	2301      	movs	r3, #1
 8004158:	fa03 f202 	lsl.w	r2, r3, r2
 800415c:	604a      	str	r2, [r1, #4]
 800415e:	6383      	str	r3, [r0, #56]	; 0x38
 8004160:	f44f 7380 	mov.w	r3, #256	; 0x100
 8004164:	8403      	strh	r3, [r0, #32]
 8004166:	6b03      	ldr	r3, [r0, #48]	; 0x30
 8004168:	e7d1      	b.n	800410e <HAL_DMA_IRQHandler+0x2c>
 800416a:	bc70      	pop	{r4, r5, r6}
 800416c:	4770      	bx	lr
	...

08004170 <HAL_GPIO_Init>:
 8004170:	e92d 4ff7 	stmdb	sp!, {r0, r1, r2, r4, r5, r6, r7, r8, r9, sl, fp, lr}
 8004174:	f8df 9198 	ldr.w	r9, [pc, #408]	; 8004310 <HAL_GPIO_Init+0x1a0>
 8004178:	4c63      	ldr	r4, [pc, #396]	; (8004308 <HAL_GPIO_Init+0x198>)
 800417a:	2300      	movs	r3, #0
 800417c:	680a      	ldr	r2, [r1, #0]
 800417e:	fa32 f503 	lsrs.w	r5, r2, r3
 8004182:	d102      	bne.n	800418a <HAL_GPIO_Init+0x1a>
 8004184:	b003      	add	sp, #12
 8004186:	e8bd 8ff0 	ldmia.w	sp!, {r4, r5, r6, r7, r8, r9, sl, fp, pc}
 800418a:	f04f 0e01 	mov.w	lr, #1
 800418e:	fa0e fe03 	lsl.w	lr, lr, r3
 8004192:	ea1e 0202 	ands.w	r2, lr, r2
 8004196:	f000 80a9 	beq.w	80042ec <HAL_GPIO_Init+0x17c>
 800419a:	684e      	ldr	r6, [r1, #4]
 800419c:	f006 0503 	and.w	r5, r6, #3
 80041a0:	ea4f 0843 	mov.w	r8, r3, lsl #1
 80041a4:	f04f 0c03 	mov.w	ip, #3
 80041a8:	1e6f      	subs	r7, r5, #1
 80041aa:	fa0c fc08 	lsl.w	ip, ip, r8
 80041ae:	2f01      	cmp	r7, #1
 80041b0:	ea6f 0c0c 	mvn.w	ip, ip
 80041b4:	d834      	bhi.n	8004220 <HAL_GPIO_Init+0xb0>
 80041b6:	6887      	ldr	r7, [r0, #8]
 80041b8:	ea07 0a0c 	and.w	sl, r7, ip
 80041bc:	68cf      	ldr	r7, [r1, #12]
 80041be:	fa07 f708 	lsl.w	r7, r7, r8
 80041c2:	ea47 070a 	orr.w	r7, r7, sl
 80041c6:	6087      	str	r7, [r0, #8]
 80041c8:	6847      	ldr	r7, [r0, #4]
 80041ca:	ea27 0e0e 	bic.w	lr, r7, lr
 80041ce:	f3c6 1700 	ubfx	r7, r6, #4, #1
 80041d2:	409f      	lsls	r7, r3
 80041d4:	ea47 070e 	orr.w	r7, r7, lr
 80041d8:	6047      	str	r7, [r0, #4]
 80041da:	68c7      	ldr	r7, [r0, #12]
 80041dc:	ea07 0e0c 	and.w	lr, r7, ip
 80041e0:	688f      	ldr	r7, [r1, #8]
 80041e2:	fa07 f708 	lsl.w	r7, r7, r8
 80041e6:	ea47 070e 	orr.w	r7, r7, lr
 80041ea:	2d02      	cmp	r5, #2
 80041ec:	60c7      	str	r7, [r0, #12]
 80041ee:	d119      	bne.n	8004224 <HAL_GPIO_Init+0xb4>
 80041f0:	ea4f 0ad3 	mov.w	sl, r3, lsr #3
 80041f4:	eb00 0a8a 	add.w	sl, r0, sl, lsl #2
 80041f8:	f003 0b07 	and.w	fp, r3, #7
 80041fc:	f8da 7020 	ldr.w	r7, [sl, #32]
 8004200:	ea4f 0b8b 	mov.w	fp, fp, lsl #2
 8004204:	f04f 0e0f 	mov.w	lr, #15
 8004208:	fa0e fe0b 	lsl.w	lr, lr, fp
 800420c:	ea27 0e0e 	bic.w	lr, r7, lr
 8004210:	690f      	ldr	r7, [r1, #16]
 8004212:	fa07 f70b 	lsl.w	r7, r7, fp
 8004216:	ea47 070e 	orr.w	r7, r7, lr
 800421a:	f8ca 7020 	str.w	r7, [sl, #32]
 800421e:	e001      	b.n	8004224 <HAL_GPIO_Init+0xb4>
 8004220:	2d03      	cmp	r5, #3
 8004222:	d1da      	bne.n	80041da <HAL_GPIO_Init+0x6a>
 8004224:	6807      	ldr	r7, [r0, #0]
 8004226:	fa05 f508 	lsl.w	r5, r5, r8
 800422a:	ea07 070c 	and.w	r7, r7, ip
 800422e:	433d      	orrs	r5, r7
 8004230:	f416 3f40 	tst.w	r6, #196608	; 0x30000
 8004234:	6005      	str	r5, [r0, #0]
 8004236:	d059      	beq.n	80042ec <HAL_GPIO_Init+0x17c>
 8004238:	f8d9 5018 	ldr.w	r5, [r9, #24]
 800423c:	f045 0501 	orr.w	r5, r5, #1
 8004240:	f8c9 5018 	str.w	r5, [r9, #24]
 8004244:	f8d9 5018 	ldr.w	r5, [r9, #24]
 8004248:	f023 0703 	bic.w	r7, r3, #3
 800424c:	f107 4780 	add.w	r7, r7, #1073741824	; 0x40000000
 8004250:	f005 0501 	and.w	r5, r5, #1
 8004254:	f507 3780 	add.w	r7, r7, #65536	; 0x10000
 8004258:	9501      	str	r5, [sp, #4]
 800425a:	f003 0e03 	and.w	lr, r3, #3
 800425e:	9d01      	ldr	r5, [sp, #4]
 8004260:	68bd      	ldr	r5, [r7, #8]
 8004262:	ea4f 0e8e 	mov.w	lr, lr, lsl #2
 8004266:	f04f 0c0f 	mov.w	ip, #15
 800426a:	fa0c fc0e 	lsl.w	ip, ip, lr
 800426e:	f1b0 4f90 	cmp.w	r0, #1207959552	; 0x48000000
 8004272:	ea25 0c0c 	bic.w	ip, r5, ip
 8004276:	d03b      	beq.n	80042f0 <HAL_GPIO_Init+0x180>
 8004278:	4d24      	ldr	r5, [pc, #144]	; (800430c <HAL_GPIO_Init+0x19c>)
 800427a:	42a8      	cmp	r0, r5
 800427c:	d03a      	beq.n	80042f4 <HAL_GPIO_Init+0x184>
 800427e:	f505 6580 	add.w	r5, r5, #1024	; 0x400
 8004282:	42a8      	cmp	r0, r5
 8004284:	d038      	beq.n	80042f8 <HAL_GPIO_Init+0x188>
 8004286:	f505 6580 	add.w	r5, r5, #1024	; 0x400
 800428a:	42a8      	cmp	r0, r5
 800428c:	d036      	beq.n	80042fc <HAL_GPIO_Init+0x18c>
 800428e:	f505 6580 	add.w	r5, r5, #1024	; 0x400
 8004292:	42a8      	cmp	r0, r5
 8004294:	d034      	beq.n	8004300 <HAL_GPIO_Init+0x190>
 8004296:	f505 6580 	add.w	r5, r5, #1024	; 0x400
 800429a:	42a8      	cmp	r0, r5
 800429c:	d032      	beq.n	8004304 <HAL_GPIO_Init+0x194>
 800429e:	f505 6580 	add.w	r5, r5, #1024	; 0x400
 80042a2:	42a8      	cmp	r0, r5
 80042a4:	bf0c      	ite	eq
 80042a6:	2506      	moveq	r5, #6
 80042a8:	2507      	movne	r5, #7
 80042aa:	fa05 f50e 	lsl.w	r5, r5, lr
 80042ae:	ea45 050c 	orr.w	r5, r5, ip
 80042b2:	60bd      	str	r5, [r7, #8]
 80042b4:	68a5      	ldr	r5, [r4, #8]
 80042b6:	43d7      	mvns	r7, r2
 80042b8:	f416 1f80 	tst.w	r6, #1048576	; 0x100000
 80042bc:	bf0c      	ite	eq
 80042be:	403d      	andeq	r5, r7
 80042c0:	4315      	orrne	r5, r2
 80042c2:	60a5      	str	r5, [r4, #8]
 80042c4:	68e5      	ldr	r5, [r4, #12]
 80042c6:	f416 1f00 	tst.w	r6, #2097152	; 0x200000
 80042ca:	bf0c      	ite	eq
 80042cc:	403d      	andeq	r5, r7
 80042ce:	4315      	orrne	r5, r2
 80042d0:	60e5      	str	r5, [r4, #12]
 80042d2:	6865      	ldr	r5, [r4, #4]
 80042d4:	f416 3f00 	tst.w	r6, #131072	; 0x20000
 80042d8:	bf0c      	ite	eq
 80042da:	403d      	andeq	r5, r7
 80042dc:	4315      	orrne	r5, r2
 80042de:	6065      	str	r5, [r4, #4]
 80042e0:	6825      	ldr	r5, [r4, #0]
 80042e2:	03f6      	lsls	r6, r6, #15
 80042e4:	bf54      	ite	pl
 80042e6:	403d      	andpl	r5, r7
 80042e8:	4315      	orrmi	r5, r2
 80042ea:	6025      	str	r5, [r4, #0]
 80042ec:	3301      	adds	r3, #1
 80042ee:	e745      	b.n	800417c <HAL_GPIO_Init+0xc>
 80042f0:	2500      	movs	r5, #0
 80042f2:	e7da      	b.n	80042aa <HAL_GPIO_Init+0x13a>
 80042f4:	2501      	movs	r5, #1
 80042f6:	e7d8      	b.n	80042aa <HAL_GPIO_Init+0x13a>
 80042f8:	2502      	movs	r5, #2
 80042fa:	e7d6      	b.n	80042aa <HAL_GPIO_Init+0x13a>
 80042fc:	2503      	movs	r5, #3
 80042fe:	e7d4      	b.n	80042aa <HAL_GPIO_Init+0x13a>
 8004300:	2504      	movs	r5, #4
 8004302:	e7d2      	b.n	80042aa <HAL_GPIO_Init+0x13a>
 8004304:	2505      	movs	r5, #5
 8004306:	e7d0      	b.n	80042aa <HAL_GPIO_Init+0x13a>
 8004308:	40010400 	.word	0x40010400
 800430c:	48000400 	.word	0x48000400
 8004310:	40021000 	.word	0x40021000

08004314 <HAL_GPIO_ReadPin>:
 8004314:	6903      	ldr	r3, [r0, #16]
 8004316:	4219      	tst	r1, r3
 8004318:	bf14      	ite	ne
 800431a:	2001      	movne	r0, #1
 800431c:	2000      	moveq	r0, #0
 800431e:	4770      	bx	lr

08004320 <HAL_GPIO_WritePin>:
 8004320:	b10a      	cbz	r2, 8004326 <HAL_GPIO_WritePin+0x6>
 8004322:	6181      	str	r1, [r0, #24]
 8004324:	4770      	bx	lr
 8004326:	6281      	str	r1, [r0, #40]	; 0x28
 8004328:	4770      	bx	lr

0800432a <HAL_GPIO_TogglePin>:
 800432a:	6943      	ldr	r3, [r0, #20]
 800432c:	ea01 0203 	and.w	r2, r1, r3
 8004330:	ea21 0103 	bic.w	r1, r1, r3
 8004334:	ea41 4102 	orr.w	r1, r1, r2, lsl #16
 8004338:	6181      	str	r1, [r0, #24]
 800433a:	4770      	bx	lr

0800433c <HAL_PCD_Init>:
 800433c:	b5f0      	push	{r4, r5, r6, r7, lr}
 800433e:	4604      	mov	r4, r0
 8004340:	b087      	sub	sp, #28
 8004342:	2800      	cmp	r0, #0
 8004344:	d04d      	beq.n	80043e2 <HAL_PCD_Init+0xa6>
 8004346:	f890 32a9 	ldrb.w	r3, [r0, #681]	; 0x2a9
 800434a:	f003 02ff 	and.w	r2, r3, #255	; 0xff
 800434e:	b91b      	cbnz	r3, 8004358 <HAL_PCD_Init+0x1c>
 8004350:	f880 22a8 	strb.w	r2, [r0, #680]	; 0x2a8
 8004354:	f008 fec2 	bl	800d0dc <HAL_PCD_MspInit>
 8004358:	2303      	movs	r3, #3
 800435a:	f884 32a9 	strb.w	r3, [r4, #681]	; 0x2a9
 800435e:	6820      	ldr	r0, [r4, #0]
 8004360:	f003 f97f 	bl	8007662 <USB_DisableGlobalInt>
 8004364:	2300      	movs	r3, #0
 8004366:	6865      	ldr	r5, [r4, #4]
 8004368:	2628      	movs	r6, #40	; 0x28
 800436a:	2701      	movs	r7, #1
 800436c:	4619      	mov	r1, r3
 800436e:	b2d8      	uxtb	r0, r3
 8004370:	4285      	cmp	r5, r0
 8004372:	f103 0301 	add.w	r3, r3, #1
 8004376:	d81b      	bhi.n	80043b0 <HAL_PCD_Init+0x74>
 8004378:	2300      	movs	r3, #0
 800437a:	2628      	movs	r6, #40	; 0x28
 800437c:	4619      	mov	r1, r3
 800437e:	b2d8      	uxtb	r0, r3
 8004380:	4285      	cmp	r5, r0
 8004382:	f103 0301 	add.w	r3, r3, #1
 8004386:	d81f      	bhi.n	80043c8 <HAL_PCD_Init+0x8c>
 8004388:	f104 0610 	add.w	r6, r4, #16
 800438c:	ce0f      	ldmia	r6!, {r0, r1, r2, r3}
 800438e:	466d      	mov	r5, sp
 8004390:	c50f      	stmia	r5!, {r0, r1, r2, r3}
 8004392:	6833      	ldr	r3, [r6, #0]
 8004394:	602b      	str	r3, [r5, #0]
 8004396:	1d23      	adds	r3, r4, #4
 8004398:	cb0e      	ldmia	r3, {r1, r2, r3}
 800439a:	6820      	ldr	r0, [r4, #0]
 800439c:	f003 f96b 	bl	8007676 <USB_DevInit>
 80043a0:	2000      	movs	r0, #0
 80043a2:	2301      	movs	r3, #1
 80043a4:	f884 0024 	strb.w	r0, [r4, #36]	; 0x24
 80043a8:	f884 32a9 	strb.w	r3, [r4, #681]	; 0x2a9
 80043ac:	b007      	add	sp, #28
 80043ae:	bdf0      	pop	{r4, r5, r6, r7, pc}
 80043b0:	fb06 4200 	mla	r2, r6, r0, r4
 80043b4:	e9c2 110e 	strd	r1, r1, [r2, #56]	; 0x38
 80043b8:	f882 7029 	strb.w	r7, [r2, #41]	; 0x29
 80043bc:	f882 0028 	strb.w	r0, [r2, #40]	; 0x28
 80043c0:	f882 102b 	strb.w	r1, [r2, #43]	; 0x2b
 80043c4:	6411      	str	r1, [r2, #64]	; 0x40
 80043c6:	e7d2      	b.n	800436e <HAL_PCD_Init+0x32>
 80043c8:	fb06 4200 	mla	r2, r6, r0, r4
 80043cc:	e9c2 115e 	strd	r1, r1, [r2, #376]	; 0x178
 80043d0:	f882 1169 	strb.w	r1, [r2, #361]	; 0x169
 80043d4:	f882 0168 	strb.w	r0, [r2, #360]	; 0x168
 80043d8:	f882 116b 	strb.w	r1, [r2, #363]	; 0x16b
 80043dc:	f8c2 1180 	str.w	r1, [r2, #384]	; 0x180
 80043e0:	e7cd      	b.n	800437e <HAL_PCD_Init+0x42>
 80043e2:	2001      	movs	r0, #1
 80043e4:	e7e2      	b.n	80043ac <HAL_PCD_Init+0x70>

080043e6 <HAL_PCD_Start>:
 80043e6:	b538      	push	{r3, r4, r5, lr}
 80043e8:	f890 32a8 	ldrb.w	r3, [r0, #680]	; 0x2a8
 80043ec:	2b01      	cmp	r3, #1
 80043ee:	4604      	mov	r4, r0
 80043f0:	d010      	beq.n	8004414 <HAL_PCD_Start+0x2e>
 80043f2:	2501      	movs	r5, #1
 80043f4:	f880 52a8 	strb.w	r5, [r0, #680]	; 0x2a8
 80043f8:	6800      	ldr	r0, [r0, #0]
 80043fa:	f003 f929 	bl	8007650 <USB_EnableGlobalInt>
 80043fe:	4629      	mov	r1, r5
 8004400:	4620      	mov	r0, r4
 8004402:	f008 ff7e 	bl	800d302 <HAL_PCDEx_SetConnectionState>
 8004406:	6820      	ldr	r0, [r4, #0]
 8004408:	f003 fbf0 	bl	8007bec <USB_DevConnect>
 800440c:	2000      	movs	r0, #0
 800440e:	f884 02a8 	strb.w	r0, [r4, #680]	; 0x2a8
 8004412:	bd38      	pop	{r3, r4, r5, pc}
 8004414:	2002      	movs	r0, #2
 8004416:	e7fc      	b.n	8004412 <HAL_PCD_Start+0x2c>

08004418 <HAL_PCD_SetAddress>:
 8004418:	b510      	push	{r4, lr}
 800441a:	f890 22a8 	ldrb.w	r2, [r0, #680]	; 0x2a8
 800441e:	2a01      	cmp	r2, #1
 8004420:	4604      	mov	r4, r0
 8004422:	d00b      	beq.n	800443c <HAL_PCD_SetAddress+0x24>
 8004424:	2201      	movs	r2, #1
 8004426:	f880 22a8 	strb.w	r2, [r0, #680]	; 0x2a8
 800442a:	f880 1024 	strb.w	r1, [r0, #36]	; 0x24
 800442e:	6800      	ldr	r0, [r0, #0]
 8004430:	f003 fbd6 	bl	8007be0 <USB_SetDevAddress>
 8004434:	2000      	movs	r0, #0
 8004436:	f884 02a8 	strb.w	r0, [r4, #680]	; 0x2a8
 800443a:	bd10      	pop	{r4, pc}
 800443c:	2002      	movs	r0, #2
 800443e:	e7fc      	b.n	800443a <HAL_PCD_SetAddress+0x22>

08004440 <HAL_PCD_IRQHandler>:
 8004440:	e92d 4ff7 	stmdb	sp!, {r0, r1, r2, r4, r5, r6, r7, r8, r9, sl, fp, lr}
 8004444:	4604      	mov	r4, r0
 8004446:	6800      	ldr	r0, [r0, #0]
 8004448:	f003 fbd2 	bl	8007bf0 <USB_ReadInterrupts>
 800444c:	f410 4100 	ands.w	r1, r0, #32768	; 0x8000
 8004450:	f000 8439 	beq.w	8004cc6 <HAL_PCD_IRQHandler+0x886>
 8004454:	f8df 831c 	ldr.w	r8, [pc, #796]	; 8004774 <HAL_PCD_IRQHandler+0x334>
 8004458:	4fc5      	ldr	r7, [pc, #788]	; (8004770 <HAL_PCD_IRQHandler+0x330>)
 800445a:	6820      	ldr	r0, [r4, #0]
 800445c:	f8b0 3044 	ldrh.w	r3, [r0, #68]	; 0x44
 8004460:	041a      	lsls	r2, r3, #16
 8004462:	d402      	bmi.n	800446a <HAL_PCD_IRQHandler+0x2a>
 8004464:	b003      	add	sp, #12
 8004466:	e8bd 8ff0 	ldmia.w	sp!, {r4, r5, r6, r7, r8, r9, sl, fp, pc}
 800446a:	f8b0 5044 	ldrh.w	r5, [r0, #68]	; 0x44
 800446e:	b2a9      	uxth	r1, r5
 8004470:	f015 050f 	ands.w	r5, r5, #15
 8004474:	f040 80c2 	bne.w	80045fc <HAL_PCD_IRQHandler+0x1bc>
 8004478:	f011 0110 	ands.w	r1, r1, #16
 800447c:	d12a      	bne.n	80044d4 <HAL_PCD_IRQHandler+0x94>
 800447e:	8803      	ldrh	r3, [r0, #0]
 8004480:	b29b      	uxth	r3, r3
 8004482:	ea03 0308 	and.w	r3, r3, r8
 8004486:	f443 4300 	orr.w	r3, r3, #32768	; 0x8000
 800448a:	8003      	strh	r3, [r0, #0]
 800448c:	f8b0 3050 	ldrh.w	r3, [r0, #80]	; 0x50
 8004490:	f894 2028 	ldrb.w	r2, [r4, #40]	; 0x28
 8004494:	f200 4002 	addw	r0, r0, #1026	; 0x402
 8004498:	fa10 f383 	uxtah	r3, r0, r3
 800449c:	4620      	mov	r0, r4
 800449e:	f833 3032 	ldrh.w	r3, [r3, r2, lsl #3]
 80044a2:	6be2      	ldr	r2, [r4, #60]	; 0x3c
 80044a4:	f3c3 0309 	ubfx	r3, r3, #0, #10
 80044a8:	441a      	add	r2, r3
 80044aa:	6463      	str	r3, [r4, #68]	; 0x44
 80044ac:	63e2      	str	r2, [r4, #60]	; 0x3c
 80044ae:	f008 fe4c 	bl	800d14a <HAL_PCD_DataInStageCallback>
 80044b2:	f894 3024 	ldrb.w	r3, [r4, #36]	; 0x24
 80044b6:	2b00      	cmp	r3, #0
 80044b8:	d0cf      	beq.n	800445a <HAL_PCD_IRQHandler+0x1a>
 80044ba:	6c22      	ldr	r2, [r4, #64]	; 0x40
 80044bc:	6821      	ldr	r1, [r4, #0]
 80044be:	2a00      	cmp	r2, #0
 80044c0:	d1cb      	bne.n	800445a <HAL_PCD_IRQHandler+0x1a>
 80044c2:	f894 3024 	ldrb.w	r3, [r4, #36]	; 0x24
 80044c6:	f043 0380 	orr.w	r3, r3, #128	; 0x80
 80044ca:	f8a1 304c 	strh.w	r3, [r1, #76]	; 0x4c
 80044ce:	f884 2024 	strb.w	r2, [r4, #36]	; 0x24
 80044d2:	e7c2      	b.n	800445a <HAL_PCD_IRQHandler+0x1a>
 80044d4:	8805      	ldrh	r5, [r0, #0]
 80044d6:	b2ab      	uxth	r3, r5
 80044d8:	f415 6500 	ands.w	r5, r5, #2048	; 0x800
 80044dc:	d020      	beq.n	8004520 <HAL_PCD_IRQHandler+0xe0>
 80044de:	f8b0 3050 	ldrh.w	r3, [r0, #80]	; 0x50
 80044e2:	f894 2168 	ldrb.w	r2, [r4, #360]	; 0x168
 80044e6:	f200 4106 	addw	r1, r0, #1030	; 0x406
 80044ea:	fa11 f383 	uxtah	r3, r1, r3
 80044ee:	f504 712c 	add.w	r1, r4, #688	; 0x2b0
 80044f2:	f833 3032 	ldrh.w	r3, [r3, r2, lsl #3]
 80044f6:	f8b4 216e 	ldrh.w	r2, [r4, #366]	; 0x16e
 80044fa:	f3c3 0309 	ubfx	r3, r3, #0, #10
 80044fe:	f8c4 3184 	str.w	r3, [r4, #388]	; 0x184
 8004502:	f003 fdc8 	bl	8008096 <USB_ReadPMA>
 8004506:	6822      	ldr	r2, [r4, #0]
 8004508:	8813      	ldrh	r3, [r2, #0]
 800450a:	f023 0370 	bic.w	r3, r3, #112	; 0x70
 800450e:	051b      	lsls	r3, r3, #20
 8004510:	0d1b      	lsrs	r3, r3, #20
 8004512:	f043 0380 	orr.w	r3, r3, #128	; 0x80
 8004516:	8013      	strh	r3, [r2, #0]
 8004518:	4620      	mov	r0, r4
 800451a:	f008 fe07 	bl	800d12c <HAL_PCD_SetupStageCallback>
 800451e:	e79c      	b.n	800445a <HAL_PCD_IRQHandler+0x1a>
 8004520:	041e      	lsls	r6, r3, #16
 8004522:	d59a      	bpl.n	800445a <HAL_PCD_IRQHandler+0x1a>
 8004524:	8803      	ldrh	r3, [r0, #0]
 8004526:	f023 0370 	bic.w	r3, r3, #112	; 0x70
 800452a:	051b      	lsls	r3, r3, #20
 800452c:	0d1b      	lsrs	r3, r3, #20
 800452e:	f043 0380 	orr.w	r3, r3, #128	; 0x80
 8004532:	8003      	strh	r3, [r0, #0]
 8004534:	f8b0 3050 	ldrh.w	r3, [r0, #80]	; 0x50
 8004538:	f894 2168 	ldrb.w	r2, [r4, #360]	; 0x168
 800453c:	f200 4106 	addw	r1, r0, #1030	; 0x406
 8004540:	fa11 f383 	uxtah	r3, r1, r3
 8004544:	f833 3032 	ldrh.w	r3, [r3, r2, lsl #3]
 8004548:	f3c3 0309 	ubfx	r3, r3, #0, #10
 800454c:	f8c4 3184 	str.w	r3, [r4, #388]	; 0x184
 8004550:	b18b      	cbz	r3, 8004576 <HAL_PCD_IRQHandler+0x136>
 8004552:	f8d4 117c 	ldr.w	r1, [r4, #380]	; 0x17c
 8004556:	b171      	cbz	r1, 8004576 <HAL_PCD_IRQHandler+0x136>
 8004558:	f8b4 216e 	ldrh.w	r2, [r4, #366]	; 0x16e
 800455c:	f003 fd9b 	bl	8008096 <USB_ReadPMA>
 8004560:	f8d4 317c 	ldr.w	r3, [r4, #380]	; 0x17c
 8004564:	f8d4 2184 	ldr.w	r2, [r4, #388]	; 0x184
 8004568:	4413      	add	r3, r2
 800456a:	f8c4 317c 	str.w	r3, [r4, #380]	; 0x17c
 800456e:	4629      	mov	r1, r5
 8004570:	4620      	mov	r0, r4
 8004572:	f008 fde1 	bl	800d138 <HAL_PCD_DataOutStageCallback>
 8004576:	6821      	ldr	r1, [r4, #0]
 8004578:	880a      	ldrh	r2, [r1, #0]
 800457a:	0510      	lsls	r0, r2, #20
 800457c:	b293      	uxth	r3, r2
 800457e:	f53f af6c 	bmi.w	800445a <HAL_PCD_IRQHandler+0x1a>
 8004582:	f403 5340 	and.w	r3, r3, #12288	; 0x3000
 8004586:	f5b3 5f40 	cmp.w	r3, #12288	; 0x3000
 800458a:	f43f af66 	beq.w	800445a <HAL_PCD_IRQHandler+0x1a>
 800458e:	f8b1 3050 	ldrh.w	r3, [r1, #80]	; 0x50
 8004592:	f201 4006 	addw	r0, r1, #1030	; 0x406
 8004596:	b29b      	uxth	r3, r3
 8004598:	5ac2      	ldrh	r2, [r0, r3]
 800459a:	f3c2 0209 	ubfx	r2, r2, #0, #10
 800459e:	52c2      	strh	r2, [r0, r3]
 80045a0:	f8d4 2178 	ldr.w	r2, [r4, #376]	; 0x178
 80045a4:	2a3e      	cmp	r2, #62	; 0x3e
 80045a6:	d90b      	bls.n	80045c0 <HAL_PCD_IRQHandler+0x180>
 80045a8:	0955      	lsrs	r5, r2, #5
 80045aa:	06d2      	lsls	r2, r2, #27
 80045ac:	5ac2      	ldrh	r2, [r0, r3]
 80045ae:	bf08      	it	eq
 80045b0:	f105 35ff 	addeq.w	r5, r5, #4294967295
 80045b4:	b292      	uxth	r2, r2
 80045b6:	ea42 2285 	orr.w	r2, r2, r5, lsl #10
 80045ba:	433a      	orrs	r2, r7
 80045bc:	b292      	uxth	r2, r2
 80045be:	e004      	b.n	80045ca <HAL_PCD_IRQHandler+0x18a>
 80045c0:	b99a      	cbnz	r2, 80045ea <HAL_PCD_IRQHandler+0x1aa>
 80045c2:	5ac2      	ldrh	r2, [r0, r3]
 80045c4:	b292      	uxth	r2, r2
 80045c6:	f442 4200 	orr.w	r2, r2, #32768	; 0x8000
 80045ca:	52c2      	strh	r2, [r0, r3]
 80045cc:	880b      	ldrh	r3, [r1, #0]
 80045ce:	f423 4380 	bic.w	r3, r3, #16384	; 0x4000
 80045d2:	f023 0370 	bic.w	r3, r3, #112	; 0x70
 80045d6:	041b      	lsls	r3, r3, #16
 80045d8:	0c1b      	lsrs	r3, r3, #16
 80045da:	f483 5340 	eor.w	r3, r3, #12288	; 0x3000
 80045de:	f443 4300 	orr.w	r3, r3, #32768	; 0x8000
 80045e2:	f043 0380 	orr.w	r3, r3, #128	; 0x80
 80045e6:	800b      	strh	r3, [r1, #0]
 80045e8:	e737      	b.n	800445a <HAL_PCD_IRQHandler+0x1a>
 80045ea:	0855      	lsrs	r5, r2, #1
 80045ec:	07d6      	lsls	r6, r2, #31
 80045ee:	5ac2      	ldrh	r2, [r0, r3]
 80045f0:	bf48      	it	mi
 80045f2:	3501      	addmi	r5, #1
 80045f4:	b292      	uxth	r2, r2
 80045f6:	ea42 2285 	orr.w	r2, r2, r5, lsl #10
 80045fa:	e7df      	b.n	80045bc <HAL_PCD_IRQHandler+0x17c>
 80045fc:	fa0f f985 	sxth.w	r9, r5
 8004600:	f830 3029 	ldrh.w	r3, [r0, r9, lsl #2]
 8004604:	0419      	lsls	r1, r3, #16
 8004606:	b29e      	uxth	r6, r3
 8004608:	f140 80f4 	bpl.w	80047f4 <HAL_PCD_IRQHandler+0x3b4>
 800460c:	f830 3029 	ldrh.w	r3, [r0, r9, lsl #2]
 8004610:	f023 0370 	bic.w	r3, r3, #112	; 0x70
 8004614:	051b      	lsls	r3, r3, #20
 8004616:	0d1b      	lsrs	r3, r3, #20
 8004618:	f043 0380 	orr.w	r3, r3, #128	; 0x80
 800461c:	2128      	movs	r1, #40	; 0x28
 800461e:	f820 3029 	strh.w	r3, [r0, r9, lsl #2]
 8004622:	fb01 4105 	mla	r1, r1, r5, r4
 8004626:	f891 3174 	ldrb.w	r3, [r1, #372]	; 0x174
 800462a:	b9bb      	cbnz	r3, 800465c <HAL_PCD_IRQHandler+0x21c>
 800462c:	f8b0 3050 	ldrh.w	r3, [r0, #80]	; 0x50
 8004630:	f891 2168 	ldrb.w	r2, [r1, #360]	; 0x168
 8004634:	f200 4c06 	addw	ip, r0, #1030	; 0x406
 8004638:	fa1c f383 	uxtah	r3, ip, r3
 800463c:	f833 a032 	ldrh.w	sl, [r3, r2, lsl #3]
 8004640:	f3ca 0a09 	ubfx	sl, sl, #0, #10
 8004644:	f1ba 0f00 	cmp.w	sl, #0
 8004648:	f000 80b8 	beq.w	80047bc <HAL_PCD_IRQHandler+0x37c>
 800464c:	f8b1 216e 	ldrh.w	r2, [r1, #366]	; 0x16e
 8004650:	4653      	mov	r3, sl
 8004652:	f8d1 117c 	ldr.w	r1, [r1, #380]	; 0x17c
 8004656:	f003 fd1e 	bl	8008096 <USB_ReadPMA>
 800465a:	e0af      	b.n	80047bc <HAL_PCD_IRQHandler+0x37c>
 800465c:	f891 316b 	ldrb.w	r3, [r1, #363]	; 0x16b
 8004660:	2b02      	cmp	r3, #2
 8004662:	f891 3168 	ldrb.w	r3, [r1, #360]	; 0x168
 8004666:	f040 8087 	bne.w	8004778 <HAL_PCD_IRQHandler+0x338>
 800466a:	f8b0 c050 	ldrh.w	ip, [r0, #80]	; 0x50
 800466e:	f8d1 2180 	ldr.w	r2, [r1, #384]	; 0x180
 8004672:	ea4f 0ac3 	mov.w	sl, r3, lsl #3
 8004676:	fa1a fc8c 	uxtah	ip, sl, ip
 800467a:	f416 4b80 	ands.w	fp, r6, #16384	; 0x4000
 800467e:	4484      	add	ip, r0
 8004680:	f006 0e40 	and.w	lr, r6, #64	; 0x40
 8004684:	d03a      	beq.n	80046fc <HAL_PCD_IRQHandler+0x2bc>
 8004686:	f8bc a402 	ldrh.w	sl, [ip, #1026]	; 0x402
 800468a:	f3ca 0a09 	ubfx	sl, sl, #0, #10
 800468e:	4592      	cmp	sl, r2
 8004690:	d913      	bls.n	80046ba <HAL_PCD_IRQHandler+0x27a>
 8004692:	2200      	movs	r2, #0
 8004694:	f8c1 2180 	str.w	r2, [r1, #384]	; 0x180
 8004698:	f830 2023 	ldrh.w	r2, [r0, r3, lsl #2]
 800469c:	f422 4280 	bic.w	r2, r2, #16384	; 0x4000
 80046a0:	f022 0270 	bic.w	r2, r2, #112	; 0x70
 80046a4:	0412      	lsls	r2, r2, #16
 80046a6:	0c12      	lsrs	r2, r2, #16
 80046a8:	f482 5200 	eor.w	r2, r2, #8192	; 0x2000
 80046ac:	f442 4200 	orr.w	r2, r2, #32768	; 0x8000
 80046b0:	f042 0280 	orr.w	r2, r2, #128	; 0x80
 80046b4:	f820 2023 	strh.w	r2, [r0, r3, lsl #2]
 80046b8:	e005      	b.n	80046c6 <HAL_PCD_IRQHandler+0x286>
 80046ba:	eba2 020a 	sub.w	r2, r2, sl
 80046be:	f8c1 2180 	str.w	r2, [r1, #384]	; 0x180
 80046c2:	2a00      	cmp	r2, #0
 80046c4:	d0e8      	beq.n	8004698 <HAL_PCD_IRQHandler+0x258>
 80046c6:	f1be 0f00 	cmp.w	lr, #0
 80046ca:	d00d      	beq.n	80046e8 <HAL_PCD_IRQHandler+0x2a8>
 80046cc:	f830 2023 	ldrh.w	r2, [r0, r3, lsl #2]
 80046d0:	f422 42e0 	bic.w	r2, r2, #28672	; 0x7000
 80046d4:	f022 0270 	bic.w	r2, r2, #112	; 0x70
 80046d8:	0412      	lsls	r2, r2, #16
 80046da:	0c12      	lsrs	r2, r2, #16
 80046dc:	f442 4200 	orr.w	r2, r2, #32768	; 0x8000
 80046e0:	f042 02c0 	orr.w	r2, r2, #192	; 0xc0
 80046e4:	f820 2023 	strh.w	r2, [r0, r3, lsl #2]
 80046e8:	f1ba 0f00 	cmp.w	sl, #0
 80046ec:	d066      	beq.n	80047bc <HAL_PCD_IRQHandler+0x37c>
 80046ee:	2128      	movs	r1, #40	; 0x28
 80046f0:	fb01 4105 	mla	r1, r1, r5, r4
 80046f4:	f8b1 2170 	ldrh.w	r2, [r1, #368]	; 0x170
 80046f8:	4653      	mov	r3, sl
 80046fa:	e7aa      	b.n	8004652 <HAL_PCD_IRQHandler+0x212>
 80046fc:	f8bc a406 	ldrh.w	sl, [ip, #1030]	; 0x406
 8004700:	f3ca 0a09 	ubfx	sl, sl, #0, #10
 8004704:	4592      	cmp	sl, r2
 8004706:	d912      	bls.n	800472e <HAL_PCD_IRQHandler+0x2ee>
 8004708:	f8c1 b180 	str.w	fp, [r1, #384]	; 0x180
 800470c:	f830 2023 	ldrh.w	r2, [r0, r3, lsl #2]
 8004710:	f422 4280 	bic.w	r2, r2, #16384	; 0x4000
 8004714:	f022 0270 	bic.w	r2, r2, #112	; 0x70
 8004718:	0412      	lsls	r2, r2, #16
 800471a:	0c12      	lsrs	r2, r2, #16
 800471c:	f482 5200 	eor.w	r2, r2, #8192	; 0x2000
 8004720:	f442 4200 	orr.w	r2, r2, #32768	; 0x8000
 8004724:	f042 0280 	orr.w	r2, r2, #128	; 0x80
 8004728:	f820 2023 	strh.w	r2, [r0, r3, lsl #2]
 800472c:	e005      	b.n	800473a <HAL_PCD_IRQHandler+0x2fa>
 800472e:	eba2 020a 	sub.w	r2, r2, sl
 8004732:	f8c1 2180 	str.w	r2, [r1, #384]	; 0x180
 8004736:	2a00      	cmp	r2, #0
 8004738:	d0e8      	beq.n	800470c <HAL_PCD_IRQHandler+0x2cc>
 800473a:	f1be 0f00 	cmp.w	lr, #0
 800473e:	d10d      	bne.n	800475c <HAL_PCD_IRQHandler+0x31c>
 8004740:	f830 2023 	ldrh.w	r2, [r0, r3, lsl #2]
 8004744:	f422 42e0 	bic.w	r2, r2, #28672	; 0x7000
 8004748:	f022 0270 	bic.w	r2, r2, #112	; 0x70
 800474c:	0412      	lsls	r2, r2, #16
 800474e:	0c12      	lsrs	r2, r2, #16
 8004750:	f442 4200 	orr.w	r2, r2, #32768	; 0x8000
 8004754:	f042 02c0 	orr.w	r2, r2, #192	; 0xc0
 8004758:	f820 2023 	strh.w	r2, [r0, r3, lsl #2]
 800475c:	f1ba 0f00 	cmp.w	sl, #0
 8004760:	d02c      	beq.n	80047bc <HAL_PCD_IRQHandler+0x37c>
 8004762:	2128      	movs	r1, #40	; 0x28
 8004764:	fb01 4105 	mla	r1, r1, r5, r4
 8004768:	f8b1 2172 	ldrh.w	r2, [r1, #370]	; 0x172
 800476c:	4653      	mov	r3, sl
 800476e:	e770      	b.n	8004652 <HAL_PCD_IRQHandler+0x212>
 8004770:	ffff8000 	.word	0xffff8000
 8004774:	ffff8f0f 	.word	0xffff8f0f
 8004778:	f830 2023 	ldrh.w	r2, [r0, r3, lsl #2]
 800477c:	f422 42e0 	bic.w	r2, r2, #28672	; 0x7000
 8004780:	f022 0270 	bic.w	r2, r2, #112	; 0x70
 8004784:	0412      	lsls	r2, r2, #16
 8004786:	0c12      	lsrs	r2, r2, #16
 8004788:	f442 4200 	orr.w	r2, r2, #32768	; 0x8000
 800478c:	f042 02c0 	orr.w	r2, r2, #192	; 0xc0
 8004790:	f820 2023 	strh.w	r2, [r0, r3, lsl #2]
 8004794:	f891 2168 	ldrb.w	r2, [r1, #360]	; 0x168
 8004798:	f830 3022 	ldrh.w	r3, [r0, r2, lsl #2]
 800479c:	f413 4f80 	tst.w	r3, #16384	; 0x4000
 80047a0:	f8b0 3050 	ldrh.w	r3, [r0, #80]	; 0x50
 80047a4:	d060      	beq.n	8004868 <HAL_PCD_IRQHandler+0x428>
 80047a6:	f200 4c02 	addw	ip, r0, #1026	; 0x402
 80047aa:	fa1c f383 	uxtah	r3, ip, r3
 80047ae:	f833 a032 	ldrh.w	sl, [r3, r2, lsl #3]
 80047b2:	f3ca 0a09 	ubfx	sl, sl, #0, #10
 80047b6:	f1ba 0f00 	cmp.w	sl, #0
 80047ba:	d19b      	bne.n	80046f4 <HAL_PCD_IRQHandler+0x2b4>
 80047bc:	2128      	movs	r1, #40	; 0x28
 80047be:	fb01 4305 	mla	r3, r1, r5, r4
 80047c2:	f8d3 2184 	ldr.w	r2, [r3, #388]	; 0x184
 80047c6:	4452      	add	r2, sl
 80047c8:	f8c3 2184 	str.w	r2, [r3, #388]	; 0x184
 80047cc:	f8d3 217c 	ldr.w	r2, [r3, #380]	; 0x17c
 80047d0:	4452      	add	r2, sl
 80047d2:	f8c3 217c 	str.w	r2, [r3, #380]	; 0x17c
 80047d6:	f8d3 2180 	ldr.w	r2, [r3, #384]	; 0x180
 80047da:	b11a      	cbz	r2, 80047e4 <HAL_PCD_IRQHandler+0x3a4>
 80047dc:	f8d3 3178 	ldr.w	r3, [r3, #376]	; 0x178
 80047e0:	459a      	cmp	sl, r3
 80047e2:	d24d      	bcs.n	8004880 <HAL_PCD_IRQHandler+0x440>
 80047e4:	2328      	movs	r3, #40	; 0x28
 80047e6:	fb03 4305 	mla	r3, r3, r5, r4
 80047ea:	4620      	mov	r0, r4
 80047ec:	f893 1168 	ldrb.w	r1, [r3, #360]	; 0x168
 80047f0:	f008 fca2 	bl	800d138 <HAL_PCD_DataOutStageCallback>
 80047f4:	0632      	lsls	r2, r6, #24
 80047f6:	6820      	ldr	r0, [r4, #0]
 80047f8:	f57f ae2f 	bpl.w	800445a <HAL_PCD_IRQHandler+0x1a>
 80047fc:	f830 3029 	ldrh.w	r3, [r0, r9, lsl #2]
 8004800:	b29b      	uxth	r3, r3
 8004802:	ea03 0308 	and.w	r3, r3, r8
 8004806:	f443 4300 	orr.w	r3, r3, #32768	; 0x8000
 800480a:	f820 3029 	strh.w	r3, [r0, r9, lsl #2]
 800480e:	eb09 0989 	add.w	r9, r9, r9, lsl #2
 8004812:	eb04 09c9 	add.w	r9, r4, r9, lsl #3
 8004816:	f04f 0c28 	mov.w	ip, #40	; 0x28
 800481a:	f899 302b 	ldrb.w	r3, [r9, #43]	; 0x2b
 800481e:	2b01      	cmp	r3, #1
 8004820:	d159      	bne.n	80048d6 <HAL_PCD_IRQHandler+0x496>
 8004822:	fb0c 4c05 	mla	ip, ip, r5, r4
 8004826:	2500      	movs	r5, #0
 8004828:	f89c 3034 	ldrb.w	r3, [ip, #52]	; 0x34
 800482c:	f8cc 5040 	str.w	r5, [ip, #64]	; 0x40
 8004830:	2b00      	cmp	r3, #0
 8004832:	d038      	beq.n	80048a6 <HAL_PCD_IRQHandler+0x466>
 8004834:	f016 0640 	ands.w	r6, r6, #64	; 0x40
 8004838:	f899 3029 	ldrb.w	r3, [r9, #41]	; 0x29
 800483c:	f899 2028 	ldrb.w	r2, [r9, #40]	; 0x28
 8004840:	d037      	beq.n	80048b2 <HAL_PCD_IRQHandler+0x472>
 8004842:	bb2b      	cbnz	r3, 8004890 <HAL_PCD_IRQHandler+0x450>
 8004844:	f8b0 3050 	ldrh.w	r3, [r0, #80]	; 0x50
 8004848:	f200 4002 	addw	r0, r0, #1026	; 0x402
 800484c:	fa10 f383 	uxtah	r3, r0, r3
 8004850:	eb03 03c2 	add.w	r3, r3, r2, lsl #3
 8004854:	881a      	ldrh	r2, [r3, #0]
 8004856:	f3c2 0209 	ubfx	r2, r2, #0, #10
 800485a:	801a      	strh	r2, [r3, #0]
 800485c:	881a      	ldrh	r2, [r3, #0]
 800485e:	b292      	uxth	r2, r2
 8004860:	f442 4200 	orr.w	r2, r2, #32768	; 0x8000
 8004864:	801a      	strh	r2, [r3, #0]
 8004866:	e01e      	b.n	80048a6 <HAL_PCD_IRQHandler+0x466>
 8004868:	f200 4c06 	addw	ip, r0, #1030	; 0x406
 800486c:	fa1c f383 	uxtah	r3, ip, r3
 8004870:	f833 a032 	ldrh.w	sl, [r3, r2, lsl #3]
 8004874:	f3ca 0a09 	ubfx	sl, sl, #0, #10
 8004878:	f1ba 0f00 	cmp.w	sl, #0
 800487c:	d09e      	beq.n	80047bc <HAL_PCD_IRQHandler+0x37c>
 800487e:	e773      	b.n	8004768 <HAL_PCD_IRQHandler+0x328>
 8004880:	fb01 4105 	mla	r1, r1, r5, r4
 8004884:	6820      	ldr	r0, [r4, #0]
 8004886:	f501 71b4 	add.w	r1, r1, #360	; 0x168
 800488a:	f003 f9c4 	bl	8007c16 <USB_EPStartXfer>
 800488e:	e7b1      	b.n	80047f4 <HAL_PCD_IRQHandler+0x3b4>
 8004890:	2b01      	cmp	r3, #1
 8004892:	d108      	bne.n	80048a6 <HAL_PCD_IRQHandler+0x466>
 8004894:	f8b0 3050 	ldrh.w	r3, [r0, #80]	; 0x50
 8004898:	f200 4002 	addw	r0, r0, #1026	; 0x402
 800489c:	fa10 f383 	uxtah	r3, r0, r3
 80048a0:	eb03 03c2 	add.w	r3, r3, r2, lsl #3
 80048a4:	801d      	strh	r5, [r3, #0]
 80048a6:	f899 1028 	ldrb.w	r1, [r9, #40]	; 0x28
 80048aa:	4620      	mov	r0, r4
 80048ac:	f008 fc4d 	bl	800d14a <HAL_PCD_DataInStageCallback>
 80048b0:	e5d3      	b.n	800445a <HAL_PCD_IRQHandler+0x1a>
 80048b2:	b923      	cbnz	r3, 80048be <HAL_PCD_IRQHandler+0x47e>
 80048b4:	f8b0 3050 	ldrh.w	r3, [r0, #80]	; 0x50
 80048b8:	f200 4006 	addw	r0, r0, #1030	; 0x406
 80048bc:	e7c6      	b.n	800484c <HAL_PCD_IRQHandler+0x40c>
 80048be:	2b01      	cmp	r3, #1
 80048c0:	d1f1      	bne.n	80048a6 <HAL_PCD_IRQHandler+0x466>
 80048c2:	f8b0 3050 	ldrh.w	r3, [r0, #80]	; 0x50
 80048c6:	f200 4006 	addw	r0, r0, #1030	; 0x406
 80048ca:	fa10 f383 	uxtah	r3, r0, r3
 80048ce:	eb03 03c2 	add.w	r3, r3, r2, lsl #3
 80048d2:	801e      	strh	r6, [r3, #0]
 80048d4:	e7e7      	b.n	80048a6 <HAL_PCD_IRQHandler+0x466>
 80048d6:	f899 1028 	ldrb.w	r1, [r9, #40]	; 0x28
 80048da:	fb0c 4e05 	mla	lr, ip, r5, r4
 80048de:	f416 7a80 	ands.w	sl, r6, #256	; 0x100
 80048e2:	f8de 3040 	ldr.w	r3, [lr, #64]	; 0x40
 80048e6:	460a      	mov	r2, r1
 80048e8:	ea4f 0bc1 	mov.w	fp, r1, lsl #3
 80048ec:	d121      	bne.n	8004932 <HAL_PCD_IRQHandler+0x4f2>
 80048ee:	f8b0 2050 	ldrh.w	r2, [r0, #80]	; 0x50
 80048f2:	fa10 f282 	uxtah	r2, r0, r2
 80048f6:	445a      	add	r2, fp
 80048f8:	f8b2 6402 	ldrh.w	r6, [r2, #1026]	; 0x402
 80048fc:	f3c6 0609 	ubfx	r6, r6, #0, #10
 8004900:	429e      	cmp	r6, r3
 8004902:	d302      	bcc.n	800490a <HAL_PCD_IRQHandler+0x4ca>
 8004904:	f8ce a040 	str.w	sl, [lr, #64]	; 0x40
 8004908:	e7cf      	b.n	80048aa <HAL_PCD_IRQHandler+0x46a>
 800490a:	1b9b      	subs	r3, r3, r6
 800490c:	f8de 203c 	ldr.w	r2, [lr, #60]	; 0x3c
 8004910:	f8ce 3040 	str.w	r3, [lr, #64]	; 0x40
 8004914:	f8de 3044 	ldr.w	r3, [lr, #68]	; 0x44
 8004918:	4432      	add	r2, r6
 800491a:	4433      	add	r3, r6
 800491c:	fb05 cc0c 	mla	ip, r5, ip, ip
 8004920:	f8ce 203c 	str.w	r2, [lr, #60]	; 0x3c
 8004924:	f8ce 3044 	str.w	r3, [lr, #68]	; 0x44
 8004928:	eb04 010c 	add.w	r1, r4, ip
 800492c:	f003 f973 	bl	8007c16 <USB_EPStartXfer>
 8004930:	e593      	b.n	800445a <HAL_PCD_IRQHandler+0x1a>
 8004932:	f016 0a40 	ands.w	sl, r6, #64	; 0x40
 8004936:	f8b0 c050 	ldrh.w	ip, [r0, #80]	; 0x50
 800493a:	f406 4680 	and.w	r6, r6, #16384	; 0x4000
 800493e:	f000 80e4 	beq.w	8004b0a <HAL_PCD_IRQHandler+0x6ca>
 8004942:	f200 4e02 	addw	lr, r0, #1026	; 0x402
 8004946:	fa1e fc8c 	uxtah	ip, lr, ip
 800494a:	f04f 0a28 	mov.w	sl, #40	; 0x28
 800494e:	f83c c031 	ldrh.w	ip, [ip, r1, lsl #3]
 8004952:	f3cc 0c09 	ubfx	ip, ip, #0, #10
 8004956:	459c      	cmp	ip, r3
 8004958:	fb0a 4a05 	mla	sl, sl, r5, r4
 800495c:	bf34      	ite	cc
 800495e:	eba3 030c 	subcc.w	r3, r3, ip
 8004962:	2300      	movcs	r3, #0
 8004964:	f8ca 3040 	str.w	r3, [sl, #64]	; 0x40
 8004968:	b2b6      	uxth	r6, r6
 800496a:	2b00      	cmp	r3, #0
 800496c:	d14f      	bne.n	8004a0e <HAL_PCD_IRQHandler+0x5ce>
 800496e:	f899 5029 	ldrb.w	r5, [r9, #41]	; 0x29
 8004972:	bbdd      	cbnz	r5, 80049ec <HAL_PCD_IRQHandler+0x5ac>
 8004974:	f8b0 3050 	ldrh.w	r3, [r0, #80]	; 0x50
 8004978:	fa1e f383 	uxtah	r3, lr, r3
 800497c:	f833 5031 	ldrh.w	r5, [r3, r1, lsl #3]
 8004980:	f3c5 0509 	ubfx	r5, r5, #0, #10
 8004984:	f823 5031 	strh.w	r5, [r3, r1, lsl #3]
 8004988:	f833 5031 	ldrh.w	r5, [r3, r1, lsl #3]
 800498c:	b2ad      	uxth	r5, r5
 800498e:	f445 4500 	orr.w	r5, r5, #32768	; 0x8000
 8004992:	f823 5031 	strh.w	r5, [r3, r1, lsl #3]
 8004996:	f8b0 3050 	ldrh.w	r3, [r0, #80]	; 0x50
 800499a:	f200 4006 	addw	r0, r0, #1030	; 0x406
 800499e:	fa10 f083 	uxtah	r0, r0, r3
 80049a2:	f830 3031 	ldrh.w	r3, [r0, r1, lsl #3]
 80049a6:	f3c3 0309 	ubfx	r3, r3, #0, #10
 80049aa:	f820 3031 	strh.w	r3, [r0, r1, lsl #3]
 80049ae:	f830 3031 	ldrh.w	r3, [r0, r1, lsl #3]
 80049b2:	b29b      	uxth	r3, r3
 80049b4:	f443 4300 	orr.w	r3, r3, #32768	; 0x8000
 80049b8:	f820 3031 	strh.w	r3, [r0, r1, lsl #3]
 80049bc:	4620      	mov	r0, r4
 80049be:	f008 fbc4 	bl	800d14a <HAL_PCD_DataInStageCallback>
 80049c2:	2e00      	cmp	r6, #0
 80049c4:	f000 80e6 	beq.w	8004b94 <HAL_PCD_IRQHandler+0x754>
 80049c8:	f899 1028 	ldrb.w	r1, [r9, #40]	; 0x28
 80049cc:	6822      	ldr	r2, [r4, #0]
 80049ce:	f832 3021 	ldrh.w	r3, [r2, r1, lsl #2]
 80049d2:	f423 43e0 	bic.w	r3, r3, #28672	; 0x7000
 80049d6:	f023 0370 	bic.w	r3, r3, #112	; 0x70
 80049da:	041b      	lsls	r3, r3, #16
 80049dc:	0c1b      	lsrs	r3, r3, #16
 80049de:	f443 4340 	orr.w	r3, r3, #49152	; 0xc000
 80049e2:	f043 0380 	orr.w	r3, r3, #128	; 0x80
 80049e6:	f822 3021 	strh.w	r3, [r2, r1, lsl #2]
 80049ea:	e0d3      	b.n	8004b94 <HAL_PCD_IRQHandler+0x754>
 80049ec:	2d01      	cmp	r5, #1
 80049ee:	d1e5      	bne.n	80049bc <HAL_PCD_IRQHandler+0x57c>
 80049f0:	f8b0 5050 	ldrh.w	r5, [r0, #80]	; 0x50
 80049f4:	fa1e f585 	uxtah	r5, lr, r5
 80049f8:	f825 3031 	strh.w	r3, [r5, r1, lsl #3]
 80049fc:	f8b0 5050 	ldrh.w	r5, [r0, #80]	; 0x50
 8004a00:	f200 4006 	addw	r0, r0, #1030	; 0x406
 8004a04:	fa10 f585 	uxtah	r5, r0, r5
 8004a08:	f825 3031 	strh.w	r3, [r5, r1, lsl #3]
 8004a0c:	e7d6      	b.n	80049bc <HAL_PCD_IRQHandler+0x57c>
 8004a0e:	b16e      	cbz	r6, 8004a2c <HAL_PCD_IRQHandler+0x5ec>
 8004a10:	f830 3021 	ldrh.w	r3, [r0, r1, lsl #2]
 8004a14:	f423 43e0 	bic.w	r3, r3, #28672	; 0x7000
 8004a18:	f023 0370 	bic.w	r3, r3, #112	; 0x70
 8004a1c:	041b      	lsls	r3, r3, #16
 8004a1e:	0c1b      	lsrs	r3, r3, #16
 8004a20:	f443 4340 	orr.w	r3, r3, #49152	; 0xc000
 8004a24:	f043 0380 	orr.w	r3, r3, #128	; 0x80
 8004a28:	f820 3021 	strh.w	r3, [r0, r1, lsl #2]
 8004a2c:	2628      	movs	r6, #40	; 0x28
 8004a2e:	fb06 4605 	mla	r6, r6, r5, r4
 8004a32:	f896 304c 	ldrb.w	r3, [r6, #76]	; 0x4c
 8004a36:	2b01      	cmp	r3, #1
 8004a38:	f040 80ac 	bne.w	8004b94 <HAL_PCD_IRQHandler+0x754>
 8004a3c:	6c73      	ldr	r3, [r6, #68]	; 0x44
 8004a3e:	6bf1      	ldr	r1, [r6, #60]	; 0x3c
 8004a40:	f8d6 a048 	ldr.w	sl, [r6, #72]	; 0x48
 8004a44:	4463      	add	r3, ip
 8004a46:	6473      	str	r3, [r6, #68]	; 0x44
 8004a48:	6bb3      	ldr	r3, [r6, #56]	; 0x38
 8004a4a:	4461      	add	r1, ip
 8004a4c:	459a      	cmp	sl, r3
 8004a4e:	63f1      	str	r1, [r6, #60]	; 0x3c
 8004a50:	d32f      	bcc.n	8004ab2 <HAL_PCD_IRQHandler+0x672>
 8004a52:	ebaa 0a03 	sub.w	sl, sl, r3
 8004a56:	f8c6 a048 	str.w	sl, [r6, #72]	; 0x48
 8004a5a:	f899 6029 	ldrb.w	r6, [r9, #41]	; 0x29
 8004a5e:	fa1f fa83 	uxth.w	sl, r3
 8004a62:	2e00      	cmp	r6, #0
 8004a64:	d148      	bne.n	8004af8 <HAL_PCD_IRQHandler+0x6b8>
 8004a66:	f8b0 6050 	ldrh.w	r6, [r0, #80]	; 0x50
 8004a6a:	fa1e f686 	uxtah	r6, lr, r6
 8004a6e:	2b3e      	cmp	r3, #62	; 0x3e
 8004a70:	f836 c032 	ldrh.w	ip, [r6, r2, lsl #3]
 8004a74:	f3cc 0c09 	ubfx	ip, ip, #0, #10
 8004a78:	f826 c032 	strh.w	ip, [r6, r2, lsl #3]
 8004a7c:	d926      	bls.n	8004acc <HAL_PCD_IRQHandler+0x68c>
 8004a7e:	f836 c032 	ldrh.w	ip, [r6, r2, lsl #3]
 8004a82:	ea4f 1e53 	mov.w	lr, r3, lsr #5
 8004a86:	06db      	lsls	r3, r3, #27
 8004a88:	bf08      	it	eq
 8004a8a:	f10e 3eff 	addeq.w	lr, lr, #4294967295
 8004a8e:	fa1f fc8c 	uxth.w	ip, ip
 8004a92:	ea4c 2c8e 	orr.w	ip, ip, lr, lsl #10
 8004a96:	ea4c 0c07 	orr.w	ip, ip, r7
 8004a9a:	fa1f fc8c 	uxth.w	ip, ip
 8004a9e:	f826 c032 	strh.w	ip, [r6, r2, lsl #3]
 8004aa2:	2228      	movs	r2, #40	; 0x28
 8004aa4:	fb02 4205 	mla	r2, r2, r5, r4
 8004aa8:	4653      	mov	r3, sl
 8004aaa:	8e12      	ldrh	r2, [r2, #48]	; 0x30
 8004aac:	f003 f8a4 	bl	8007bf8 <USB_WritePMA>
 8004ab0:	e070      	b.n	8004b94 <HAL_PCD_IRQHandler+0x754>
 8004ab2:	f1ba 0f00 	cmp.w	sl, #0
 8004ab6:	d103      	bne.n	8004ac0 <HAL_PCD_IRQHandler+0x680>
 8004ab8:	f886 a04c 	strb.w	sl, [r6, #76]	; 0x4c
 8004abc:	4663      	mov	r3, ip
 8004abe:	e7cc      	b.n	8004a5a <HAL_PCD_IRQHandler+0x61a>
 8004ac0:	2300      	movs	r3, #0
 8004ac2:	f886 304c 	strb.w	r3, [r6, #76]	; 0x4c
 8004ac6:	64b3      	str	r3, [r6, #72]	; 0x48
 8004ac8:	4653      	mov	r3, sl
 8004aca:	e7c6      	b.n	8004a5a <HAL_PCD_IRQHandler+0x61a>
 8004acc:	b93b      	cbnz	r3, 8004ade <HAL_PCD_IRQHandler+0x69e>
 8004ace:	f836 3032 	ldrh.w	r3, [r6, r2, lsl #3]
 8004ad2:	b29b      	uxth	r3, r3
 8004ad4:	f443 4300 	orr.w	r3, r3, #32768	; 0x8000
 8004ad8:	f826 3032 	strh.w	r3, [r6, r2, lsl #3]
 8004adc:	e7e1      	b.n	8004aa2 <HAL_PCD_IRQHandler+0x662>
 8004ade:	ea4f 0c53 	mov.w	ip, r3, lsr #1
 8004ae2:	07db      	lsls	r3, r3, #31
 8004ae4:	f836 3032 	ldrh.w	r3, [r6, r2, lsl #3]
 8004ae8:	bf48      	it	mi
 8004aea:	f10c 0c01 	addmi.w	ip, ip, #1
 8004aee:	b29b      	uxth	r3, r3
 8004af0:	ea43 238c 	orr.w	r3, r3, ip, lsl #10
 8004af4:	b29b      	uxth	r3, r3
 8004af6:	e7ef      	b.n	8004ad8 <HAL_PCD_IRQHandler+0x698>
 8004af8:	2e01      	cmp	r6, #1
 8004afa:	bf02      	ittt	eq
 8004afc:	f8b0 3050 	ldrheq.w	r3, [r0, #80]	; 0x50
 8004b00:	fa1e f383 	uxtaheq	r3, lr, r3
 8004b04:	f823 a032 	strheq.w	sl, [r3, r2, lsl #3]
 8004b08:	e7cb      	b.n	8004aa2 <HAL_PCD_IRQHandler+0x662>
 8004b0a:	f200 4e06 	addw	lr, r0, #1030	; 0x406
 8004b0e:	fa1e fc8c 	uxtah	ip, lr, ip
 8004b12:	b2b6      	uxth	r6, r6
 8004b14:	f83c c031 	ldrh.w	ip, [ip, r1, lsl #3]
 8004b18:	f3cc 0c09 	ubfx	ip, ip, #0, #10
 8004b1c:	459c      	cmp	ip, r3
 8004b1e:	bf88      	it	hi
 8004b20:	4653      	movhi	r3, sl
 8004b22:	f04f 0a28 	mov.w	sl, #40	; 0x28
 8004b26:	fb0a 4a05 	mla	sl, sl, r5, r4
 8004b2a:	bf98      	it	ls
 8004b2c:	eba3 030c 	subls.w	r3, r3, ip
 8004b30:	f8ca 3040 	str.w	r3, [sl, #64]	; 0x40
 8004b34:	2b00      	cmp	r3, #0
 8004b36:	d151      	bne.n	8004bdc <HAL_PCD_IRQHandler+0x79c>
 8004b38:	f899 5029 	ldrb.w	r5, [r9, #41]	; 0x29
 8004b3c:	2d00      	cmp	r5, #0
 8004b3e:	d13c      	bne.n	8004bba <HAL_PCD_IRQHandler+0x77a>
 8004b40:	f8b0 3050 	ldrh.w	r3, [r0, #80]	; 0x50
 8004b44:	f200 4502 	addw	r5, r0, #1026	; 0x402
 8004b48:	fa15 f383 	uxtah	r3, r5, r3
 8004b4c:	f833 5031 	ldrh.w	r5, [r3, r1, lsl #3]
 8004b50:	f3c5 0509 	ubfx	r5, r5, #0, #10
 8004b54:	f823 5031 	strh.w	r5, [r3, r1, lsl #3]
 8004b58:	f833 5031 	ldrh.w	r5, [r3, r1, lsl #3]
 8004b5c:	b2ad      	uxth	r5, r5
 8004b5e:	f445 4500 	orr.w	r5, r5, #32768	; 0x8000
 8004b62:	f823 5031 	strh.w	r5, [r3, r1, lsl #3]
 8004b66:	f8b0 3050 	ldrh.w	r3, [r0, #80]	; 0x50
 8004b6a:	fa1e f383 	uxtah	r3, lr, r3
 8004b6e:	f833 0031 	ldrh.w	r0, [r3, r1, lsl #3]
 8004b72:	f3c0 0009 	ubfx	r0, r0, #0, #10
 8004b76:	f823 0031 	strh.w	r0, [r3, r1, lsl #3]
 8004b7a:	f833 0031 	ldrh.w	r0, [r3, r1, lsl #3]
 8004b7e:	b280      	uxth	r0, r0
 8004b80:	f440 4000 	orr.w	r0, r0, #32768	; 0x8000
 8004b84:	f823 0031 	strh.w	r0, [r3, r1, lsl #3]
 8004b88:	4620      	mov	r0, r4
 8004b8a:	f008 fade 	bl	800d14a <HAL_PCD_DataInStageCallback>
 8004b8e:	2e00      	cmp	r6, #0
 8004b90:	f43f af1a 	beq.w	80049c8 <HAL_PCD_IRQHandler+0x588>
 8004b94:	f899 1028 	ldrb.w	r1, [r9, #40]	; 0x28
 8004b98:	6822      	ldr	r2, [r4, #0]
 8004b9a:	f832 3021 	ldrh.w	r3, [r2, r1, lsl #2]
 8004b9e:	b29b      	uxth	r3, r3
 8004ba0:	f423 43e0 	bic.w	r3, r3, #28672	; 0x7000
 8004ba4:	f023 0340 	bic.w	r3, r3, #64	; 0x40
 8004ba8:	f083 0330 	eor.w	r3, r3, #48	; 0x30
 8004bac:	f443 4300 	orr.w	r3, r3, #32768	; 0x8000
 8004bb0:	f043 0380 	orr.w	r3, r3, #128	; 0x80
 8004bb4:	f822 3021 	strh.w	r3, [r2, r1, lsl #2]
 8004bb8:	e44f      	b.n	800445a <HAL_PCD_IRQHandler+0x1a>
 8004bba:	2d01      	cmp	r5, #1
 8004bbc:	d1e4      	bne.n	8004b88 <HAL_PCD_IRQHandler+0x748>
 8004bbe:	f8b0 5050 	ldrh.w	r5, [r0, #80]	; 0x50
 8004bc2:	f200 4c02 	addw	ip, r0, #1026	; 0x402
 8004bc6:	fa1c f585 	uxtah	r5, ip, r5
 8004bca:	f825 3031 	strh.w	r3, [r5, r1, lsl #3]
 8004bce:	f8b0 0050 	ldrh.w	r0, [r0, #80]	; 0x50
 8004bd2:	fa1e f080 	uxtah	r0, lr, r0
 8004bd6:	f820 3031 	strh.w	r3, [r0, r1, lsl #3]
 8004bda:	e7d5      	b.n	8004b88 <HAL_PCD_IRQHandler+0x748>
 8004bdc:	b96e      	cbnz	r6, 8004bfa <HAL_PCD_IRQHandler+0x7ba>
 8004bde:	f830 3021 	ldrh.w	r3, [r0, r1, lsl #2]
 8004be2:	f423 43e0 	bic.w	r3, r3, #28672	; 0x7000
 8004be6:	f023 0370 	bic.w	r3, r3, #112	; 0x70
 8004bea:	041b      	lsls	r3, r3, #16
 8004bec:	0c1b      	lsrs	r3, r3, #16
 8004bee:	f443 4340 	orr.w	r3, r3, #49152	; 0xc000
 8004bf2:	f043 0380 	orr.w	r3, r3, #128	; 0x80
 8004bf6:	f820 3021 	strh.w	r3, [r0, r1, lsl #2]
 8004bfa:	2628      	movs	r6, #40	; 0x28
 8004bfc:	fb06 4605 	mla	r6, r6, r5, r4
 8004c00:	f896 304c 	ldrb.w	r3, [r6, #76]	; 0x4c
 8004c04:	2b01      	cmp	r3, #1
 8004c06:	d1c5      	bne.n	8004b94 <HAL_PCD_IRQHandler+0x754>
 8004c08:	6c73      	ldr	r3, [r6, #68]	; 0x44
 8004c0a:	6bf1      	ldr	r1, [r6, #60]	; 0x3c
 8004c0c:	f8d6 a048 	ldr.w	sl, [r6, #72]	; 0x48
 8004c10:	4463      	add	r3, ip
 8004c12:	6473      	str	r3, [r6, #68]	; 0x44
 8004c14:	6bb3      	ldr	r3, [r6, #56]	; 0x38
 8004c16:	4461      	add	r1, ip
 8004c18:	459a      	cmp	sl, r3
 8004c1a:	63f1      	str	r1, [r6, #60]	; 0x3c
 8004c1c:	d323      	bcc.n	8004c66 <HAL_PCD_IRQHandler+0x826>
 8004c1e:	ebaa 0a03 	sub.w	sl, sl, r3
 8004c22:	f8c6 a048 	str.w	sl, [r6, #72]	; 0x48
 8004c26:	f899 6029 	ldrb.w	r6, [r9, #41]	; 0x29
 8004c2a:	fa1f fc83 	uxth.w	ip, r3
 8004c2e:	2e00      	cmp	r6, #0
 8004c30:	d140      	bne.n	8004cb4 <HAL_PCD_IRQHandler+0x874>
 8004c32:	f8b0 6050 	ldrh.w	r6, [r0, #80]	; 0x50
 8004c36:	fa1e f686 	uxtah	r6, lr, r6
 8004c3a:	2b3e      	cmp	r3, #62	; 0x3e
 8004c3c:	f836 e032 	ldrh.w	lr, [r6, r2, lsl #3]
 8004c40:	f3ce 0e09 	ubfx	lr, lr, #0, #10
 8004c44:	f826 e032 	strh.w	lr, [r6, r2, lsl #3]
 8004c48:	d91a      	bls.n	8004c80 <HAL_PCD_IRQHandler+0x840>
 8004c4a:	ea4f 1e53 	mov.w	lr, r3, lsr #5
 8004c4e:	06db      	lsls	r3, r3, #27
 8004c50:	f836 3032 	ldrh.w	r3, [r6, r2, lsl #3]
 8004c54:	bf08      	it	eq
 8004c56:	f10e 3eff 	addeq.w	lr, lr, #4294967295
 8004c5a:	b29b      	uxth	r3, r3
 8004c5c:	ea43 238e 	orr.w	r3, r3, lr, lsl #10
 8004c60:	433b      	orrs	r3, r7
 8004c62:	b29b      	uxth	r3, r3
 8004c64:	e012      	b.n	8004c8c <HAL_PCD_IRQHandler+0x84c>
 8004c66:	f1ba 0f00 	cmp.w	sl, #0
 8004c6a:	d103      	bne.n	8004c74 <HAL_PCD_IRQHandler+0x834>
 8004c6c:	f886 a04c 	strb.w	sl, [r6, #76]	; 0x4c
 8004c70:	4663      	mov	r3, ip
 8004c72:	e7d8      	b.n	8004c26 <HAL_PCD_IRQHandler+0x7e6>
 8004c74:	2300      	movs	r3, #0
 8004c76:	64b3      	str	r3, [r6, #72]	; 0x48
 8004c78:	f886 304c 	strb.w	r3, [r6, #76]	; 0x4c
 8004c7c:	4653      	mov	r3, sl
 8004c7e:	e7d2      	b.n	8004c26 <HAL_PCD_IRQHandler+0x7e6>
 8004c80:	b963      	cbnz	r3, 8004c9c <HAL_PCD_IRQHandler+0x85c>
 8004c82:	f836 3032 	ldrh.w	r3, [r6, r2, lsl #3]
 8004c86:	b29b      	uxth	r3, r3
 8004c88:	f443 4300 	orr.w	r3, r3, #32768	; 0x8000
 8004c8c:	f826 3032 	strh.w	r3, [r6, r2, lsl #3]
 8004c90:	2328      	movs	r3, #40	; 0x28
 8004c92:	fb03 4505 	mla	r5, r3, r5, r4
 8004c96:	4663      	mov	r3, ip
 8004c98:	8e6a      	ldrh	r2, [r5, #50]	; 0x32
 8004c9a:	e707      	b.n	8004aac <HAL_PCD_IRQHandler+0x66c>
 8004c9c:	ea4f 0e53 	mov.w	lr, r3, lsr #1
 8004ca0:	07db      	lsls	r3, r3, #31
 8004ca2:	f836 3032 	ldrh.w	r3, [r6, r2, lsl #3]
 8004ca6:	bf48      	it	mi
 8004ca8:	f10e 0e01 	addmi.w	lr, lr, #1
 8004cac:	b29b      	uxth	r3, r3
 8004cae:	ea43 238e 	orr.w	r3, r3, lr, lsl #10
 8004cb2:	e7d6      	b.n	8004c62 <HAL_PCD_IRQHandler+0x822>
 8004cb4:	2e01      	cmp	r6, #1
 8004cb6:	bf02      	ittt	eq
 8004cb8:	f8b0 3050 	ldrheq.w	r3, [r0, #80]	; 0x50
 8004cbc:	fa1e f383 	uxtaheq	r3, lr, r3
 8004cc0:	f823 c032 	strheq.w	ip, [r3, r2, lsl #3]
 8004cc4:	e7e4      	b.n	8004c90 <HAL_PCD_IRQHandler+0x850>
 8004cc6:	0543      	lsls	r3, r0, #21
 8004cc8:	d513      	bpl.n	8004cf2 <HAL_PCD_IRQHandler+0x8b2>
 8004cca:	6822      	ldr	r2, [r4, #0]
 8004ccc:	9101      	str	r1, [sp, #4]
 8004cce:	f8b2 3044 	ldrh.w	r3, [r2, #68]	; 0x44
 8004cd2:	f423 6380 	bic.w	r3, r3, #1024	; 0x400
 8004cd6:	041b      	lsls	r3, r3, #16
 8004cd8:	0c1b      	lsrs	r3, r3, #16
 8004cda:	4620      	mov	r0, r4
 8004cdc:	f8a2 3044 	strh.w	r3, [r2, #68]	; 0x44
 8004ce0:	f008 fa3f 	bl	800d162 <HAL_PCD_ResetCallback>
 8004ce4:	9901      	ldr	r1, [sp, #4]
 8004ce6:	4620      	mov	r0, r4
 8004ce8:	b003      	add	sp, #12
 8004cea:	e8bd 4ff0 	ldmia.w	sp!, {r4, r5, r6, r7, r8, r9, sl, fp, lr}
 8004cee:	f7ff bb93 	b.w	8004418 <HAL_PCD_SetAddress>
 8004cf2:	0447      	lsls	r7, r0, #17
 8004cf4:	d50a      	bpl.n	8004d0c <HAL_PCD_IRQHandler+0x8cc>
 8004cf6:	6822      	ldr	r2, [r4, #0]
 8004cf8:	f8b2 3044 	ldrh.w	r3, [r2, #68]	; 0x44
 8004cfc:	f423 4380 	bic.w	r3, r3, #16384	; 0x4000
 8004d00:	041b      	lsls	r3, r3, #16
 8004d02:	0c1b      	lsrs	r3, r3, #16
 8004d04:	f8a2 3044 	strh.w	r3, [r2, #68]	; 0x44
 8004d08:	f7ff bbac 	b.w	8004464 <HAL_PCD_IRQHandler+0x24>
 8004d0c:	0486      	lsls	r6, r0, #18
 8004d0e:	d505      	bpl.n	8004d1c <HAL_PCD_IRQHandler+0x8dc>
 8004d10:	6822      	ldr	r2, [r4, #0]
 8004d12:	f8b2 3044 	ldrh.w	r3, [r2, #68]	; 0x44
 8004d16:	f423 5300 	bic.w	r3, r3, #8192	; 0x2000
 8004d1a:	e7f1      	b.n	8004d00 <HAL_PCD_IRQHandler+0x8c0>
 8004d1c:	04c5      	lsls	r5, r0, #19
 8004d1e:	d519      	bpl.n	8004d54 <HAL_PCD_IRQHandler+0x914>
 8004d20:	6822      	ldr	r2, [r4, #0]
 8004d22:	f8b2 3040 	ldrh.w	r3, [r2, #64]	; 0x40
 8004d26:	f023 0304 	bic.w	r3, r3, #4
 8004d2a:	041b      	lsls	r3, r3, #16
 8004d2c:	0c1b      	lsrs	r3, r3, #16
 8004d2e:	f8a2 3040 	strh.w	r3, [r2, #64]	; 0x40
 8004d32:	f8b2 3040 	ldrh.w	r3, [r2, #64]	; 0x40
 8004d36:	f023 0308 	bic.w	r3, r3, #8
 8004d3a:	041b      	lsls	r3, r3, #16
 8004d3c:	0c1b      	lsrs	r3, r3, #16
 8004d3e:	f8a2 3040 	strh.w	r3, [r2, #64]	; 0x40
 8004d42:	4620      	mov	r0, r4
 8004d44:	f008 fa30 	bl	800d1a8 <HAL_PCD_ResumeCallback>
 8004d48:	6822      	ldr	r2, [r4, #0]
 8004d4a:	f8b2 3044 	ldrh.w	r3, [r2, #68]	; 0x44
 8004d4e:	f423 5380 	bic.w	r3, r3, #4096	; 0x1000
 8004d52:	e7d5      	b.n	8004d00 <HAL_PCD_IRQHandler+0x8c0>
 8004d54:	0501      	lsls	r1, r0, #20
 8004d56:	d51b      	bpl.n	8004d90 <HAL_PCD_IRQHandler+0x950>
 8004d58:	6822      	ldr	r2, [r4, #0]
 8004d5a:	f8b2 3040 	ldrh.w	r3, [r2, #64]	; 0x40
 8004d5e:	b29b      	uxth	r3, r3
 8004d60:	f043 0308 	orr.w	r3, r3, #8
 8004d64:	f8a2 3040 	strh.w	r3, [r2, #64]	; 0x40
 8004d68:	f8b2 3044 	ldrh.w	r3, [r2, #68]	; 0x44
 8004d6c:	f423 6300 	bic.w	r3, r3, #2048	; 0x800
 8004d70:	041b      	lsls	r3, r3, #16
 8004d72:	0c1b      	lsrs	r3, r3, #16
 8004d74:	f8a2 3044 	strh.w	r3, [r2, #68]	; 0x44
 8004d78:	f8b2 3040 	ldrh.w	r3, [r2, #64]	; 0x40
 8004d7c:	b29b      	uxth	r3, r3
 8004d7e:	f043 0304 	orr.w	r3, r3, #4
 8004d82:	f8a2 3040 	strh.w	r3, [r2, #64]	; 0x40
 8004d86:	4620      	mov	r0, r4
 8004d88:	f008 f9fe 	bl	800d188 <HAL_PCD_SuspendCallback>
 8004d8c:	f7ff bb6a 	b.w	8004464 <HAL_PCD_IRQHandler+0x24>
 8004d90:	0582      	lsls	r2, r0, #22
 8004d92:	d50d      	bpl.n	8004db0 <HAL_PCD_IRQHandler+0x970>
 8004d94:	6822      	ldr	r2, [r4, #0]
 8004d96:	f8b2 3044 	ldrh.w	r3, [r2, #68]	; 0x44
 8004d9a:	f423 7300 	bic.w	r3, r3, #512	; 0x200
 8004d9e:	041b      	lsls	r3, r3, #16
 8004da0:	0c1b      	lsrs	r3, r3, #16
 8004da2:	f8a2 3044 	strh.w	r3, [r2, #68]	; 0x44
 8004da6:	4620      	mov	r0, r4
 8004da8:	f008 f9d7 	bl	800d15a <HAL_PCD_SOFCallback>
 8004dac:	f7ff bb5a 	b.w	8004464 <HAL_PCD_IRQHandler+0x24>
 8004db0:	05c3      	lsls	r3, r0, #23
 8004db2:	f57f ab57 	bpl.w	8004464 <HAL_PCD_IRQHandler+0x24>
 8004db6:	6822      	ldr	r2, [r4, #0]
 8004db8:	f8b2 3044 	ldrh.w	r3, [r2, #68]	; 0x44
 8004dbc:	f423 7380 	bic.w	r3, r3, #256	; 0x100
 8004dc0:	e79e      	b.n	8004d00 <HAL_PCD_IRQHandler+0x8c0>
 8004dc2:	bf00      	nop

08004dc4 <HAL_PCD_EP_Open>:
 8004dc4:	f011 0f80 	tst.w	r1, #128	; 0x80
 8004dc8:	b570      	push	{r4, r5, r6, lr}
 8004dca:	4604      	mov	r4, r0
 8004dcc:	f001 0507 	and.w	r5, r1, #7
 8004dd0:	f04f 0028 	mov.w	r0, #40	; 0x28
 8004dd4:	d019      	beq.n	8004e0a <HAL_PCD_EP_Open+0x46>
 8004dd6:	fb05 0000 	mla	r0, r5, r0, r0
 8004dda:	1821      	adds	r1, r4, r0
 8004ddc:	2001      	movs	r0, #1
 8004dde:	7048      	strb	r0, [r1, #1]
 8004de0:	2b02      	cmp	r3, #2
 8004de2:	70cb      	strb	r3, [r1, #3]
 8004de4:	bf04      	itt	eq
 8004de6:	2300      	moveq	r3, #0
 8004de8:	710b      	strbeq	r3, [r1, #4]
 8004dea:	700d      	strb	r5, [r1, #0]
 8004dec:	610a      	str	r2, [r1, #16]
 8004dee:	f894 32a8 	ldrb.w	r3, [r4, #680]	; 0x2a8
 8004df2:	2b01      	cmp	r3, #1
 8004df4:	d013      	beq.n	8004e1e <HAL_PCD_EP_Open+0x5a>
 8004df6:	2301      	movs	r3, #1
 8004df8:	6820      	ldr	r0, [r4, #0]
 8004dfa:	f884 32a8 	strb.w	r3, [r4, #680]	; 0x2a8
 8004dfe:	f002 fc4f 	bl	80076a0 <USB_ActivateEndpoint>
 8004e02:	2000      	movs	r0, #0
 8004e04:	f884 02a8 	strb.w	r0, [r4, #680]	; 0x2a8
 8004e08:	bd70      	pop	{r4, r5, r6, pc}
 8004e0a:	fb00 4105 	mla	r1, r0, r5, r4
 8004e0e:	fb00 4005 	mla	r0, r0, r5, r4
 8004e12:	2600      	movs	r6, #0
 8004e14:	f501 71b4 	add.w	r1, r1, #360	; 0x168
 8004e18:	f880 6169 	strb.w	r6, [r0, #361]	; 0x169
 8004e1c:	e7e0      	b.n	8004de0 <HAL_PCD_EP_Open+0x1c>
 8004e1e:	2002      	movs	r0, #2
 8004e20:	e7f2      	b.n	8004e08 <HAL_PCD_EP_Open+0x44>

08004e22 <HAL_PCD_EP_Close>:
 8004e22:	f011 0f80 	tst.w	r1, #128	; 0x80
 8004e26:	b510      	push	{r4, lr}
 8004e28:	f001 0207 	and.w	r2, r1, #7
 8004e2c:	4604      	mov	r4, r0
 8004e2e:	f04f 0328 	mov.w	r3, #40	; 0x28
 8004e32:	d013      	beq.n	8004e5c <HAL_PCD_EP_Close+0x3a>
 8004e34:	fb02 3303 	mla	r3, r2, r3, r3
 8004e38:	18c1      	adds	r1, r0, r3
 8004e3a:	2301      	movs	r3, #1
 8004e3c:	704b      	strb	r3, [r1, #1]
 8004e3e:	700a      	strb	r2, [r1, #0]
 8004e40:	f894 32a8 	ldrb.w	r3, [r4, #680]	; 0x2a8
 8004e44:	2b01      	cmp	r3, #1
 8004e46:	d013      	beq.n	8004e70 <HAL_PCD_EP_Close+0x4e>
 8004e48:	2301      	movs	r3, #1
 8004e4a:	6820      	ldr	r0, [r4, #0]
 8004e4c:	f884 32a8 	strb.w	r3, [r4, #680]	; 0x2a8
 8004e50:	f002 fd8a 	bl	8007968 <USB_DeactivateEndpoint>
 8004e54:	2000      	movs	r0, #0
 8004e56:	f884 02a8 	strb.w	r0, [r4, #680]	; 0x2a8
 8004e5a:	bd10      	pop	{r4, pc}
 8004e5c:	fb03 0102 	mla	r1, r3, r2, r0
 8004e60:	fb03 0302 	mla	r3, r3, r2, r0
 8004e64:	2000      	movs	r0, #0
 8004e66:	f501 71b4 	add.w	r1, r1, #360	; 0x168
 8004e6a:	f883 0169 	strb.w	r0, [r3, #361]	; 0x169
 8004e6e:	e7e6      	b.n	8004e3e <HAL_PCD_EP_Close+0x1c>
 8004e70:	2002      	movs	r0, #2
 8004e72:	e7f2      	b.n	8004e5a <HAL_PCD_EP_Close+0x38>

08004e74 <HAL_PCD_EP_Receive>:
 8004e74:	b570      	push	{r4, r5, r6, lr}
 8004e76:	f001 0107 	and.w	r1, r1, #7
 8004e7a:	2628      	movs	r6, #40	; 0x28
 8004e7c:	fb06 0401 	mla	r4, r6, r1, r0
 8004e80:	2500      	movs	r5, #0
 8004e82:	f884 1168 	strb.w	r1, [r4, #360]	; 0x168
 8004e86:	e9c4 235f 	strd	r2, r3, [r4, #380]	; 0x17c
 8004e8a:	f8c4 5184 	str.w	r5, [r4, #388]	; 0x184
 8004e8e:	f884 5169 	strb.w	r5, [r4, #361]	; 0x169
 8004e92:	f504 71b4 	add.w	r1, r4, #360	; 0x168
 8004e96:	6800      	ldr	r0, [r0, #0]
 8004e98:	f002 febd 	bl	8007c16 <USB_EPStartXfer>
 8004e9c:	4628      	mov	r0, r5
 8004e9e:	bd70      	pop	{r4, r5, r6, pc}

08004ea0 <HAL_PCD_EP_GetRxCount>:
 8004ea0:	f001 0107 	and.w	r1, r1, #7
 8004ea4:	2328      	movs	r3, #40	; 0x28
 8004ea6:	fb03 0001 	mla	r0, r3, r1, r0
 8004eaa:	f8d0 0184 	ldr.w	r0, [r0, #388]	; 0x184
 8004eae:	4770      	bx	lr

08004eb0 <HAL_PCD_EP_Transmit>:
 8004eb0:	b570      	push	{r4, r5, r6, lr}
 8004eb2:	f001 0107 	and.w	r1, r1, #7
 8004eb6:	2428      	movs	r4, #40	; 0x28
 8004eb8:	fb04 0501 	mla	r5, r4, r1, r0
 8004ebc:	e9c5 230f 	strd	r2, r3, [r5, #60]	; 0x3c
 8004ec0:	64ab      	str	r3, [r5, #72]	; 0x48
 8004ec2:	eb01 0381 	add.w	r3, r1, r1, lsl #2
 8004ec6:	eb00 03c3 	add.w	r3, r0, r3, lsl #3
 8004eca:	2201      	movs	r2, #1
 8004ecc:	2600      	movs	r6, #0
 8004ece:	fb01 4404 	mla	r4, r1, r4, r4
 8004ed2:	f885 204c 	strb.w	r2, [r5, #76]	; 0x4c
 8004ed6:	646e      	str	r6, [r5, #68]	; 0x44
 8004ed8:	f883 1028 	strb.w	r1, [r3, #40]	; 0x28
 8004edc:	f883 2029 	strb.w	r2, [r3, #41]	; 0x29
 8004ee0:	1901      	adds	r1, r0, r4
 8004ee2:	6800      	ldr	r0, [r0, #0]
 8004ee4:	f002 fe97 	bl	8007c16 <USB_EPStartXfer>
 8004ee8:	4630      	mov	r0, r6
 8004eea:	bd70      	pop	{r4, r5, r6, pc}

08004eec <HAL_PCD_EP_SetStall>:
 8004eec:	b510      	push	{r4, lr}
 8004eee:	4604      	mov	r4, r0
 8004ef0:	f001 0007 	and.w	r0, r1, #7
 8004ef4:	6863      	ldr	r3, [r4, #4]
 8004ef6:	4298      	cmp	r0, r3
 8004ef8:	d824      	bhi.n	8004f44 <HAL_PCD_EP_SetStall+0x58>
 8004efa:	f011 0f80 	tst.w	r1, #128	; 0x80
 8004efe:	f04f 0328 	mov.w	r3, #40	; 0x28
 8004f02:	d015      	beq.n	8004f30 <HAL_PCD_EP_SetStall+0x44>
 8004f04:	fb00 3303 	mla	r3, r0, r3, r3
 8004f08:	18e2      	adds	r2, r4, r3
 8004f0a:	2301      	movs	r3, #1
 8004f0c:	7053      	strb	r3, [r2, #1]
 8004f0e:	2301      	movs	r3, #1
 8004f10:	7093      	strb	r3, [r2, #2]
 8004f12:	7010      	strb	r0, [r2, #0]
 8004f14:	f894 12a8 	ldrb.w	r1, [r4, #680]	; 0x2a8
 8004f18:	4299      	cmp	r1, r3
 8004f1a:	d015      	beq.n	8004f48 <HAL_PCD_EP_SetStall+0x5c>
 8004f1c:	6820      	ldr	r0, [r4, #0]
 8004f1e:	f884 32a8 	strb.w	r3, [r4, #680]	; 0x2a8
 8004f22:	4611      	mov	r1, r2
 8004f24:	f002 fdf3 	bl	8007b0e <USB_EPSetStall>
 8004f28:	2000      	movs	r0, #0
 8004f2a:	f884 02a8 	strb.w	r0, [r4, #680]	; 0x2a8
 8004f2e:	bd10      	pop	{r4, pc}
 8004f30:	fb03 4201 	mla	r2, r3, r1, r4
 8004f34:	fb03 4301 	mla	r3, r3, r1, r4
 8004f38:	2100      	movs	r1, #0
 8004f3a:	f502 72b4 	add.w	r2, r2, #360	; 0x168
 8004f3e:	f883 1169 	strb.w	r1, [r3, #361]	; 0x169
 8004f42:	e7e4      	b.n	8004f0e <HAL_PCD_EP_SetStall+0x22>
 8004f44:	2001      	movs	r0, #1
 8004f46:	e7f2      	b.n	8004f2e <HAL_PCD_EP_SetStall+0x42>
 8004f48:	2002      	movs	r0, #2
 8004f4a:	e7f0      	b.n	8004f2e <HAL_PCD_EP_SetStall+0x42>

08004f4c <HAL_PCD_EP_ClrStall>:
 8004f4c:	b538      	push	{r3, r4, r5, lr}
 8004f4e:	6843      	ldr	r3, [r0, #4]
 8004f50:	f001 020f 	and.w	r2, r1, #15
 8004f54:	429a      	cmp	r2, r3
 8004f56:	4604      	mov	r4, r0
 8004f58:	d826      	bhi.n	8004fa8 <HAL_PCD_EP_ClrStall+0x5c>
 8004f5a:	f011 0f80 	tst.w	r1, #128	; 0x80
 8004f5e:	f001 0207 	and.w	r2, r1, #7
 8004f62:	f04f 0328 	mov.w	r3, #40	; 0x28
 8004f66:	d015      	beq.n	8004f94 <HAL_PCD_EP_ClrStall+0x48>
 8004f68:	fb02 3303 	mla	r3, r2, r3, r3
 8004f6c:	18c1      	adds	r1, r0, r3
 8004f6e:	2301      	movs	r3, #1
 8004f70:	704b      	strb	r3, [r1, #1]
 8004f72:	2500      	movs	r5, #0
 8004f74:	708d      	strb	r5, [r1, #2]
 8004f76:	700a      	strb	r2, [r1, #0]
 8004f78:	f894 32a8 	ldrb.w	r3, [r4, #680]	; 0x2a8
 8004f7c:	2b01      	cmp	r3, #1
 8004f7e:	d015      	beq.n	8004fac <HAL_PCD_EP_ClrStall+0x60>
 8004f80:	2301      	movs	r3, #1
 8004f82:	6820      	ldr	r0, [r4, #0]
 8004f84:	f884 32a8 	strb.w	r3, [r4, #680]	; 0x2a8
 8004f88:	f002 fde1 	bl	8007b4e <USB_EPClearStall>
 8004f8c:	f884 52a8 	strb.w	r5, [r4, #680]	; 0x2a8
 8004f90:	4628      	mov	r0, r5
 8004f92:	bd38      	pop	{r3, r4, r5, pc}
 8004f94:	fb03 0102 	mla	r1, r3, r2, r0
 8004f98:	fb03 0302 	mla	r3, r3, r2, r0
 8004f9c:	2000      	movs	r0, #0
 8004f9e:	f501 71b4 	add.w	r1, r1, #360	; 0x168
 8004fa2:	f883 0169 	strb.w	r0, [r3, #361]	; 0x169
 8004fa6:	e7e4      	b.n	8004f72 <HAL_PCD_EP_ClrStall+0x26>
 8004fa8:	2001      	movs	r0, #1
 8004faa:	e7f2      	b.n	8004f92 <HAL_PCD_EP_ClrStall+0x46>
 8004fac:	2002      	movs	r0, #2
 8004fae:	e7f0      	b.n	8004f92 <HAL_PCD_EP_ClrStall+0x46>

08004fb0 <HAL_PCDEx_PMAConfig>:
 8004fb0:	f011 0f80 	tst.w	r1, #128	; 0x80
 8004fb4:	bf18      	it	ne
 8004fb6:	f001 0107 	andne.w	r1, r1, #7
 8004fba:	b510      	push	{r4, lr}
 8004fbc:	f04f 0428 	mov.w	r4, #40	; 0x28
 8004fc0:	bf15      	itete	ne
 8004fc2:	fb01 4404 	mlane	r4, r1, r4, r4
 8004fc6:	fb04 0001 	mlaeq	r0, r4, r1, r0
 8004fca:	1900      	addne	r0, r0, r4
 8004fcc:	f500 70b4 	addeq.w	r0, r0, #360	; 0x168
 8004fd0:	b299      	uxth	r1, r3
 8004fd2:	b91a      	cbnz	r2, 8004fdc <HAL_PCDEx_PMAConfig+0x2c>
 8004fd4:	7302      	strb	r2, [r0, #12]
 8004fd6:	80c1      	strh	r1, [r0, #6]
 8004fd8:	2000      	movs	r0, #0
 8004fda:	bd10      	pop	{r4, pc}
 8004fdc:	2201      	movs	r2, #1
 8004fde:	7302      	strb	r2, [r0, #12]
 8004fe0:	6083      	str	r3, [r0, #8]
 8004fe2:	e7f9      	b.n	8004fd8 <HAL_PCDEx_PMAConfig+0x28>

08004fe4 <HAL_RCC_OscConfig>:
 8004fe4:	e92d 47f3 	stmdb	sp!, {r0, r1, r4, r5, r6, r7, r8, r9, sl, lr}
 8004fe8:	4604      	mov	r4, r0
 8004fea:	2800      	cmp	r0, #0
 8004fec:	d036      	beq.n	800505c <HAL_RCC_OscConfig+0x78>
 8004fee:	6803      	ldr	r3, [r0, #0]
 8004ff0:	07df      	lsls	r7, r3, #31
 8004ff2:	d411      	bmi.n	8005018 <HAL_RCC_OscConfig+0x34>
 8004ff4:	6823      	ldr	r3, [r4, #0]
 8004ff6:	079e      	lsls	r6, r3, #30
 8004ff8:	f100 8085 	bmi.w	8005106 <HAL_RCC_OscConfig+0x122>
 8004ffc:	6823      	ldr	r3, [r4, #0]
 8004ffe:	071d      	lsls	r5, r3, #28
 8005000:	f100 80f2 	bmi.w	80051e8 <HAL_RCC_OscConfig+0x204>
 8005004:	6823      	ldr	r3, [r4, #0]
 8005006:	0758      	lsls	r0, r3, #29
 8005008:	f100 8137 	bmi.w	800527a <HAL_RCC_OscConfig+0x296>
 800500c:	69a0      	ldr	r0, [r4, #24]
 800500e:	2800      	cmp	r0, #0
 8005010:	f040 81bd 	bne.w	800538e <HAL_RCC_OscConfig+0x3aa>
 8005014:	2000      	movs	r0, #0
 8005016:	e043      	b.n	80050a0 <HAL_RCC_OscConfig+0xbc>
 8005018:	4db4      	ldr	r5, [pc, #720]	; (80052ec <HAL_RCC_OscConfig+0x308>)
 800501a:	686b      	ldr	r3, [r5, #4]
 800501c:	f003 030c 	and.w	r3, r3, #12
 8005020:	2b04      	cmp	r3, #4
 8005022:	d00a      	beq.n	800503a <HAL_RCC_OscConfig+0x56>
 8005024:	686b      	ldr	r3, [r5, #4]
 8005026:	f003 030c 	and.w	r3, r3, #12
 800502a:	2b08      	cmp	r3, #8
 800502c:	d118      	bne.n	8005060 <HAL_RCC_OscConfig+0x7c>
 800502e:	686b      	ldr	r3, [r5, #4]
 8005030:	f403 33c0 	and.w	r3, r3, #98304	; 0x18000
 8005034:	f5b3 3f80 	cmp.w	r3, #65536	; 0x10000
 8005038:	d112      	bne.n	8005060 <HAL_RCC_OscConfig+0x7c>
 800503a:	f44f 3300 	mov.w	r3, #131072	; 0x20000
 800503e:	fa93 f2a3 	rbit	r2, r3
 8005042:	6829      	ldr	r1, [r5, #0]
 8005044:	fa93 f3a3 	rbit	r3, r3
 8005048:	2201      	movs	r2, #1
 800504a:	fab3 f383 	clz	r3, r3
 800504e:	fa02 f303 	lsl.w	r3, r2, r3
 8005052:	420b      	tst	r3, r1
 8005054:	d0ce      	beq.n	8004ff4 <HAL_RCC_OscConfig+0x10>
 8005056:	6863      	ldr	r3, [r4, #4]
 8005058:	2b00      	cmp	r3, #0
 800505a:	d1cb      	bne.n	8004ff4 <HAL_RCC_OscConfig+0x10>
 800505c:	2001      	movs	r0, #1
 800505e:	e01f      	b.n	80050a0 <HAL_RCC_OscConfig+0xbc>
 8005060:	6863      	ldr	r3, [r4, #4]
 8005062:	f5b3 3f80 	cmp.w	r3, #65536	; 0x10000
 8005066:	d11e      	bne.n	80050a6 <HAL_RCC_OscConfig+0xc2>
 8005068:	682b      	ldr	r3, [r5, #0]
 800506a:	f443 3380 	orr.w	r3, r3, #65536	; 0x10000
 800506e:	602b      	str	r3, [r5, #0]
 8005070:	f7fe f918 	bl	80032a4 <HAL_GetTick>
 8005074:	f44f 3700 	mov.w	r7, #131072	; 0x20000
 8005078:	4606      	mov	r6, r0
 800507a:	f04f 0801 	mov.w	r8, #1
 800507e:	fa97 f3a7 	rbit	r3, r7
 8005082:	682a      	ldr	r2, [r5, #0]
 8005084:	fa97 f3a7 	rbit	r3, r7
 8005088:	fab3 f383 	clz	r3, r3
 800508c:	fa08 f303 	lsl.w	r3, r8, r3
 8005090:	4213      	tst	r3, r2
 8005092:	d1af      	bne.n	8004ff4 <HAL_RCC_OscConfig+0x10>
 8005094:	f7fe f906 	bl	80032a4 <HAL_GetTick>
 8005098:	1b80      	subs	r0, r0, r6
 800509a:	2864      	cmp	r0, #100	; 0x64
 800509c:	d9ef      	bls.n	800507e <HAL_RCC_OscConfig+0x9a>
 800509e:	2003      	movs	r0, #3
 80050a0:	b002      	add	sp, #8
 80050a2:	e8bd 87f0 	ldmia.w	sp!, {r4, r5, r6, r7, r8, r9, sl, pc}
 80050a6:	b9fb      	cbnz	r3, 80050e8 <HAL_RCC_OscConfig+0x104>
 80050a8:	682b      	ldr	r3, [r5, #0]
 80050aa:	f423 3380 	bic.w	r3, r3, #65536	; 0x10000
 80050ae:	602b      	str	r3, [r5, #0]
 80050b0:	682b      	ldr	r3, [r5, #0]
 80050b2:	f423 2380 	bic.w	r3, r3, #262144	; 0x40000
 80050b6:	602b      	str	r3, [r5, #0]
 80050b8:	f7fe f8f4 	bl	80032a4 <HAL_GetTick>
 80050bc:	f44f 3700 	mov.w	r7, #131072	; 0x20000
 80050c0:	4606      	mov	r6, r0
 80050c2:	f04f 0801 	mov.w	r8, #1
 80050c6:	fa97 f3a7 	rbit	r3, r7
 80050ca:	682a      	ldr	r2, [r5, #0]
 80050cc:	fa97 f3a7 	rbit	r3, r7
 80050d0:	fab3 f383 	clz	r3, r3
 80050d4:	fa08 f303 	lsl.w	r3, r8, r3
 80050d8:	4213      	tst	r3, r2
 80050da:	d08b      	beq.n	8004ff4 <HAL_RCC_OscConfig+0x10>
 80050dc:	f7fe f8e2 	bl	80032a4 <HAL_GetTick>
 80050e0:	1b80      	subs	r0, r0, r6
 80050e2:	2864      	cmp	r0, #100	; 0x64
 80050e4:	d9ef      	bls.n	80050c6 <HAL_RCC_OscConfig+0xe2>
 80050e6:	e7da      	b.n	800509e <HAL_RCC_OscConfig+0xba>
 80050e8:	f5b3 2fa0 	cmp.w	r3, #327680	; 0x50000
 80050ec:	682b      	ldr	r3, [r5, #0]
 80050ee:	d103      	bne.n	80050f8 <HAL_RCC_OscConfig+0x114>
 80050f0:	f443 2380 	orr.w	r3, r3, #262144	; 0x40000
 80050f4:	602b      	str	r3, [r5, #0]
 80050f6:	e7b7      	b.n	8005068 <HAL_RCC_OscConfig+0x84>
 80050f8:	f423 3380 	bic.w	r3, r3, #65536	; 0x10000
 80050fc:	602b      	str	r3, [r5, #0]
 80050fe:	682b      	ldr	r3, [r5, #0]
 8005100:	f423 2380 	bic.w	r3, r3, #262144	; 0x40000
 8005104:	e7b3      	b.n	800506e <HAL_RCC_OscConfig+0x8a>
 8005106:	4d79      	ldr	r5, [pc, #484]	; (80052ec <HAL_RCC_OscConfig+0x308>)
 8005108:	686b      	ldr	r3, [r5, #4]
 800510a:	f013 0f0c 	tst.w	r3, #12
 800510e:	d00a      	beq.n	8005126 <HAL_RCC_OscConfig+0x142>
 8005110:	686b      	ldr	r3, [r5, #4]
 8005112:	f003 030c 	and.w	r3, r3, #12
 8005116:	2b08      	cmp	r3, #8
 8005118:	d122      	bne.n	8005160 <HAL_RCC_OscConfig+0x17c>
 800511a:	686b      	ldr	r3, [r5, #4]
 800511c:	f403 33c0 	and.w	r3, r3, #98304	; 0x18000
 8005120:	f5b3 4f00 	cmp.w	r3, #32768	; 0x8000
 8005124:	d11c      	bne.n	8005160 <HAL_RCC_OscConfig+0x17c>
 8005126:	2302      	movs	r3, #2
 8005128:	fa93 f2a3 	rbit	r2, r3
 800512c:	6829      	ldr	r1, [r5, #0]
 800512e:	fa93 f3a3 	rbit	r3, r3
 8005132:	2201      	movs	r2, #1
 8005134:	fab3 f383 	clz	r3, r3
 8005138:	fa02 f303 	lsl.w	r3, r2, r3
 800513c:	420b      	tst	r3, r1
 800513e:	d002      	beq.n	8005146 <HAL_RCC_OscConfig+0x162>
 8005140:	68e3      	ldr	r3, [r4, #12]
 8005142:	4293      	cmp	r3, r2
 8005144:	d18a      	bne.n	800505c <HAL_RCC_OscConfig+0x78>
 8005146:	6829      	ldr	r1, [r5, #0]
 8005148:	22f8      	movs	r2, #248	; 0xf8
 800514a:	fa92 f2a2 	rbit	r2, r2
 800514e:	6923      	ldr	r3, [r4, #16]
 8005150:	fab2 f282 	clz	r2, r2
 8005154:	4093      	lsls	r3, r2
 8005156:	f021 02f8 	bic.w	r2, r1, #248	; 0xf8
 800515a:	4313      	orrs	r3, r2
 800515c:	602b      	str	r3, [r5, #0]
 800515e:	e74d      	b.n	8004ffc <HAL_RCC_OscConfig+0x18>
 8005160:	68e2      	ldr	r2, [r4, #12]
 8005162:	2601      	movs	r6, #1
 8005164:	b1fa      	cbz	r2, 80051a6 <HAL_RCC_OscConfig+0x1c2>
 8005166:	fa96 f3a6 	rbit	r3, r6
 800516a:	fab3 f383 	clz	r3, r3
 800516e:	f103 5384 	add.w	r3, r3, #276824064	; 0x10800000
 8005172:	f503 1384 	add.w	r3, r3, #1081344	; 0x108000
 8005176:	009b      	lsls	r3, r3, #2
 8005178:	f04f 0802 	mov.w	r8, #2
 800517c:	601e      	str	r6, [r3, #0]
 800517e:	f7fe f891 	bl	80032a4 <HAL_GetTick>
 8005182:	4607      	mov	r7, r0
 8005184:	fa98 f3a8 	rbit	r3, r8
 8005188:	682a      	ldr	r2, [r5, #0]
 800518a:	fa98 f3a8 	rbit	r3, r8
 800518e:	fab3 f383 	clz	r3, r3
 8005192:	fa06 f303 	lsl.w	r3, r6, r3
 8005196:	4213      	tst	r3, r2
 8005198:	d1d5      	bne.n	8005146 <HAL_RCC_OscConfig+0x162>
 800519a:	f7fe f883 	bl	80032a4 <HAL_GetTick>
 800519e:	1bc0      	subs	r0, r0, r7
 80051a0:	2802      	cmp	r0, #2
 80051a2:	d9ef      	bls.n	8005184 <HAL_RCC_OscConfig+0x1a0>
 80051a4:	e77b      	b.n	800509e <HAL_RCC_OscConfig+0xba>
 80051a6:	fa96 f3a6 	rbit	r3, r6
 80051aa:	fab3 f383 	clz	r3, r3
 80051ae:	f103 5384 	add.w	r3, r3, #276824064	; 0x10800000
 80051b2:	f503 1384 	add.w	r3, r3, #1081344	; 0x108000
 80051b6:	009b      	lsls	r3, r3, #2
 80051b8:	f04f 0802 	mov.w	r8, #2
 80051bc:	601a      	str	r2, [r3, #0]
 80051be:	f7fe f871 	bl	80032a4 <HAL_GetTick>
 80051c2:	4607      	mov	r7, r0
 80051c4:	fa98 f3a8 	rbit	r3, r8
 80051c8:	682a      	ldr	r2, [r5, #0]
 80051ca:	fa98 f3a8 	rbit	r3, r8
 80051ce:	fab3 f383 	clz	r3, r3
 80051d2:	fa06 f303 	lsl.w	r3, r6, r3
 80051d6:	4213      	tst	r3, r2
 80051d8:	f43f af10 	beq.w	8004ffc <HAL_RCC_OscConfig+0x18>
 80051dc:	f7fe f862 	bl	80032a4 <HAL_GetTick>
 80051e0:	1bc0      	subs	r0, r0, r7
 80051e2:	2802      	cmp	r0, #2
 80051e4:	d9ee      	bls.n	80051c4 <HAL_RCC_OscConfig+0x1e0>
 80051e6:	e75a      	b.n	800509e <HAL_RCC_OscConfig+0xba>
 80051e8:	6962      	ldr	r2, [r4, #20]
 80051ea:	4e40      	ldr	r6, [pc, #256]	; (80052ec <HAL_RCC_OscConfig+0x308>)
 80051ec:	4940      	ldr	r1, [pc, #256]	; (80052f0 <HAL_RCC_OscConfig+0x30c>)
 80051ee:	2501      	movs	r5, #1
 80051f0:	b30a      	cbz	r2, 8005236 <HAL_RCC_OscConfig+0x252>
 80051f2:	fa95 f3a5 	rbit	r3, r5
 80051f6:	fab3 f383 	clz	r3, r3
 80051fa:	440b      	add	r3, r1
 80051fc:	009b      	lsls	r3, r3, #2
 80051fe:	2702      	movs	r7, #2
 8005200:	601d      	str	r5, [r3, #0]
 8005202:	f7fe f84f 	bl	80032a4 <HAL_GetTick>
 8005206:	4680      	mov	r8, r0
 8005208:	fa97 f3a7 	rbit	r3, r7
 800520c:	fa97 f3a7 	rbit	r3, r7
 8005210:	fa97 f3a7 	rbit	r3, r7
 8005214:	6a72      	ldr	r2, [r6, #36]	; 0x24
 8005216:	fa97 f3a7 	rbit	r3, r7
 800521a:	fab3 f383 	clz	r3, r3
 800521e:	fa05 f303 	lsl.w	r3, r5, r3
 8005222:	4213      	tst	r3, r2
 8005224:	f47f aeee 	bne.w	8005004 <HAL_RCC_OscConfig+0x20>
 8005228:	f7fe f83c 	bl	80032a4 <HAL_GetTick>
 800522c:	eba0 0008 	sub.w	r0, r0, r8
 8005230:	2802      	cmp	r0, #2
 8005232:	d9e9      	bls.n	8005208 <HAL_RCC_OscConfig+0x224>
 8005234:	e733      	b.n	800509e <HAL_RCC_OscConfig+0xba>
 8005236:	fa95 f3a5 	rbit	r3, r5
 800523a:	fab3 f383 	clz	r3, r3
 800523e:	440b      	add	r3, r1
 8005240:	009b      	lsls	r3, r3, #2
 8005242:	2702      	movs	r7, #2
 8005244:	601a      	str	r2, [r3, #0]
 8005246:	f7fe f82d 	bl	80032a4 <HAL_GetTick>
 800524a:	4680      	mov	r8, r0
 800524c:	fa97 f3a7 	rbit	r3, r7
 8005250:	fa97 f3a7 	rbit	r3, r7
 8005254:	fa97 f3a7 	rbit	r3, r7
 8005258:	6a72      	ldr	r2, [r6, #36]	; 0x24
 800525a:	fa97 f3a7 	rbit	r3, r7
 800525e:	fab3 f383 	clz	r3, r3
 8005262:	fa05 f303 	lsl.w	r3, r5, r3
 8005266:	4213      	tst	r3, r2
 8005268:	f43f aecc 	beq.w	8005004 <HAL_RCC_OscConfig+0x20>
 800526c:	f7fe f81a 	bl	80032a4 <HAL_GetTick>
 8005270:	eba0 0008 	sub.w	r0, r0, r8
 8005274:	2802      	cmp	r0, #2
 8005276:	d9e9      	bls.n	800524c <HAL_RCC_OscConfig+0x268>
 8005278:	e711      	b.n	800509e <HAL_RCC_OscConfig+0xba>
 800527a:	4d1c      	ldr	r5, [pc, #112]	; (80052ec <HAL_RCC_OscConfig+0x308>)
 800527c:	69eb      	ldr	r3, [r5, #28]
 800527e:	00d9      	lsls	r1, r3, #3
 8005280:	d431      	bmi.n	80052e6 <HAL_RCC_OscConfig+0x302>
 8005282:	69eb      	ldr	r3, [r5, #28]
 8005284:	f043 5380 	orr.w	r3, r3, #268435456	; 0x10000000
 8005288:	61eb      	str	r3, [r5, #28]
 800528a:	69eb      	ldr	r3, [r5, #28]
 800528c:	f003 5380 	and.w	r3, r3, #268435456	; 0x10000000
 8005290:	9301      	str	r3, [sp, #4]
 8005292:	9b01      	ldr	r3, [sp, #4]
 8005294:	2601      	movs	r6, #1
 8005296:	4f17      	ldr	r7, [pc, #92]	; (80052f4 <HAL_RCC_OscConfig+0x310>)
 8005298:	683b      	ldr	r3, [r7, #0]
 800529a:	05da      	lsls	r2, r3, #23
 800529c:	d52c      	bpl.n	80052f8 <HAL_RCC_OscConfig+0x314>
 800529e:	68a3      	ldr	r3, [r4, #8]
 80052a0:	2b01      	cmp	r3, #1
 80052a2:	d13a      	bne.n	800531a <HAL_RCC_OscConfig+0x336>
 80052a4:	6a2b      	ldr	r3, [r5, #32]
 80052a6:	f043 0301 	orr.w	r3, r3, #1
 80052aa:	622b      	str	r3, [r5, #32]
 80052ac:	f7fd fffa 	bl	80032a4 <HAL_GetTick>
 80052b0:	2702      	movs	r7, #2
 80052b2:	4680      	mov	r8, r0
 80052b4:	f04f 0901 	mov.w	r9, #1
 80052b8:	f241 3a88 	movw	sl, #5000	; 0x1388
 80052bc:	fa97 f3a7 	rbit	r3, r7
 80052c0:	fa97 f3a7 	rbit	r3, r7
 80052c4:	6a2a      	ldr	r2, [r5, #32]
 80052c6:	fa97 f3a7 	rbit	r3, r7
 80052ca:	fab3 f383 	clz	r3, r3
 80052ce:	fa09 f303 	lsl.w	r3, r9, r3
 80052d2:	4213      	tst	r3, r2
 80052d4:	d054      	beq.n	8005380 <HAL_RCC_OscConfig+0x39c>
 80052d6:	2e00      	cmp	r6, #0
 80052d8:	f43f ae98 	beq.w	800500c <HAL_RCC_OscConfig+0x28>
 80052dc:	69eb      	ldr	r3, [r5, #28]
 80052de:	f023 5380 	bic.w	r3, r3, #268435456	; 0x10000000
 80052e2:	61eb      	str	r3, [r5, #28]
 80052e4:	e692      	b.n	800500c <HAL_RCC_OscConfig+0x28>
 80052e6:	2600      	movs	r6, #0
 80052e8:	e7d5      	b.n	8005296 <HAL_RCC_OscConfig+0x2b2>
 80052ea:	bf00      	nop
 80052ec:	40021000 	.word	0x40021000
 80052f0:	10908120 	.word	0x10908120
 80052f4:	40007000 	.word	0x40007000
 80052f8:	683b      	ldr	r3, [r7, #0]
 80052fa:	f443 7380 	orr.w	r3, r3, #256	; 0x100
 80052fe:	603b      	str	r3, [r7, #0]
 8005300:	f7fd ffd0 	bl	80032a4 <HAL_GetTick>
 8005304:	4680      	mov	r8, r0
 8005306:	683b      	ldr	r3, [r7, #0]
 8005308:	05db      	lsls	r3, r3, #23
 800530a:	d4c8      	bmi.n	800529e <HAL_RCC_OscConfig+0x2ba>
 800530c:	f7fd ffca 	bl	80032a4 <HAL_GetTick>
 8005310:	eba0 0008 	sub.w	r0, r0, r8
 8005314:	2864      	cmp	r0, #100	; 0x64
 8005316:	d9f6      	bls.n	8005306 <HAL_RCC_OscConfig+0x322>
 8005318:	e6c1      	b.n	800509e <HAL_RCC_OscConfig+0xba>
 800531a:	bb1b      	cbnz	r3, 8005364 <HAL_RCC_OscConfig+0x380>
 800531c:	6a2b      	ldr	r3, [r5, #32]
 800531e:	f023 0301 	bic.w	r3, r3, #1
 8005322:	622b      	str	r3, [r5, #32]
 8005324:	6a2b      	ldr	r3, [r5, #32]
 8005326:	f023 0304 	bic.w	r3, r3, #4
 800532a:	622b      	str	r3, [r5, #32]
 800532c:	f7fd ffba 	bl	80032a4 <HAL_GetTick>
 8005330:	2702      	movs	r7, #2
 8005332:	4680      	mov	r8, r0
 8005334:	f04f 0901 	mov.w	r9, #1
 8005338:	f241 3a88 	movw	sl, #5000	; 0x1388
 800533c:	fa97 f3a7 	rbit	r3, r7
 8005340:	fa97 f3a7 	rbit	r3, r7
 8005344:	6a2a      	ldr	r2, [r5, #32]
 8005346:	fa97 f3a7 	rbit	r3, r7
 800534a:	fab3 f383 	clz	r3, r3
 800534e:	fa09 f303 	lsl.w	r3, r9, r3
 8005352:	4213      	tst	r3, r2
 8005354:	d0bf      	beq.n	80052d6 <HAL_RCC_OscConfig+0x2f2>
 8005356:	f7fd ffa5 	bl	80032a4 <HAL_GetTick>
 800535a:	eba0 0008 	sub.w	r0, r0, r8
 800535e:	4550      	cmp	r0, sl
 8005360:	d9ec      	bls.n	800533c <HAL_RCC_OscConfig+0x358>
 8005362:	e69c      	b.n	800509e <HAL_RCC_OscConfig+0xba>
 8005364:	2b05      	cmp	r3, #5
 8005366:	6a2b      	ldr	r3, [r5, #32]
 8005368:	d103      	bne.n	8005372 <HAL_RCC_OscConfig+0x38e>
 800536a:	f043 0304 	orr.w	r3, r3, #4
 800536e:	622b      	str	r3, [r5, #32]
 8005370:	e798      	b.n	80052a4 <HAL_RCC_OscConfig+0x2c0>
 8005372:	f023 0301 	bic.w	r3, r3, #1
 8005376:	622b      	str	r3, [r5, #32]
 8005378:	6a2b      	ldr	r3, [r5, #32]
 800537a:	f023 0304 	bic.w	r3, r3, #4
 800537e:	e794      	b.n	80052aa <HAL_RCC_OscConfig+0x2c6>
 8005380:	f7fd ff90 	bl	80032a4 <HAL_GetTick>
 8005384:	eba0 0008 	sub.w	r0, r0, r8
 8005388:	4550      	cmp	r0, sl
 800538a:	d997      	bls.n	80052bc <HAL_RCC_OscConfig+0x2d8>
 800538c:	e687      	b.n	800509e <HAL_RCC_OscConfig+0xba>
 800538e:	4d4c      	ldr	r5, [pc, #304]	; (80054c0 <HAL_RCC_OscConfig+0x4dc>)
 8005390:	686b      	ldr	r3, [r5, #4]
 8005392:	f003 030c 	and.w	r3, r3, #12
 8005396:	2b08      	cmp	r3, #8
 8005398:	d07a      	beq.n	8005490 <HAL_RCC_OscConfig+0x4ac>
 800539a:	2802      	cmp	r0, #2
 800539c:	f04f 7380 	mov.w	r3, #16777216	; 0x1000000
 80053a0:	d153      	bne.n	800544a <HAL_RCC_OscConfig+0x466>
 80053a2:	fa93 f3a3 	rbit	r3, r3
 80053a6:	fab3 f383 	clz	r3, r3
 80053aa:	f103 5384 	add.w	r3, r3, #276824064	; 0x10800000
 80053ae:	f503 1384 	add.w	r3, r3, #1081344	; 0x108000
 80053b2:	009b      	lsls	r3, r3, #2
 80053b4:	2200      	movs	r2, #0
 80053b6:	601a      	str	r2, [r3, #0]
 80053b8:	f7fd ff74 	bl	80032a4 <HAL_GetTick>
 80053bc:	f04f 7800 	mov.w	r8, #33554432	; 0x2000000
 80053c0:	4607      	mov	r7, r0
 80053c2:	2601      	movs	r6, #1
 80053c4:	fa98 f3a8 	rbit	r3, r8
 80053c8:	682a      	ldr	r2, [r5, #0]
 80053ca:	fa98 f3a8 	rbit	r3, r8
 80053ce:	fab3 f383 	clz	r3, r3
 80053d2:	fa06 f303 	lsl.w	r3, r6, r3
 80053d6:	4213      	tst	r3, r2
 80053d8:	d131      	bne.n	800543e <HAL_RCC_OscConfig+0x45a>
 80053da:	6aeb      	ldr	r3, [r5, #44]	; 0x2c
 80053dc:	6a62      	ldr	r2, [r4, #36]	; 0x24
 80053de:	f023 030f 	bic.w	r3, r3, #15
 80053e2:	4313      	orrs	r3, r2
 80053e4:	62eb      	str	r3, [r5, #44]	; 0x2c
 80053e6:	e9d4 1307 	ldrd	r1, r3, [r4, #28]
 80053ea:	686a      	ldr	r2, [r5, #4]
 80053ec:	430b      	orrs	r3, r1
 80053ee:	f422 1276 	bic.w	r2, r2, #4030464	; 0x3d8000
 80053f2:	4313      	orrs	r3, r2
 80053f4:	606b      	str	r3, [r5, #4]
 80053f6:	f04f 7380 	mov.w	r3, #16777216	; 0x1000000
 80053fa:	fa93 f3a3 	rbit	r3, r3
 80053fe:	fab3 f383 	clz	r3, r3
 8005402:	f103 5384 	add.w	r3, r3, #276824064	; 0x10800000
 8005406:	f503 1384 	add.w	r3, r3, #1081344	; 0x108000
 800540a:	009b      	lsls	r3, r3, #2
 800540c:	2701      	movs	r7, #1
 800540e:	601e      	str	r6, [r3, #0]
 8005410:	f7fd ff48 	bl	80032a4 <HAL_GetTick>
 8005414:	f04f 7600 	mov.w	r6, #33554432	; 0x2000000
 8005418:	4604      	mov	r4, r0
 800541a:	fa96 f3a6 	rbit	r3, r6
 800541e:	682a      	ldr	r2, [r5, #0]
 8005420:	fa96 f3a6 	rbit	r3, r6
 8005424:	fab3 f383 	clz	r3, r3
 8005428:	fa07 f303 	lsl.w	r3, r7, r3
 800542c:	4213      	tst	r3, r2
 800542e:	f47f adf1 	bne.w	8005014 <HAL_RCC_OscConfig+0x30>
 8005432:	f7fd ff37 	bl	80032a4 <HAL_GetTick>
 8005436:	1b00      	subs	r0, r0, r4
 8005438:	2802      	cmp	r0, #2
 800543a:	d9ee      	bls.n	800541a <HAL_RCC_OscConfig+0x436>
 800543c:	e62f      	b.n	800509e <HAL_RCC_OscConfig+0xba>
 800543e:	f7fd ff31 	bl	80032a4 <HAL_GetTick>
 8005442:	1bc0      	subs	r0, r0, r7
 8005444:	2802      	cmp	r0, #2
 8005446:	d9bd      	bls.n	80053c4 <HAL_RCC_OscConfig+0x3e0>
 8005448:	e629      	b.n	800509e <HAL_RCC_OscConfig+0xba>
 800544a:	fa93 f3a3 	rbit	r3, r3
 800544e:	fab3 f383 	clz	r3, r3
 8005452:	f103 5384 	add.w	r3, r3, #276824064	; 0x10800000
 8005456:	f503 1384 	add.w	r3, r3, #1081344	; 0x108000
 800545a:	009b      	lsls	r3, r3, #2
 800545c:	2200      	movs	r2, #0
 800545e:	601a      	str	r2, [r3, #0]
 8005460:	f7fd ff20 	bl	80032a4 <HAL_GetTick>
 8005464:	f04f 7600 	mov.w	r6, #33554432	; 0x2000000
 8005468:	4604      	mov	r4, r0
 800546a:	2701      	movs	r7, #1
 800546c:	fa96 f3a6 	rbit	r3, r6
 8005470:	682a      	ldr	r2, [r5, #0]
 8005472:	fa96 f3a6 	rbit	r3, r6
 8005476:	fab3 f383 	clz	r3, r3
 800547a:	fa07 f303 	lsl.w	r3, r7, r3
 800547e:	4213      	tst	r3, r2
 8005480:	f43f adc8 	beq.w	8005014 <HAL_RCC_OscConfig+0x30>
 8005484:	f7fd ff0e 	bl	80032a4 <HAL_GetTick>
 8005488:	1b00      	subs	r0, r0, r4
 800548a:	2802      	cmp	r0, #2
 800548c:	d9ee      	bls.n	800546c <HAL_RCC_OscConfig+0x488>
 800548e:	e606      	b.n	800509e <HAL_RCC_OscConfig+0xba>
 8005490:	2801      	cmp	r0, #1
 8005492:	f43f ae05 	beq.w	80050a0 <HAL_RCC_OscConfig+0xbc>
 8005496:	686b      	ldr	r3, [r5, #4]
 8005498:	69e1      	ldr	r1, [r4, #28]
 800549a:	6aea      	ldr	r2, [r5, #44]	; 0x2c
 800549c:	f403 30c0 	and.w	r0, r3, #98304	; 0x18000
 80054a0:	4288      	cmp	r0, r1
 80054a2:	f47f addb 	bne.w	800505c <HAL_RCC_OscConfig+0x78>
 80054a6:	6a21      	ldr	r1, [r4, #32]
 80054a8:	f403 1370 	and.w	r3, r3, #3932160	; 0x3c0000
 80054ac:	428b      	cmp	r3, r1
 80054ae:	f47f add5 	bne.w	800505c <HAL_RCC_OscConfig+0x78>
 80054b2:	f002 030f 	and.w	r3, r2, #15
 80054b6:	6a62      	ldr	r2, [r4, #36]	; 0x24
 80054b8:	4293      	cmp	r3, r2
 80054ba:	f43f adab 	beq.w	8005014 <HAL_RCC_OscConfig+0x30>
 80054be:	e5cd      	b.n	800505c <HAL_RCC_OscConfig+0x78>
 80054c0:	40021000 	.word	0x40021000

080054c4 <HAL_RCC_GetSysClockFreq>:
 80054c4:	4911      	ldr	r1, [pc, #68]	; (800550c <HAL_RCC_GetSysClockFreq+0x48>)
 80054c6:	684b      	ldr	r3, [r1, #4]
 80054c8:	f003 020c 	and.w	r2, r3, #12
 80054cc:	2a08      	cmp	r2, #8
 80054ce:	d11a      	bne.n	8005506 <HAL_RCC_GetSysClockFreq+0x42>
 80054d0:	f44f 1270 	mov.w	r2, #3932160	; 0x3c0000
 80054d4:	fa92 f2a2 	rbit	r2, r2
 80054d8:	200f      	movs	r0, #15
 80054da:	fab2 f282 	clz	r2, r2
 80054de:	6ac9      	ldr	r1, [r1, #44]	; 0x2c
 80054e0:	fa90 f0a0 	rbit	r0, r0
 80054e4:	f403 1370 	and.w	r3, r3, #3932160	; 0x3c0000
 80054e8:	40d3      	lsrs	r3, r2
 80054ea:	4a09      	ldr	r2, [pc, #36]	; (8005510 <HAL_RCC_GetSysClockFreq+0x4c>)
 80054ec:	fab0 f080 	clz	r0, r0
 80054f0:	f001 010f 	and.w	r1, r1, #15
 80054f4:	5cd3      	ldrb	r3, [r2, r3]
 80054f6:	40c1      	lsrs	r1, r0
 80054f8:	4806      	ldr	r0, [pc, #24]	; (8005514 <HAL_RCC_GetSysClockFreq+0x50>)
 80054fa:	5c41      	ldrb	r1, [r0, r1]
 80054fc:	4806      	ldr	r0, [pc, #24]	; (8005518 <HAL_RCC_GetSysClockFreq+0x54>)
 80054fe:	fbb0 f0f1 	udiv	r0, r0, r1
 8005502:	4358      	muls	r0, r3
 8005504:	4770      	bx	lr
 8005506:	4804      	ldr	r0, [pc, #16]	; (8005518 <HAL_RCC_GetSysClockFreq+0x54>)
 8005508:	4770      	bx	lr
 800550a:	bf00      	nop
 800550c:	40021000 	.word	0x40021000
 8005510:	0800f56c 	.word	0x0800f56c
 8005514:	0800f57c 	.word	0x0800f57c
 8005518:	007a1200 	.word	0x007a1200

0800551c <HAL_RCC_ClockConfig>:
 800551c:	e92d 41f0 	stmdb	sp!, {r4, r5, r6, r7, r8, lr}
 8005520:	460d      	mov	r5, r1
 8005522:	4604      	mov	r4, r0
 8005524:	b910      	cbnz	r0, 800552c <HAL_RCC_ClockConfig+0x10>
 8005526:	2001      	movs	r0, #1
 8005528:	e8bd 81f0 	ldmia.w	sp!, {r4, r5, r6, r7, r8, pc}
 800552c:	4a4a      	ldr	r2, [pc, #296]	; (8005658 <HAL_RCC_ClockConfig+0x13c>)
 800552e:	6813      	ldr	r3, [r2, #0]
 8005530:	f003 0307 	and.w	r3, r3, #7
 8005534:	428b      	cmp	r3, r1
 8005536:	d32e      	bcc.n	8005596 <HAL_RCC_ClockConfig+0x7a>
 8005538:	6822      	ldr	r2, [r4, #0]
 800553a:	0791      	lsls	r1, r2, #30
 800553c:	d436      	bmi.n	80055ac <HAL_RCC_ClockConfig+0x90>
 800553e:	07d2      	lsls	r2, r2, #31
 8005540:	d43c      	bmi.n	80055bc <HAL_RCC_ClockConfig+0xa0>
 8005542:	4a45      	ldr	r2, [pc, #276]	; (8005658 <HAL_RCC_ClockConfig+0x13c>)
 8005544:	6813      	ldr	r3, [r2, #0]
 8005546:	f003 0307 	and.w	r3, r3, #7
 800554a:	42ab      	cmp	r3, r5
 800554c:	d870      	bhi.n	8005630 <HAL_RCC_ClockConfig+0x114>
 800554e:	6822      	ldr	r2, [r4, #0]
 8005550:	4d42      	ldr	r5, [pc, #264]	; (800565c <HAL_RCC_ClockConfig+0x140>)
 8005552:	f012 0f04 	tst.w	r2, #4
 8005556:	d177      	bne.n	8005648 <HAL_RCC_ClockConfig+0x12c>
 8005558:	0713      	lsls	r3, r2, #28
 800555a:	d506      	bpl.n	800556a <HAL_RCC_ClockConfig+0x4e>
 800555c:	686b      	ldr	r3, [r5, #4]
 800555e:	6922      	ldr	r2, [r4, #16]
 8005560:	f423 5360 	bic.w	r3, r3, #14336	; 0x3800
 8005564:	ea43 03c2 	orr.w	r3, r3, r2, lsl #3
 8005568:	606b      	str	r3, [r5, #4]
 800556a:	f7ff ffab 	bl	80054c4 <HAL_RCC_GetSysClockFreq>
 800556e:	686b      	ldr	r3, [r5, #4]
 8005570:	22f0      	movs	r2, #240	; 0xf0
 8005572:	fa92 f2a2 	rbit	r2, r2
 8005576:	fab2 f282 	clz	r2, r2
 800557a:	f003 03f0 	and.w	r3, r3, #240	; 0xf0
 800557e:	40d3      	lsrs	r3, r2
 8005580:	4a37      	ldr	r2, [pc, #220]	; (8005660 <HAL_RCC_ClockConfig+0x144>)
 8005582:	5cd3      	ldrb	r3, [r2, r3]
 8005584:	40d8      	lsrs	r0, r3
 8005586:	4b37      	ldr	r3, [pc, #220]	; (8005664 <HAL_RCC_ClockConfig+0x148>)
 8005588:	6018      	str	r0, [r3, #0]
 800558a:	4b37      	ldr	r3, [pc, #220]	; (8005668 <HAL_RCC_ClockConfig+0x14c>)
 800558c:	6818      	ldr	r0, [r3, #0]
 800558e:	f7fd fe47 	bl	8003220 <HAL_InitTick>
 8005592:	2000      	movs	r0, #0
 8005594:	e7c8      	b.n	8005528 <HAL_RCC_ClockConfig+0xc>
 8005596:	6813      	ldr	r3, [r2, #0]
 8005598:	f023 0307 	bic.w	r3, r3, #7
 800559c:	430b      	orrs	r3, r1
 800559e:	6013      	str	r3, [r2, #0]
 80055a0:	6813      	ldr	r3, [r2, #0]
 80055a2:	f003 0307 	and.w	r3, r3, #7
 80055a6:	428b      	cmp	r3, r1
 80055a8:	d1bd      	bne.n	8005526 <HAL_RCC_ClockConfig+0xa>
 80055aa:	e7c5      	b.n	8005538 <HAL_RCC_ClockConfig+0x1c>
 80055ac:	492b      	ldr	r1, [pc, #172]	; (800565c <HAL_RCC_ClockConfig+0x140>)
 80055ae:	68a0      	ldr	r0, [r4, #8]
 80055b0:	684b      	ldr	r3, [r1, #4]
 80055b2:	f023 03f0 	bic.w	r3, r3, #240	; 0xf0
 80055b6:	4303      	orrs	r3, r0
 80055b8:	604b      	str	r3, [r1, #4]
 80055ba:	e7c0      	b.n	800553e <HAL_RCC_ClockConfig+0x22>
 80055bc:	6862      	ldr	r2, [r4, #4]
 80055be:	4e27      	ldr	r6, [pc, #156]	; (800565c <HAL_RCC_ClockConfig+0x140>)
 80055c0:	2a01      	cmp	r2, #1
 80055c2:	d124      	bne.n	800560e <HAL_RCC_ClockConfig+0xf2>
 80055c4:	f44f 3300 	mov.w	r3, #131072	; 0x20000
 80055c8:	fa93 f1a3 	rbit	r1, r3
 80055cc:	6831      	ldr	r1, [r6, #0]
 80055ce:	fa93 f3a3 	rbit	r3, r3
 80055d2:	fab3 f383 	clz	r3, r3
 80055d6:	fa02 f303 	lsl.w	r3, r2, r3
 80055da:	420b      	tst	r3, r1
 80055dc:	d0a3      	beq.n	8005526 <HAL_RCC_ClockConfig+0xa>
 80055de:	6873      	ldr	r3, [r6, #4]
 80055e0:	f023 0303 	bic.w	r3, r3, #3
 80055e4:	4313      	orrs	r3, r2
 80055e6:	6073      	str	r3, [r6, #4]
 80055e8:	f7fd fe5c 	bl	80032a4 <HAL_GetTick>
 80055ec:	f241 3888 	movw	r8, #5000	; 0x1388
 80055f0:	4607      	mov	r7, r0
 80055f2:	6873      	ldr	r3, [r6, #4]
 80055f4:	6862      	ldr	r2, [r4, #4]
 80055f6:	f003 030c 	and.w	r3, r3, #12
 80055fa:	ebb3 0f82 	cmp.w	r3, r2, lsl #2
 80055fe:	d0a0      	beq.n	8005542 <HAL_RCC_ClockConfig+0x26>
 8005600:	f7fd fe50 	bl	80032a4 <HAL_GetTick>
 8005604:	1bc0      	subs	r0, r0, r7
 8005606:	4540      	cmp	r0, r8
 8005608:	d9f3      	bls.n	80055f2 <HAL_RCC_ClockConfig+0xd6>
 800560a:	2003      	movs	r0, #3
 800560c:	e78c      	b.n	8005528 <HAL_RCC_ClockConfig+0xc>
 800560e:	2a02      	cmp	r2, #2
 8005610:	bf0c      	ite	eq
 8005612:	f04f 7300 	moveq.w	r3, #33554432	; 0x2000000
 8005616:	2302      	movne	r3, #2
 8005618:	fa93 f1a3 	rbit	r1, r3
 800561c:	6830      	ldr	r0, [r6, #0]
 800561e:	fa93 f3a3 	rbit	r3, r3
 8005622:	2101      	movs	r1, #1
 8005624:	fab3 f383 	clz	r3, r3
 8005628:	fa01 f303 	lsl.w	r3, r1, r3
 800562c:	4203      	tst	r3, r0
 800562e:	e7d5      	b.n	80055dc <HAL_RCC_ClockConfig+0xc0>
 8005630:	6813      	ldr	r3, [r2, #0]
 8005632:	f023 0307 	bic.w	r3, r3, #7
 8005636:	432b      	orrs	r3, r5
 8005638:	6013      	str	r3, [r2, #0]
 800563a:	6813      	ldr	r3, [r2, #0]
 800563c:	f003 0307 	and.w	r3, r3, #7
 8005640:	42ab      	cmp	r3, r5
 8005642:	f47f af70 	bne.w	8005526 <HAL_RCC_ClockConfig+0xa>
 8005646:	e782      	b.n	800554e <HAL_RCC_ClockConfig+0x32>
 8005648:	686b      	ldr	r3, [r5, #4]
 800564a:	68e1      	ldr	r1, [r4, #12]
 800564c:	f423 63e0 	bic.w	r3, r3, #1792	; 0x700
 8005650:	430b      	orrs	r3, r1
 8005652:	606b      	str	r3, [r5, #4]
 8005654:	e780      	b.n	8005558 <HAL_RCC_ClockConfig+0x3c>
 8005656:	bf00      	nop
 8005658:	40022000 	.word	0x40022000
 800565c:	40021000 	.word	0x40021000
 8005660:	0800f554 	.word	0x0800f554
 8005664:	20000004 	.word	0x20000004
 8005668:	2000000c 	.word	0x2000000c

0800566c <HAL_RCC_GetPCLK1Freq>:
 800566c:	4b08      	ldr	r3, [pc, #32]	; (8005690 <HAL_RCC_GetPCLK1Freq+0x24>)
 800566e:	f44f 62e0 	mov.w	r2, #1792	; 0x700
 8005672:	685b      	ldr	r3, [r3, #4]
 8005674:	fa92 f2a2 	rbit	r2, r2
 8005678:	fab2 f282 	clz	r2, r2
 800567c:	f403 63e0 	and.w	r3, r3, #1792	; 0x700
 8005680:	40d3      	lsrs	r3, r2
 8005682:	4a04      	ldr	r2, [pc, #16]	; (8005694 <HAL_RCC_GetPCLK1Freq+0x28>)
 8005684:	5cd3      	ldrb	r3, [r2, r3]
 8005686:	4a04      	ldr	r2, [pc, #16]	; (8005698 <HAL_RCC_GetPCLK1Freq+0x2c>)
 8005688:	6810      	ldr	r0, [r2, #0]
 800568a:	40d8      	lsrs	r0, r3
 800568c:	4770      	bx	lr
 800568e:	bf00      	nop
 8005690:	40021000 	.word	0x40021000
 8005694:	0800f564 	.word	0x0800f564
 8005698:	20000004 	.word	0x20000004

0800569c <HAL_RCC_GetPCLK2Freq>:
 800569c:	4b08      	ldr	r3, [pc, #32]	; (80056c0 <HAL_RCC_GetPCLK2Freq+0x24>)
 800569e:	f44f 5260 	mov.w	r2, #14336	; 0x3800
 80056a2:	685b      	ldr	r3, [r3, #4]
 80056a4:	fa92 f2a2 	rbit	r2, r2
 80056a8:	fab2 f282 	clz	r2, r2
 80056ac:	f403 5360 	and.w	r3, r3, #14336	; 0x3800
 80056b0:	40d3      	lsrs	r3, r2
 80056b2:	4a04      	ldr	r2, [pc, #16]	; (80056c4 <HAL_RCC_GetPCLK2Freq+0x28>)
 80056b4:	5cd3      	ldrb	r3, [r2, r3]
 80056b6:	4a04      	ldr	r2, [pc, #16]	; (80056c8 <HAL_RCC_GetPCLK2Freq+0x2c>)
 80056b8:	6810      	ldr	r0, [r2, #0]
 80056ba:	40d8      	lsrs	r0, r3
 80056bc:	4770      	bx	lr
 80056be:	bf00      	nop
 80056c0:	40021000 	.word	0x40021000
 80056c4:	0800f564 	.word	0x0800f564
 80056c8:	20000004 	.word	0x20000004

080056cc <HAL_RCCEx_PeriphCLKConfig>:
 80056cc:	6803      	ldr	r3, [r0, #0]
 80056ce:	e92d 47f3 	stmdb	sp!, {r0, r1, r4, r5, r6, r7, r8, r9, sl, lr}
 80056d2:	03d9      	lsls	r1, r3, #15
 80056d4:	4604      	mov	r4, r0
 80056d6:	d524      	bpl.n	8005722 <HAL_RCCEx_PeriphCLKConfig+0x56>
 80056d8:	4d98      	ldr	r5, [pc, #608]	; (800593c <HAL_RCCEx_PeriphCLKConfig+0x270>)
 80056da:	69eb      	ldr	r3, [r5, #28]
 80056dc:	00da      	lsls	r2, r3, #3
 80056de:	f100 80da 	bmi.w	8005896 <HAL_RCCEx_PeriphCLKConfig+0x1ca>
 80056e2:	69eb      	ldr	r3, [r5, #28]
 80056e4:	f043 5380 	orr.w	r3, r3, #268435456	; 0x10000000
 80056e8:	61eb      	str	r3, [r5, #28]
 80056ea:	69eb      	ldr	r3, [r5, #28]
 80056ec:	f003 5380 	and.w	r3, r3, #268435456	; 0x10000000
 80056f0:	9301      	str	r3, [sp, #4]
 80056f2:	9b01      	ldr	r3, [sp, #4]
 80056f4:	2601      	movs	r6, #1
 80056f6:	4f92      	ldr	r7, [pc, #584]	; (8005940 <HAL_RCCEx_PeriphCLKConfig+0x274>)
 80056f8:	683b      	ldr	r3, [r7, #0]
 80056fa:	05db      	lsls	r3, r3, #23
 80056fc:	f140 80cd 	bpl.w	800589a <HAL_RCCEx_PeriphCLKConfig+0x1ce>
 8005700:	6a2b      	ldr	r3, [r5, #32]
 8005702:	6862      	ldr	r2, [r4, #4]
 8005704:	f413 7340 	ands.w	r3, r3, #768	; 0x300
 8005708:	f040 80dc 	bne.w	80058c4 <HAL_RCCEx_PeriphCLKConfig+0x1f8>
 800570c:	6a2b      	ldr	r3, [r5, #32]
 800570e:	6862      	ldr	r2, [r4, #4]
 8005710:	f423 7340 	bic.w	r3, r3, #768	; 0x300
 8005714:	4313      	orrs	r3, r2
 8005716:	622b      	str	r3, [r5, #32]
 8005718:	b11e      	cbz	r6, 8005722 <HAL_RCCEx_PeriphCLKConfig+0x56>
 800571a:	69eb      	ldr	r3, [r5, #28]
 800571c:	f023 5380 	bic.w	r3, r3, #268435456	; 0x10000000
 8005720:	61eb      	str	r3, [r5, #28]
 8005722:	6823      	ldr	r3, [r4, #0]
 8005724:	07da      	lsls	r2, r3, #31
 8005726:	d506      	bpl.n	8005736 <HAL_RCCEx_PeriphCLKConfig+0x6a>
 8005728:	4984      	ldr	r1, [pc, #528]	; (800593c <HAL_RCCEx_PeriphCLKConfig+0x270>)
 800572a:	68a0      	ldr	r0, [r4, #8]
 800572c:	6b0a      	ldr	r2, [r1, #48]	; 0x30
 800572e:	f022 0203 	bic.w	r2, r2, #3
 8005732:	4302      	orrs	r2, r0
 8005734:	630a      	str	r2, [r1, #48]	; 0x30
 8005736:	079f      	lsls	r7, r3, #30
 8005738:	d506      	bpl.n	8005748 <HAL_RCCEx_PeriphCLKConfig+0x7c>
 800573a:	4980      	ldr	r1, [pc, #512]	; (800593c <HAL_RCCEx_PeriphCLKConfig+0x270>)
 800573c:	68e0      	ldr	r0, [r4, #12]
 800573e:	6b0a      	ldr	r2, [r1, #48]	; 0x30
 8005740:	f422 3240 	bic.w	r2, r2, #196608	; 0x30000
 8005744:	4302      	orrs	r2, r0
 8005746:	630a      	str	r2, [r1, #48]	; 0x30
 8005748:	075e      	lsls	r6, r3, #29
 800574a:	d506      	bpl.n	800575a <HAL_RCCEx_PeriphCLKConfig+0x8e>
 800574c:	497b      	ldr	r1, [pc, #492]	; (800593c <HAL_RCCEx_PeriphCLKConfig+0x270>)
 800574e:	6920      	ldr	r0, [r4, #16]
 8005750:	6b0a      	ldr	r2, [r1, #48]	; 0x30
 8005752:	f422 2240 	bic.w	r2, r2, #786432	; 0xc0000
 8005756:	4302      	orrs	r2, r0
 8005758:	630a      	str	r2, [r1, #48]	; 0x30
 800575a:	069d      	lsls	r5, r3, #26
 800575c:	d506      	bpl.n	800576c <HAL_RCCEx_PeriphCLKConfig+0xa0>
 800575e:	4977      	ldr	r1, [pc, #476]	; (800593c <HAL_RCCEx_PeriphCLKConfig+0x270>)
 8005760:	69e0      	ldr	r0, [r4, #28]
 8005762:	6b0a      	ldr	r2, [r1, #48]	; 0x30
 8005764:	f022 0210 	bic.w	r2, r2, #16
 8005768:	4302      	orrs	r2, r0
 800576a:	630a      	str	r2, [r1, #48]	; 0x30
 800576c:	0398      	lsls	r0, r3, #14
 800576e:	d506      	bpl.n	800577e <HAL_RCCEx_PeriphCLKConfig+0xb2>
 8005770:	4972      	ldr	r1, [pc, #456]	; (800593c <HAL_RCCEx_PeriphCLKConfig+0x270>)
 8005772:	6d60      	ldr	r0, [r4, #84]	; 0x54
 8005774:	684a      	ldr	r2, [r1, #4]
 8005776:	f422 0280 	bic.w	r2, r2, #4194304	; 0x400000
 800577a:	4302      	orrs	r2, r0
 800577c:	604a      	str	r2, [r1, #4]
 800577e:	0659      	lsls	r1, r3, #25
 8005780:	d506      	bpl.n	8005790 <HAL_RCCEx_PeriphCLKConfig+0xc4>
 8005782:	496e      	ldr	r1, [pc, #440]	; (800593c <HAL_RCCEx_PeriphCLKConfig+0x270>)
 8005784:	6a20      	ldr	r0, [r4, #32]
 8005786:	6b0a      	ldr	r2, [r1, #48]	; 0x30
 8005788:	f022 0220 	bic.w	r2, r2, #32
 800578c:	4302      	orrs	r2, r0
 800578e:	630a      	str	r2, [r1, #48]	; 0x30
 8005790:	035a      	lsls	r2, r3, #13
 8005792:	d506      	bpl.n	80057a2 <HAL_RCCEx_PeriphCLKConfig+0xd6>
 8005794:	4969      	ldr	r1, [pc, #420]	; (800593c <HAL_RCCEx_PeriphCLKConfig+0x270>)
 8005796:	6a60      	ldr	r0, [r4, #36]	; 0x24
 8005798:	6b0a      	ldr	r2, [r1, #48]	; 0x30
 800579a:	f022 0240 	bic.w	r2, r2, #64	; 0x40
 800579e:	4302      	orrs	r2, r0
 80057a0:	630a      	str	r2, [r1, #48]	; 0x30
 80057a2:	071f      	lsls	r7, r3, #28
 80057a4:	d506      	bpl.n	80057b4 <HAL_RCCEx_PeriphCLKConfig+0xe8>
 80057a6:	4965      	ldr	r1, [pc, #404]	; (800593c <HAL_RCCEx_PeriphCLKConfig+0x270>)
 80057a8:	6960      	ldr	r0, [r4, #20]
 80057aa:	6b0a      	ldr	r2, [r1, #48]	; 0x30
 80057ac:	f422 1240 	bic.w	r2, r2, #3145728	; 0x300000
 80057b0:	4302      	orrs	r2, r0
 80057b2:	630a      	str	r2, [r1, #48]	; 0x30
 80057b4:	06de      	lsls	r6, r3, #27
 80057b6:	d506      	bpl.n	80057c6 <HAL_RCCEx_PeriphCLKConfig+0xfa>
 80057b8:	4960      	ldr	r1, [pc, #384]	; (800593c <HAL_RCCEx_PeriphCLKConfig+0x270>)
 80057ba:	69a0      	ldr	r0, [r4, #24]
 80057bc:	6b0a      	ldr	r2, [r1, #48]	; 0x30
 80057be:	f422 0240 	bic.w	r2, r2, #12582912	; 0xc00000
 80057c2:	4302      	orrs	r2, r0
 80057c4:	630a      	str	r2, [r1, #48]	; 0x30
 80057c6:	059d      	lsls	r5, r3, #22
 80057c8:	d506      	bpl.n	80057d8 <HAL_RCCEx_PeriphCLKConfig+0x10c>
 80057ca:	495c      	ldr	r1, [pc, #368]	; (800593c <HAL_RCCEx_PeriphCLKConfig+0x270>)
 80057cc:	6b20      	ldr	r0, [r4, #48]	; 0x30
 80057ce:	684a      	ldr	r2, [r1, #4]
 80057d0:	f422 0200 	bic.w	r2, r2, #8388608	; 0x800000
 80057d4:	4302      	orrs	r2, r0
 80057d6:	604a      	str	r2, [r1, #4]
 80057d8:	0618      	lsls	r0, r3, #24
 80057da:	d506      	bpl.n	80057ea <HAL_RCCEx_PeriphCLKConfig+0x11e>
 80057dc:	4957      	ldr	r1, [pc, #348]	; (800593c <HAL_RCCEx_PeriphCLKConfig+0x270>)
 80057de:	6aa0      	ldr	r0, [r4, #40]	; 0x28
 80057e0:	6aca      	ldr	r2, [r1, #44]	; 0x2c
 80057e2:	f422 72f8 	bic.w	r2, r2, #496	; 0x1f0
 80057e6:	4302      	orrs	r2, r0
 80057e8:	62ca      	str	r2, [r1, #44]	; 0x2c
 80057ea:	05d9      	lsls	r1, r3, #23
 80057ec:	d506      	bpl.n	80057fc <HAL_RCCEx_PeriphCLKConfig+0x130>
 80057ee:	4953      	ldr	r1, [pc, #332]	; (800593c <HAL_RCCEx_PeriphCLKConfig+0x270>)
 80057f0:	6ae0      	ldr	r0, [r4, #44]	; 0x2c
 80057f2:	6aca      	ldr	r2, [r1, #44]	; 0x2c
 80057f4:	f422 5278 	bic.w	r2, r2, #15872	; 0x3e00
 80057f8:	4302      	orrs	r2, r0
 80057fa:	62ca      	str	r2, [r1, #44]	; 0x2c
 80057fc:	04da      	lsls	r2, r3, #19
 80057fe:	d506      	bpl.n	800580e <HAL_RCCEx_PeriphCLKConfig+0x142>
 8005800:	494e      	ldr	r1, [pc, #312]	; (800593c <HAL_RCCEx_PeriphCLKConfig+0x270>)
 8005802:	6b60      	ldr	r0, [r4, #52]	; 0x34
 8005804:	6b0a      	ldr	r2, [r1, #48]	; 0x30
 8005806:	f422 7280 	bic.w	r2, r2, #256	; 0x100
 800580a:	4302      	orrs	r2, r0
 800580c:	630a      	str	r2, [r1, #48]	; 0x30
 800580e:	049f      	lsls	r7, r3, #18
 8005810:	d506      	bpl.n	8005820 <HAL_RCCEx_PeriphCLKConfig+0x154>
 8005812:	494a      	ldr	r1, [pc, #296]	; (800593c <HAL_RCCEx_PeriphCLKConfig+0x270>)
 8005814:	6c20      	ldr	r0, [r4, #64]	; 0x40
 8005816:	6b0a      	ldr	r2, [r1, #48]	; 0x30
 8005818:	f422 7200 	bic.w	r2, r2, #512	; 0x200
 800581c:	4302      	orrs	r2, r0
 800581e:	630a      	str	r2, [r1, #48]	; 0x30
 8005820:	02de      	lsls	r6, r3, #11
 8005822:	d506      	bpl.n	8005832 <HAL_RCCEx_PeriphCLKConfig+0x166>
 8005824:	4945      	ldr	r1, [pc, #276]	; (800593c <HAL_RCCEx_PeriphCLKConfig+0x270>)
 8005826:	6ba0      	ldr	r0, [r4, #56]	; 0x38
 8005828:	6b0a      	ldr	r2, [r1, #48]	; 0x30
 800582a:	f022 7280 	bic.w	r2, r2, #16777216	; 0x1000000
 800582e:	4302      	orrs	r2, r0
 8005830:	630a      	str	r2, [r1, #48]	; 0x30
 8005832:	029d      	lsls	r5, r3, #10
 8005834:	d506      	bpl.n	8005844 <HAL_RCCEx_PeriphCLKConfig+0x178>
 8005836:	4941      	ldr	r1, [pc, #260]	; (800593c <HAL_RCCEx_PeriphCLKConfig+0x270>)
 8005838:	6be0      	ldr	r0, [r4, #60]	; 0x3c
 800583a:	6b0a      	ldr	r2, [r1, #48]	; 0x30
 800583c:	f022 7200 	bic.w	r2, r2, #33554432	; 0x2000000
 8005840:	4302      	orrs	r2, r0
 8005842:	630a      	str	r2, [r1, #48]	; 0x30
 8005844:	0258      	lsls	r0, r3, #9
 8005846:	d506      	bpl.n	8005856 <HAL_RCCEx_PeriphCLKConfig+0x18a>
 8005848:	493c      	ldr	r1, [pc, #240]	; (800593c <HAL_RCCEx_PeriphCLKConfig+0x270>)
 800584a:	6c60      	ldr	r0, [r4, #68]	; 0x44
 800584c:	6b0a      	ldr	r2, [r1, #48]	; 0x30
 800584e:	f422 6280 	bic.w	r2, r2, #1024	; 0x400
 8005852:	4302      	orrs	r2, r0
 8005854:	630a      	str	r2, [r1, #48]	; 0x30
 8005856:	0219      	lsls	r1, r3, #8
 8005858:	d506      	bpl.n	8005868 <HAL_RCCEx_PeriphCLKConfig+0x19c>
 800585a:	4938      	ldr	r1, [pc, #224]	; (800593c <HAL_RCCEx_PeriphCLKConfig+0x270>)
 800585c:	6ca0      	ldr	r0, [r4, #72]	; 0x48
 800585e:	6b0a      	ldr	r2, [r1, #48]	; 0x30
 8005860:	f422 6200 	bic.w	r2, r2, #2048	; 0x800
 8005864:	4302      	orrs	r2, r0
 8005866:	630a      	str	r2, [r1, #48]	; 0x30
 8005868:	01da      	lsls	r2, r3, #7
 800586a:	d506      	bpl.n	800587a <HAL_RCCEx_PeriphCLKConfig+0x1ae>
 800586c:	4933      	ldr	r1, [pc, #204]	; (800593c <HAL_RCCEx_PeriphCLKConfig+0x270>)
 800586e:	6ce0      	ldr	r0, [r4, #76]	; 0x4c
 8005870:	6b0a      	ldr	r2, [r1, #48]	; 0x30
 8005872:	f422 5200 	bic.w	r2, r2, #8192	; 0x2000
 8005876:	4302      	orrs	r2, r0
 8005878:	630a      	str	r2, [r1, #48]	; 0x30
 800587a:	f013 7300 	ands.w	r3, r3, #33554432	; 0x2000000
 800587e:	bf1f      	itttt	ne
 8005880:	4a2e      	ldrne	r2, [pc, #184]	; (800593c <HAL_RCCEx_PeriphCLKConfig+0x270>)
 8005882:	6d21      	ldrne	r1, [r4, #80]	; 0x50
 8005884:	6b13      	ldrne	r3, [r2, #48]	; 0x30
 8005886:	f423 4300 	bicne.w	r3, r3, #32768	; 0x8000
 800588a:	bf1d      	ittte	ne
 800588c:	430b      	orrne	r3, r1
 800588e:	6313      	strne	r3, [r2, #48]	; 0x30
 8005890:	2000      	movne	r0, #0
 8005892:	4618      	moveq	r0, r3
 8005894:	e013      	b.n	80058be <HAL_RCCEx_PeriphCLKConfig+0x1f2>
 8005896:	2600      	movs	r6, #0
 8005898:	e72d      	b.n	80056f6 <HAL_RCCEx_PeriphCLKConfig+0x2a>
 800589a:	683b      	ldr	r3, [r7, #0]
 800589c:	f443 7380 	orr.w	r3, r3, #256	; 0x100
 80058a0:	603b      	str	r3, [r7, #0]
 80058a2:	f7fd fcff 	bl	80032a4 <HAL_GetTick>
 80058a6:	4680      	mov	r8, r0
 80058a8:	683b      	ldr	r3, [r7, #0]
 80058aa:	05d8      	lsls	r0, r3, #23
 80058ac:	f53f af28 	bmi.w	8005700 <HAL_RCCEx_PeriphCLKConfig+0x34>
 80058b0:	f7fd fcf8 	bl	80032a4 <HAL_GetTick>
 80058b4:	eba0 0008 	sub.w	r0, r0, r8
 80058b8:	2864      	cmp	r0, #100	; 0x64
 80058ba:	d9f5      	bls.n	80058a8 <HAL_RCCEx_PeriphCLKConfig+0x1dc>
 80058bc:	2003      	movs	r0, #3
 80058be:	b002      	add	sp, #8
 80058c0:	e8bd 87f0 	ldmia.w	sp!, {r4, r5, r6, r7, r8, r9, sl, pc}
 80058c4:	f402 7240 	and.w	r2, r2, #768	; 0x300
 80058c8:	429a      	cmp	r2, r3
 80058ca:	f43f af1f 	beq.w	800570c <HAL_RCCEx_PeriphCLKConfig+0x40>
 80058ce:	6a29      	ldr	r1, [r5, #32]
 80058d0:	f44f 3380 	mov.w	r3, #65536	; 0x10000
 80058d4:	f421 7040 	bic.w	r0, r1, #768	; 0x300
 80058d8:	fa93 f2a3 	rbit	r2, r3
 80058dc:	f8df c064 	ldr.w	ip, [pc, #100]	; 8005944 <HAL_RCCEx_PeriphCLKConfig+0x278>
 80058e0:	fab2 f282 	clz	r2, r2
 80058e4:	4462      	add	r2, ip
 80058e6:	0092      	lsls	r2, r2, #2
 80058e8:	2701      	movs	r7, #1
 80058ea:	6017      	str	r7, [r2, #0]
 80058ec:	fa93 f3a3 	rbit	r3, r3
 80058f0:	fab3 f383 	clz	r3, r3
 80058f4:	4463      	add	r3, ip
 80058f6:	009b      	lsls	r3, r3, #2
 80058f8:	2200      	movs	r2, #0
 80058fa:	07c9      	lsls	r1, r1, #31
 80058fc:	601a      	str	r2, [r3, #0]
 80058fe:	6228      	str	r0, [r5, #32]
 8005900:	f57f af04 	bpl.w	800570c <HAL_RCCEx_PeriphCLKConfig+0x40>
 8005904:	f7fd fcce 	bl	80032a4 <HAL_GetTick>
 8005908:	f04f 0802 	mov.w	r8, #2
 800590c:	4681      	mov	r9, r0
 800590e:	f241 3a88 	movw	sl, #5000	; 0x1388
 8005912:	fa98 f3a8 	rbit	r3, r8
 8005916:	fa98 f3a8 	rbit	r3, r8
 800591a:	6a2a      	ldr	r2, [r5, #32]
 800591c:	fa98 f3a8 	rbit	r3, r8
 8005920:	fab3 f383 	clz	r3, r3
 8005924:	fa07 f303 	lsl.w	r3, r7, r3
 8005928:	4213      	tst	r3, r2
 800592a:	f47f aeef 	bne.w	800570c <HAL_RCCEx_PeriphCLKConfig+0x40>
 800592e:	f7fd fcb9 	bl	80032a4 <HAL_GetTick>
 8005932:	eba0 0009 	sub.w	r0, r0, r9
 8005936:	4550      	cmp	r0, sl
 8005938:	d9eb      	bls.n	8005912 <HAL_RCCEx_PeriphCLKConfig+0x246>
 800593a:	e7bf      	b.n	80058bc <HAL_RCCEx_PeriphCLKConfig+0x1f0>
 800593c:	40021000 	.word	0x40021000
 8005940:	40007000 	.word	0x40007000
 8005944:	10908100 	.word	0x10908100

08005948 <SPI_WaitFifoStateUntilTimeout.constprop.0>:
 8005948:	e92d 43f7 	stmdb	sp!, {r0, r1, r2, r4, r5, r6, r7, r8, r9, lr}
 800594c:	461c      	mov	r4, r3
 800594e:	2300      	movs	r3, #0
 8005950:	4617      	mov	r7, r2
 8005952:	f88d 3003 	strb.w	r3, [sp, #3]
 8005956:	4605      	mov	r5, r0
 8005958:	460e      	mov	r6, r1
 800595a:	f7fd fca3 	bl	80032a4 <HAL_GetTick>
 800595e:	443c      	add	r4, r7
 8005960:	1a24      	subs	r4, r4, r0
 8005962:	f7fd fc9f 	bl	80032a4 <HAL_GetTick>
 8005966:	4b29      	ldr	r3, [pc, #164]	; (8005a0c <SPI_WaitFifoStateUntilTimeout.constprop.0+0xc4>)
 8005968:	f8d5 9000 	ldr.w	r9, [r5]
 800596c:	681b      	ldr	r3, [r3, #0]
 800596e:	2223      	movs	r2, #35	; 0x23
 8005970:	4353      	muls	r3, r2
 8005972:	0d1b      	lsrs	r3, r3, #20
 8005974:	4680      	mov	r8, r0
 8005976:	4363      	muls	r3, r4
 8005978:	682a      	ldr	r2, [r5, #0]
 800597a:	9301      	str	r3, [sp, #4]
 800597c:	6893      	ldr	r3, [r2, #8]
 800597e:	4033      	ands	r3, r6
 8005980:	d101      	bne.n	8005986 <SPI_WaitFifoStateUntilTimeout.constprop.0+0x3e>
 8005982:	4618      	mov	r0, r3
 8005984:	e038      	b.n	80059f8 <SPI_WaitFifoStateUntilTimeout.constprop.0+0xb0>
 8005986:	f5b6 6fc0 	cmp.w	r6, #1536	; 0x600
 800598a:	bf01      	itttt	eq
 800598c:	f899 300c 	ldrbeq.w	r3, [r9, #12]
 8005990:	b2db      	uxtbeq	r3, r3
 8005992:	f88d 3003 	strbeq.w	r3, [sp, #3]
 8005996:	f89d 3003 	ldrbeq.w	r3, [sp, #3]
 800599a:	1c7b      	adds	r3, r7, #1
 800599c:	d0ee      	beq.n	800597c <SPI_WaitFifoStateUntilTimeout.constprop.0+0x34>
 800599e:	f7fd fc81 	bl	80032a4 <HAL_GetTick>
 80059a2:	eba0 0008 	sub.w	r0, r0, r8
 80059a6:	42a0      	cmp	r0, r4
 80059a8:	d329      	bcc.n	80059fe <SPI_WaitFifoStateUntilTimeout.constprop.0+0xb6>
 80059aa:	682b      	ldr	r3, [r5, #0]
 80059ac:	685a      	ldr	r2, [r3, #4]
 80059ae:	f022 02e0 	bic.w	r2, r2, #224	; 0xe0
 80059b2:	605a      	str	r2, [r3, #4]
 80059b4:	686a      	ldr	r2, [r5, #4]
 80059b6:	f5b2 7f82 	cmp.w	r2, #260	; 0x104
 80059ba:	d10a      	bne.n	80059d2 <SPI_WaitFifoStateUntilTimeout.constprop.0+0x8a>
 80059bc:	68aa      	ldr	r2, [r5, #8]
 80059be:	f5b2 4f00 	cmp.w	r2, #32768	; 0x8000
 80059c2:	d002      	beq.n	80059ca <SPI_WaitFifoStateUntilTimeout.constprop.0+0x82>
 80059c4:	f5b2 6f80 	cmp.w	r2, #1024	; 0x400
 80059c8:	d103      	bne.n	80059d2 <SPI_WaitFifoStateUntilTimeout.constprop.0+0x8a>
 80059ca:	681a      	ldr	r2, [r3, #0]
 80059cc:	f022 0240 	bic.w	r2, r2, #64	; 0x40
 80059d0:	601a      	str	r2, [r3, #0]
 80059d2:	6aaa      	ldr	r2, [r5, #40]	; 0x28
 80059d4:	f5b2 5f00 	cmp.w	r2, #8192	; 0x2000
 80059d8:	d107      	bne.n	80059ea <SPI_WaitFifoStateUntilTimeout.constprop.0+0xa2>
 80059da:	681a      	ldr	r2, [r3, #0]
 80059dc:	f422 5200 	bic.w	r2, r2, #8192	; 0x2000
 80059e0:	601a      	str	r2, [r3, #0]
 80059e2:	681a      	ldr	r2, [r3, #0]
 80059e4:	f442 5200 	orr.w	r2, r2, #8192	; 0x2000
 80059e8:	601a      	str	r2, [r3, #0]
 80059ea:	2301      	movs	r3, #1
 80059ec:	f885 305d 	strb.w	r3, [r5, #93]	; 0x5d
 80059f0:	2300      	movs	r3, #0
 80059f2:	f885 305c 	strb.w	r3, [r5, #92]	; 0x5c
 80059f6:	2003      	movs	r0, #3
 80059f8:	b003      	add	sp, #12
 80059fa:	e8bd 83f0 	ldmia.w	sp!, {r4, r5, r6, r7, r8, r9, pc}
 80059fe:	9b01      	ldr	r3, [sp, #4]
 8005a00:	2b00      	cmp	r3, #0
 8005a02:	9b01      	ldr	r3, [sp, #4]
 8005a04:	bf08      	it	eq
 8005a06:	2400      	moveq	r4, #0
 8005a08:	3b01      	subs	r3, #1
 8005a0a:	e7b5      	b.n	8005978 <SPI_WaitFifoStateUntilTimeout.constprop.0+0x30>
 8005a0c:	20000004 	.word	0x20000004

08005a10 <SPI_WaitFlagStateUntilTimeout.constprop.0>:
 8005a10:	b5f7      	push	{r0, r1, r2, r4, r5, r6, r7, lr}
 8005a12:	460e      	mov	r6, r1
 8005a14:	4614      	mov	r4, r2
 8005a16:	4605      	mov	r5, r0
 8005a18:	f7fd fc44 	bl	80032a4 <HAL_GetTick>
 8005a1c:	4434      	add	r4, r6
 8005a1e:	1a24      	subs	r4, r4, r0
 8005a20:	f7fd fc40 	bl	80032a4 <HAL_GetTick>
 8005a24:	4b22      	ldr	r3, [pc, #136]	; (8005ab0 <SPI_WaitFlagStateUntilTimeout.constprop.0+0xa0>)
 8005a26:	681b      	ldr	r3, [r3, #0]
 8005a28:	f3c3 33cb 	ubfx	r3, r3, #15, #12
 8005a2c:	4607      	mov	r7, r0
 8005a2e:	4363      	muls	r3, r4
 8005a30:	682a      	ldr	r2, [r5, #0]
 8005a32:	9301      	str	r3, [sp, #4]
 8005a34:	6893      	ldr	r3, [r2, #8]
 8005a36:	f013 0380 	ands.w	r3, r3, #128	; 0x80
 8005a3a:	d101      	bne.n	8005a40 <SPI_WaitFlagStateUntilTimeout.constprop.0+0x30>
 8005a3c:	4618      	mov	r0, r3
 8005a3e:	e02d      	b.n	8005a9c <SPI_WaitFlagStateUntilTimeout.constprop.0+0x8c>
 8005a40:	1c73      	adds	r3, r6, #1
 8005a42:	d0f7      	beq.n	8005a34 <SPI_WaitFlagStateUntilTimeout.constprop.0+0x24>
 8005a44:	f7fd fc2e 	bl	80032a4 <HAL_GetTick>
 8005a48:	1bc0      	subs	r0, r0, r7
 8005a4a:	42a0      	cmp	r0, r4
 8005a4c:	d328      	bcc.n	8005aa0 <SPI_WaitFlagStateUntilTimeout.constprop.0+0x90>
 8005a4e:	682b      	ldr	r3, [r5, #0]
 8005a50:	685a      	ldr	r2, [r3, #4]
 8005a52:	f022 02e0 	bic.w	r2, r2, #224	; 0xe0
 8005a56:	605a      	str	r2, [r3, #4]
 8005a58:	686a      	ldr	r2, [r5, #4]
 8005a5a:	f5b2 7f82 	cmp.w	r2, #260	; 0x104
 8005a5e:	d10a      	bne.n	8005a76 <SPI_WaitFlagStateUntilTimeout.constprop.0+0x66>
 8005a60:	68aa      	ldr	r2, [r5, #8]
 8005a62:	f5b2 4f00 	cmp.w	r2, #32768	; 0x8000
 8005a66:	d002      	beq.n	8005a6e <SPI_WaitFlagStateUntilTimeout.constprop.0+0x5e>
 8005a68:	f5b2 6f80 	cmp.w	r2, #1024	; 0x400
 8005a6c:	d103      	bne.n	8005a76 <SPI_WaitFlagStateUntilTimeout.constprop.0+0x66>
 8005a6e:	681a      	ldr	r2, [r3, #0]
 8005a70:	f022 0240 	bic.w	r2, r2, #64	; 0x40
 8005a74:	601a      	str	r2, [r3, #0]
 8005a76:	6aaa      	ldr	r2, [r5, #40]	; 0x28
 8005a78:	f5b2 5f00 	cmp.w	r2, #8192	; 0x2000
 8005a7c:	d107      	bne.n	8005a8e <SPI_WaitFlagStateUntilTimeout.constprop.0+0x7e>
 8005a7e:	681a      	ldr	r2, [r3, #0]
 8005a80:	f422 5200 	bic.w	r2, r2, #8192	; 0x2000
 8005a84:	601a      	str	r2, [r3, #0]
 8005a86:	681a      	ldr	r2, [r3, #0]
 8005a88:	f442 5200 	orr.w	r2, r2, #8192	; 0x2000
 8005a8c:	601a      	str	r2, [r3, #0]
 8005a8e:	2301      	movs	r3, #1
 8005a90:	f885 305d 	strb.w	r3, [r5, #93]	; 0x5d
 8005a94:	2300      	movs	r3, #0
 8005a96:	f885 305c 	strb.w	r3, [r5, #92]	; 0x5c
 8005a9a:	2003      	movs	r0, #3
 8005a9c:	b003      	add	sp, #12
 8005a9e:	bdf0      	pop	{r4, r5, r6, r7, pc}
 8005aa0:	9b01      	ldr	r3, [sp, #4]
 8005aa2:	2b00      	cmp	r3, #0
 8005aa4:	9b01      	ldr	r3, [sp, #4]
 8005aa6:	bf08      	it	eq
 8005aa8:	2400      	moveq	r4, #0
 8005aaa:	3b01      	subs	r3, #1
 8005aac:	e7c0      	b.n	8005a30 <SPI_WaitFlagStateUntilTimeout.constprop.0+0x20>
 8005aae:	bf00      	nop
 8005ab0:	20000004 	.word	0x20000004

08005ab4 <SPI_EndRxTxTransaction>:
 8005ab4:	b537      	push	{r0, r1, r2, r4, r5, lr}
 8005ab6:	4613      	mov	r3, r2
 8005ab8:	9201      	str	r2, [sp, #4]
 8005aba:	460d      	mov	r5, r1
 8005abc:	460a      	mov	r2, r1
 8005abe:	f44f 51c0 	mov.w	r1, #6144	; 0x1800
 8005ac2:	4604      	mov	r4, r0
 8005ac4:	f7ff ff40 	bl	8005948 <SPI_WaitFifoStateUntilTimeout.constprop.0>
 8005ac8:	9b01      	ldr	r3, [sp, #4]
 8005aca:	b128      	cbz	r0, 8005ad8 <SPI_EndRxTxTransaction+0x24>
 8005acc:	6e23      	ldr	r3, [r4, #96]	; 0x60
 8005ace:	f043 0320 	orr.w	r3, r3, #32
 8005ad2:	6623      	str	r3, [r4, #96]	; 0x60
 8005ad4:	2003      	movs	r0, #3
 8005ad6:	e010      	b.n	8005afa <SPI_EndRxTxTransaction+0x46>
 8005ad8:	461a      	mov	r2, r3
 8005ada:	4629      	mov	r1, r5
 8005adc:	4620      	mov	r0, r4
 8005ade:	9301      	str	r3, [sp, #4]
 8005ae0:	f7ff ff96 	bl	8005a10 <SPI_WaitFlagStateUntilTimeout.constprop.0>
 8005ae4:	9b01      	ldr	r3, [sp, #4]
 8005ae6:	2800      	cmp	r0, #0
 8005ae8:	d1f0      	bne.n	8005acc <SPI_EndRxTxTransaction+0x18>
 8005aea:	462a      	mov	r2, r5
 8005aec:	f44f 61c0 	mov.w	r1, #1536	; 0x600
 8005af0:	4620      	mov	r0, r4
 8005af2:	f7ff ff29 	bl	8005948 <SPI_WaitFifoStateUntilTimeout.constprop.0>
 8005af6:	2800      	cmp	r0, #0
 8005af8:	d1e8      	bne.n	8005acc <SPI_EndRxTxTransaction+0x18>
 8005afa:	b003      	add	sp, #12
 8005afc:	bd30      	pop	{r4, r5, pc}

08005afe <HAL_SPI_Init>:
 8005afe:	b570      	push	{r4, r5, r6, lr}
 8005b00:	4604      	mov	r4, r0
 8005b02:	2800      	cmp	r0, #0
 8005b04:	d063      	beq.n	8005bce <HAL_SPI_Init+0xd0>
 8005b06:	6a43      	ldr	r3, [r0, #36]	; 0x24
 8005b08:	2b00      	cmp	r3, #0
 8005b0a:	d15c      	bne.n	8005bc6 <HAL_SPI_Init+0xc8>
 8005b0c:	6842      	ldr	r2, [r0, #4]
 8005b0e:	f5b2 7f82 	cmp.w	r2, #260	; 0x104
 8005b12:	d000      	beq.n	8005b16 <HAL_SPI_Init+0x18>
 8005b14:	61c3      	str	r3, [r0, #28]
 8005b16:	2300      	movs	r3, #0
 8005b18:	62a3      	str	r3, [r4, #40]	; 0x28
 8005b1a:	f894 305d 	ldrb.w	r3, [r4, #93]	; 0x5d
 8005b1e:	f003 02ff 	and.w	r2, r3, #255	; 0xff
 8005b22:	b923      	cbnz	r3, 8005b2e <HAL_SPI_Init+0x30>
 8005b24:	f884 205c 	strb.w	r2, [r4, #92]	; 0x5c
 8005b28:	4620      	mov	r0, r4
 8005b2a:	f7fd f909 	bl	8002d40 <HAL_SPI_MspInit>
 8005b2e:	6822      	ldr	r2, [r4, #0]
 8005b30:	68e0      	ldr	r0, [r4, #12]
 8005b32:	2302      	movs	r3, #2
 8005b34:	f884 305d 	strb.w	r3, [r4, #93]	; 0x5d
 8005b38:	6813      	ldr	r3, [r2, #0]
 8005b3a:	f5b0 6fe0 	cmp.w	r0, #1792	; 0x700
 8005b3e:	f023 0340 	bic.w	r3, r3, #64	; 0x40
 8005b42:	6013      	str	r3, [r2, #0]
 8005b44:	f04f 0300 	mov.w	r3, #0
 8005b48:	d843      	bhi.n	8005bd2 <HAL_SPI_Init+0xd4>
 8005b4a:	f44f 5580 	mov.w	r5, #4096	; 0x1000
 8005b4e:	d000      	beq.n	8005b52 <HAL_SPI_Init+0x54>
 8005b50:	62a3      	str	r3, [r4, #40]	; 0x28
 8005b52:	6863      	ldr	r3, [r4, #4]
 8005b54:	68a6      	ldr	r6, [r4, #8]
 8005b56:	69a1      	ldr	r1, [r4, #24]
 8005b58:	f406 4604 	and.w	r6, r6, #33792	; 0x8400
 8005b5c:	f403 7382 	and.w	r3, r3, #260	; 0x104
 8005b60:	4333      	orrs	r3, r6
 8005b62:	6926      	ldr	r6, [r4, #16]
 8005b64:	f006 0602 	and.w	r6, r6, #2
 8005b68:	4333      	orrs	r3, r6
 8005b6a:	6966      	ldr	r6, [r4, #20]
 8005b6c:	f006 0601 	and.w	r6, r6, #1
 8005b70:	4333      	orrs	r3, r6
 8005b72:	f401 7600 	and.w	r6, r1, #512	; 0x200
 8005b76:	4333      	orrs	r3, r6
 8005b78:	69e6      	ldr	r6, [r4, #28]
 8005b7a:	f006 0638 	and.w	r6, r6, #56	; 0x38
 8005b7e:	4333      	orrs	r3, r6
 8005b80:	6a26      	ldr	r6, [r4, #32]
 8005b82:	f006 0680 	and.w	r6, r6, #128	; 0x80
 8005b86:	4333      	orrs	r3, r6
 8005b88:	6aa6      	ldr	r6, [r4, #40]	; 0x28
 8005b8a:	f406 5600 	and.w	r6, r6, #8192	; 0x2000
 8005b8e:	4333      	orrs	r3, r6
 8005b90:	6013      	str	r3, [r2, #0]
 8005b92:	6b66      	ldr	r6, [r4, #52]	; 0x34
 8005b94:	6a63      	ldr	r3, [r4, #36]	; 0x24
 8005b96:	f006 0608 	and.w	r6, r6, #8
 8005b9a:	f003 0310 	and.w	r3, r3, #16
 8005b9e:	f400 6070 	and.w	r0, r0, #3840	; 0xf00
 8005ba2:	4333      	orrs	r3, r6
 8005ba4:	0c09      	lsrs	r1, r1, #16
 8005ba6:	4303      	orrs	r3, r0
 8005ba8:	f001 0104 	and.w	r1, r1, #4
 8005bac:	430b      	orrs	r3, r1
 8005bae:	432b      	orrs	r3, r5
 8005bb0:	6053      	str	r3, [r2, #4]
 8005bb2:	69d3      	ldr	r3, [r2, #28]
 8005bb4:	f423 6300 	bic.w	r3, r3, #2048	; 0x800
 8005bb8:	61d3      	str	r3, [r2, #28]
 8005bba:	2000      	movs	r0, #0
 8005bbc:	2301      	movs	r3, #1
 8005bbe:	6620      	str	r0, [r4, #96]	; 0x60
 8005bc0:	f884 305d 	strb.w	r3, [r4, #93]	; 0x5d
 8005bc4:	bd70      	pop	{r4, r5, r6, pc}
 8005bc6:	2300      	movs	r3, #0
 8005bc8:	e9c0 3304 	strd	r3, r3, [r0, #16]
 8005bcc:	e7a3      	b.n	8005b16 <HAL_SPI_Init+0x18>
 8005bce:	2001      	movs	r0, #1
 8005bd0:	e7f8      	b.n	8005bc4 <HAL_SPI_Init+0xc6>
 8005bd2:	461d      	mov	r5, r3
 8005bd4:	f5b0 6f70 	cmp.w	r0, #3840	; 0xf00
 8005bd8:	e7b9      	b.n	8005b4e <HAL_SPI_Init+0x50>

08005bda <HAL_SPI_Transmit>:
 8005bda:	e92d 47f3 	stmdb	sp!, {r0, r1, r4, r5, r6, r7, r8, r9, sl, lr}
 8005bde:	461f      	mov	r7, r3
 8005be0:	f890 305c 	ldrb.w	r3, [r0, #92]	; 0x5c
 8005be4:	2b01      	cmp	r3, #1
 8005be6:	4604      	mov	r4, r0
 8005be8:	460d      	mov	r5, r1
 8005bea:	4690      	mov	r8, r2
 8005bec:	f000 80bc 	beq.w	8005d68 <HAL_SPI_Transmit+0x18e>
 8005bf0:	2301      	movs	r3, #1
 8005bf2:	f880 305c 	strb.w	r3, [r0, #92]	; 0x5c
 8005bf6:	f7fd fb55 	bl	80032a4 <HAL_GetTick>
 8005bfa:	f894 305d 	ldrb.w	r3, [r4, #93]	; 0x5d
 8005bfe:	2b01      	cmp	r3, #1
 8005c00:	4682      	mov	sl, r0
 8005c02:	fa5f f983 	uxtb.w	r9, r3
 8005c06:	f040 80ac 	bne.w	8005d62 <HAL_SPI_Transmit+0x188>
 8005c0a:	2d00      	cmp	r5, #0
 8005c0c:	d069      	beq.n	8005ce2 <HAL_SPI_Transmit+0x108>
 8005c0e:	f1b8 0f00 	cmp.w	r8, #0
 8005c12:	d066      	beq.n	8005ce2 <HAL_SPI_Transmit+0x108>
 8005c14:	2303      	movs	r3, #3
 8005c16:	f884 305d 	strb.w	r3, [r4, #93]	; 0x5d
 8005c1a:	2300      	movs	r3, #0
 8005c1c:	6623      	str	r3, [r4, #96]	; 0x60
 8005c1e:	e9c4 3313 	strd	r3, r3, [r4, #76]	; 0x4c
 8005c22:	f8a4 803e 	strh.w	r8, [r4, #62]	; 0x3e
 8005c26:	6423      	str	r3, [r4, #64]	; 0x40
 8005c28:	f8a4 3044 	strh.w	r3, [r4, #68]	; 0x44
 8005c2c:	f8a4 3046 	strh.w	r3, [r4, #70]	; 0x46
 8005c30:	68a3      	ldr	r3, [r4, #8]
 8005c32:	6826      	ldr	r6, [r4, #0]
 8005c34:	63a5      	str	r5, [r4, #56]	; 0x38
 8005c36:	f5b3 4f00 	cmp.w	r3, #32768	; 0x8000
 8005c3a:	f8a4 803c 	strh.w	r8, [r4, #60]	; 0x3c
 8005c3e:	d107      	bne.n	8005c50 <HAL_SPI_Transmit+0x76>
 8005c40:	6833      	ldr	r3, [r6, #0]
 8005c42:	f023 0340 	bic.w	r3, r3, #64	; 0x40
 8005c46:	6033      	str	r3, [r6, #0]
 8005c48:	6833      	ldr	r3, [r6, #0]
 8005c4a:	f443 4380 	orr.w	r3, r3, #16384	; 0x4000
 8005c4e:	6033      	str	r3, [r6, #0]
 8005c50:	6833      	ldr	r3, [r6, #0]
 8005c52:	6862      	ldr	r2, [r4, #4]
 8005c54:	065b      	lsls	r3, r3, #25
 8005c56:	bf5e      	ittt	pl
 8005c58:	6833      	ldrpl	r3, [r6, #0]
 8005c5a:	f043 0340 	orrpl.w	r3, r3, #64	; 0x40
 8005c5e:	6033      	strpl	r3, [r6, #0]
 8005c60:	68e3      	ldr	r3, [r4, #12]
 8005c62:	f5b3 6fe0 	cmp.w	r3, #1792	; 0x700
 8005c66:	d943      	bls.n	8005cf0 <HAL_SPI_Transmit+0x116>
 8005c68:	b112      	cbz	r2, 8005c70 <HAL_SPI_Transmit+0x96>
 8005c6a:	f1b8 0f01 	cmp.w	r8, #1
 8005c6e:	d107      	bne.n	8005c80 <HAL_SPI_Transmit+0xa6>
 8005c70:	f835 3b02 	ldrh.w	r3, [r5], #2
 8005c74:	60f3      	str	r3, [r6, #12]
 8005c76:	63a5      	str	r5, [r4, #56]	; 0x38
 8005c78:	8fe3      	ldrh	r3, [r4, #62]	; 0x3e
 8005c7a:	3b01      	subs	r3, #1
 8005c7c:	b29b      	uxth	r3, r3
 8005c7e:	87e3      	strh	r3, [r4, #62]	; 0x3e
 8005c80:	8fe3      	ldrh	r3, [r4, #62]	; 0x3e
 8005c82:	b29b      	uxth	r3, r3
 8005c84:	b9b3      	cbnz	r3, 8005cb4 <HAL_SPI_Transmit+0xda>
 8005c86:	4652      	mov	r2, sl
 8005c88:	4639      	mov	r1, r7
 8005c8a:	4620      	mov	r0, r4
 8005c8c:	f7ff ff12 	bl	8005ab4 <SPI_EndRxTxTransaction>
 8005c90:	2800      	cmp	r0, #0
 8005c92:	d163      	bne.n	8005d5c <HAL_SPI_Transmit+0x182>
 8005c94:	68a3      	ldr	r3, [r4, #8]
 8005c96:	b933      	cbnz	r3, 8005ca6 <HAL_SPI_Transmit+0xcc>
 8005c98:	9301      	str	r3, [sp, #4]
 8005c9a:	6823      	ldr	r3, [r4, #0]
 8005c9c:	68da      	ldr	r2, [r3, #12]
 8005c9e:	9201      	str	r2, [sp, #4]
 8005ca0:	689b      	ldr	r3, [r3, #8]
 8005ca2:	9301      	str	r3, [sp, #4]
 8005ca4:	9b01      	ldr	r3, [sp, #4]
 8005ca6:	6e23      	ldr	r3, [r4, #96]	; 0x60
 8005ca8:	b9db      	cbnz	r3, 8005ce2 <HAL_SPI_Transmit+0x108>
 8005caa:	2201      	movs	r2, #1
 8005cac:	f884 205d 	strb.w	r2, [r4, #93]	; 0x5d
 8005cb0:	4699      	mov	r9, r3
 8005cb2:	e016      	b.n	8005ce2 <HAL_SPI_Transmit+0x108>
 8005cb4:	6822      	ldr	r2, [r4, #0]
 8005cb6:	6893      	ldr	r3, [r2, #8]
 8005cb8:	079d      	lsls	r5, r3, #30
 8005cba:	d505      	bpl.n	8005cc8 <HAL_SPI_Transmit+0xee>
 8005cbc:	6ba3      	ldr	r3, [r4, #56]	; 0x38
 8005cbe:	f833 1b02 	ldrh.w	r1, [r3], #2
 8005cc2:	60d1      	str	r1, [r2, #12]
 8005cc4:	63a3      	str	r3, [r4, #56]	; 0x38
 8005cc6:	e7d7      	b.n	8005c78 <HAL_SPI_Transmit+0x9e>
 8005cc8:	f7fd faec 	bl	80032a4 <HAL_GetTick>
 8005ccc:	eba0 000a 	sub.w	r0, r0, sl
 8005cd0:	42b8      	cmp	r0, r7
 8005cd2:	d3d5      	bcc.n	8005c80 <HAL_SPI_Transmit+0xa6>
 8005cd4:	1c78      	adds	r0, r7, #1
 8005cd6:	d0d3      	beq.n	8005c80 <HAL_SPI_Transmit+0xa6>
 8005cd8:	2301      	movs	r3, #1
 8005cda:	f884 305d 	strb.w	r3, [r4, #93]	; 0x5d
 8005cde:	f04f 0903 	mov.w	r9, #3
 8005ce2:	2300      	movs	r3, #0
 8005ce4:	f884 305c 	strb.w	r3, [r4, #92]	; 0x5c
 8005ce8:	4648      	mov	r0, r9
 8005cea:	b002      	add	sp, #8
 8005cec:	e8bd 87f0 	ldmia.w	sp!, {r4, r5, r6, r7, r8, r9, sl, pc}
 8005cf0:	b112      	cbz	r2, 8005cf8 <HAL_SPI_Transmit+0x11e>
 8005cf2:	f1b8 0f01 	cmp.w	r8, #1
 8005cf6:	d113      	bne.n	8005d20 <HAL_SPI_Transmit+0x146>
 8005cf8:	8fe3      	ldrh	r3, [r4, #62]	; 0x3e
 8005cfa:	b29b      	uxth	r3, r3
 8005cfc:	2b01      	cmp	r3, #1
 8005cfe:	d906      	bls.n	8005d0e <HAL_SPI_Transmit+0x134>
 8005d00:	f835 3b02 	ldrh.w	r3, [r5], #2
 8005d04:	60f3      	str	r3, [r6, #12]
 8005d06:	63a5      	str	r5, [r4, #56]	; 0x38
 8005d08:	8fe3      	ldrh	r3, [r4, #62]	; 0x3e
 8005d0a:	3b02      	subs	r3, #2
 8005d0c:	e006      	b.n	8005d1c <HAL_SPI_Transmit+0x142>
 8005d0e:	782b      	ldrb	r3, [r5, #0]
 8005d10:	7333      	strb	r3, [r6, #12]
 8005d12:	6ba3      	ldr	r3, [r4, #56]	; 0x38
 8005d14:	3301      	adds	r3, #1
 8005d16:	63a3      	str	r3, [r4, #56]	; 0x38
 8005d18:	8fe3      	ldrh	r3, [r4, #62]	; 0x3e
 8005d1a:	3b01      	subs	r3, #1
 8005d1c:	b29b      	uxth	r3, r3
 8005d1e:	87e3      	strh	r3, [r4, #62]	; 0x3e
 8005d20:	8fe3      	ldrh	r3, [r4, #62]	; 0x3e
 8005d22:	b29b      	uxth	r3, r3
 8005d24:	2b00      	cmp	r3, #0
 8005d26:	d0ae      	beq.n	8005c86 <HAL_SPI_Transmit+0xac>
 8005d28:	6822      	ldr	r2, [r4, #0]
 8005d2a:	6893      	ldr	r3, [r2, #8]
 8005d2c:	0799      	lsls	r1, r3, #30
 8005d2e:	d50c      	bpl.n	8005d4a <HAL_SPI_Transmit+0x170>
 8005d30:	8fe1      	ldrh	r1, [r4, #62]	; 0x3e
 8005d32:	6ba3      	ldr	r3, [r4, #56]	; 0x38
 8005d34:	b289      	uxth	r1, r1
 8005d36:	2901      	cmp	r1, #1
 8005d38:	d904      	bls.n	8005d44 <HAL_SPI_Transmit+0x16a>
 8005d3a:	f833 1b02 	ldrh.w	r1, [r3], #2
 8005d3e:	60d1      	str	r1, [r2, #12]
 8005d40:	63a3      	str	r3, [r4, #56]	; 0x38
 8005d42:	e7e1      	b.n	8005d08 <HAL_SPI_Transmit+0x12e>
 8005d44:	781b      	ldrb	r3, [r3, #0]
 8005d46:	7313      	strb	r3, [r2, #12]
 8005d48:	e7e3      	b.n	8005d12 <HAL_SPI_Transmit+0x138>
 8005d4a:	f7fd faab 	bl	80032a4 <HAL_GetTick>
 8005d4e:	eba0 000a 	sub.w	r0, r0, sl
 8005d52:	42b8      	cmp	r0, r7
 8005d54:	d3e4      	bcc.n	8005d20 <HAL_SPI_Transmit+0x146>
 8005d56:	1c7b      	adds	r3, r7, #1
 8005d58:	d0e2      	beq.n	8005d20 <HAL_SPI_Transmit+0x146>
 8005d5a:	e7bd      	b.n	8005cd8 <HAL_SPI_Transmit+0xfe>
 8005d5c:	2320      	movs	r3, #32
 8005d5e:	6623      	str	r3, [r4, #96]	; 0x60
 8005d60:	e798      	b.n	8005c94 <HAL_SPI_Transmit+0xba>
 8005d62:	f04f 0902 	mov.w	r9, #2
 8005d66:	e7bc      	b.n	8005ce2 <HAL_SPI_Transmit+0x108>
 8005d68:	f04f 0902 	mov.w	r9, #2
 8005d6c:	e7bc      	b.n	8005ce8 <HAL_SPI_Transmit+0x10e>

08005d6e <HAL_SPI_TransmitReceive>:
 8005d6e:	e92d 43f8 	stmdb	sp!, {r3, r4, r5, r6, r7, r8, r9, lr}
 8005d72:	461e      	mov	r6, r3
 8005d74:	f890 305c 	ldrb.w	r3, [r0, #92]	; 0x5c
 8005d78:	9f08      	ldr	r7, [sp, #32]
 8005d7a:	2b01      	cmp	r3, #1
 8005d7c:	4604      	mov	r4, r0
 8005d7e:	460d      	mov	r5, r1
 8005d80:	4691      	mov	r9, r2
 8005d82:	f000 8120 	beq.w	8005fc6 <HAL_SPI_TransmitReceive+0x258>
 8005d86:	2301      	movs	r3, #1
 8005d88:	f880 305c 	strb.w	r3, [r0, #92]	; 0x5c
 8005d8c:	f7fd fa8a 	bl	80032a4 <HAL_GetTick>
 8005d90:	f894 205d 	ldrb.w	r2, [r4, #93]	; 0x5d
 8005d94:	6863      	ldr	r3, [r4, #4]
 8005d96:	2a01      	cmp	r2, #1
 8005d98:	4680      	mov	r8, r0
 8005d9a:	b2d1      	uxtb	r1, r2
 8005d9c:	d00a      	beq.n	8005db4 <HAL_SPI_TransmitReceive+0x46>
 8005d9e:	f5b3 7f82 	cmp.w	r3, #260	; 0x104
 8005da2:	f040 810e 	bne.w	8005fc2 <HAL_SPI_TransmitReceive+0x254>
 8005da6:	68a2      	ldr	r2, [r4, #8]
 8005da8:	2a00      	cmp	r2, #0
 8005daa:	f040 810a 	bne.w	8005fc2 <HAL_SPI_TransmitReceive+0x254>
 8005dae:	2904      	cmp	r1, #4
 8005db0:	f040 8107 	bne.w	8005fc2 <HAL_SPI_TransmitReceive+0x254>
 8005db4:	b92d      	cbnz	r5, 8005dc2 <HAL_SPI_TransmitReceive+0x54>
 8005db6:	2001      	movs	r0, #1
 8005db8:	2300      	movs	r3, #0
 8005dba:	f884 305c 	strb.w	r3, [r4, #92]	; 0x5c
 8005dbe:	e8bd 83f8 	ldmia.w	sp!, {r3, r4, r5, r6, r7, r8, r9, pc}
 8005dc2:	f1b9 0f00 	cmp.w	r9, #0
 8005dc6:	d0f6      	beq.n	8005db6 <HAL_SPI_TransmitReceive+0x48>
 8005dc8:	2e00      	cmp	r6, #0
 8005dca:	d0f4      	beq.n	8005db6 <HAL_SPI_TransmitReceive+0x48>
 8005dcc:	f894 205d 	ldrb.w	r2, [r4, #93]	; 0x5d
 8005dd0:	68e0      	ldr	r0, [r4, #12]
 8005dd2:	6821      	ldr	r1, [r4, #0]
 8005dd4:	f8c4 9040 	str.w	r9, [r4, #64]	; 0x40
 8005dd8:	2a04      	cmp	r2, #4
 8005dda:	bf1c      	itt	ne
 8005ddc:	2205      	movne	r2, #5
 8005dde:	f884 205d 	strbne.w	r2, [r4, #93]	; 0x5d
 8005de2:	2200      	movs	r2, #0
 8005de4:	6622      	str	r2, [r4, #96]	; 0x60
 8005de6:	f5b0 6fe0 	cmp.w	r0, #1792	; 0x700
 8005dea:	f8a4 6046 	strh.w	r6, [r4, #70]	; 0x46
 8005dee:	87e6      	strh	r6, [r4, #62]	; 0x3e
 8005df0:	e9c4 2213 	strd	r2, r2, [r4, #76]	; 0x4c
 8005df4:	f8a4 6044 	strh.w	r6, [r4, #68]	; 0x44
 8005df8:	684a      	ldr	r2, [r1, #4]
 8005dfa:	63a5      	str	r5, [r4, #56]	; 0x38
 8005dfc:	87a6      	strh	r6, [r4, #60]	; 0x3c
 8005dfe:	d801      	bhi.n	8005e04 <HAL_SPI_TransmitReceive+0x96>
 8005e00:	2e01      	cmp	r6, #1
 8005e02:	d02e      	beq.n	8005e62 <HAL_SPI_TransmitReceive+0xf4>
 8005e04:	f422 5280 	bic.w	r2, r2, #4096	; 0x1000
 8005e08:	604a      	str	r2, [r1, #4]
 8005e0a:	680a      	ldr	r2, [r1, #0]
 8005e0c:	0652      	lsls	r2, r2, #25
 8005e0e:	bf5e      	ittt	pl
 8005e10:	680a      	ldrpl	r2, [r1, #0]
 8005e12:	f042 0240 	orrpl.w	r2, r2, #64	; 0x40
 8005e16:	600a      	strpl	r2, [r1, #0]
 8005e18:	f5b0 6fe0 	cmp.w	r0, #1792	; 0x700
 8005e1c:	d957      	bls.n	8005ece <HAL_SPI_TransmitReceive+0x160>
 8005e1e:	b10b      	cbz	r3, 8005e24 <HAL_SPI_TransmitReceive+0xb6>
 8005e20:	2e01      	cmp	r6, #1
 8005e22:	d107      	bne.n	8005e34 <HAL_SPI_TransmitReceive+0xc6>
 8005e24:	f835 3b02 	ldrh.w	r3, [r5], #2
 8005e28:	60cb      	str	r3, [r1, #12]
 8005e2a:	8fe3      	ldrh	r3, [r4, #62]	; 0x3e
 8005e2c:	63a5      	str	r5, [r4, #56]	; 0x38
 8005e2e:	3b01      	subs	r3, #1
 8005e30:	b29b      	uxth	r3, r3
 8005e32:	87e3      	strh	r3, [r4, #62]	; 0x3e
 8005e34:	2501      	movs	r5, #1
 8005e36:	8fe3      	ldrh	r3, [r4, #62]	; 0x3e
 8005e38:	b29b      	uxth	r3, r3
 8005e3a:	b9ab      	cbnz	r3, 8005e68 <HAL_SPI_TransmitReceive+0xfa>
 8005e3c:	f8b4 3046 	ldrh.w	r3, [r4, #70]	; 0x46
 8005e40:	b29b      	uxth	r3, r3
 8005e42:	b98b      	cbnz	r3, 8005e68 <HAL_SPI_TransmitReceive+0xfa>
 8005e44:	4642      	mov	r2, r8
 8005e46:	4639      	mov	r1, r7
 8005e48:	4620      	mov	r0, r4
 8005e4a:	f7ff fe33 	bl	8005ab4 <SPI_EndRxTxTransaction>
 8005e4e:	2800      	cmp	r0, #0
 8005e50:	f040 80b3 	bne.w	8005fba <HAL_SPI_TransmitReceive+0x24c>
 8005e54:	6e23      	ldr	r3, [r4, #96]	; 0x60
 8005e56:	2b00      	cmp	r3, #0
 8005e58:	d1ad      	bne.n	8005db6 <HAL_SPI_TransmitReceive+0x48>
 8005e5a:	2301      	movs	r3, #1
 8005e5c:	f884 305d 	strb.w	r3, [r4, #93]	; 0x5d
 8005e60:	e7aa      	b.n	8005db8 <HAL_SPI_TransmitReceive+0x4a>
 8005e62:	f442 5280 	orr.w	r2, r2, #4096	; 0x1000
 8005e66:	e7cf      	b.n	8005e08 <HAL_SPI_TransmitReceive+0x9a>
 8005e68:	6821      	ldr	r1, [r4, #0]
 8005e6a:	688b      	ldr	r3, [r1, #8]
 8005e6c:	079e      	lsls	r6, r3, #30
 8005e6e:	d50d      	bpl.n	8005e8c <HAL_SPI_TransmitReceive+0x11e>
 8005e70:	8fe3      	ldrh	r3, [r4, #62]	; 0x3e
 8005e72:	b29b      	uxth	r3, r3
 8005e74:	b153      	cbz	r3, 8005e8c <HAL_SPI_TransmitReceive+0x11e>
 8005e76:	b14d      	cbz	r5, 8005e8c <HAL_SPI_TransmitReceive+0x11e>
 8005e78:	6ba3      	ldr	r3, [r4, #56]	; 0x38
 8005e7a:	f833 2b02 	ldrh.w	r2, [r3], #2
 8005e7e:	60ca      	str	r2, [r1, #12]
 8005e80:	63a3      	str	r3, [r4, #56]	; 0x38
 8005e82:	8fe3      	ldrh	r3, [r4, #62]	; 0x3e
 8005e84:	3b01      	subs	r3, #1
 8005e86:	b29b      	uxth	r3, r3
 8005e88:	87e3      	strh	r3, [r4, #62]	; 0x3e
 8005e8a:	2500      	movs	r5, #0
 8005e8c:	688a      	ldr	r2, [r1, #8]
 8005e8e:	f012 0201 	ands.w	r2, r2, #1
 8005e92:	d00f      	beq.n	8005eb4 <HAL_SPI_TransmitReceive+0x146>
 8005e94:	f8b4 3046 	ldrh.w	r3, [r4, #70]	; 0x46
 8005e98:	b29b      	uxth	r3, r3
 8005e9a:	b15b      	cbz	r3, 8005eb4 <HAL_SPI_TransmitReceive+0x146>
 8005e9c:	6c23      	ldr	r3, [r4, #64]	; 0x40
 8005e9e:	68c9      	ldr	r1, [r1, #12]
 8005ea0:	f823 1b02 	strh.w	r1, [r3], #2
 8005ea4:	6423      	str	r3, [r4, #64]	; 0x40
 8005ea6:	f8b4 3046 	ldrh.w	r3, [r4, #70]	; 0x46
 8005eaa:	3b01      	subs	r3, #1
 8005eac:	b29b      	uxth	r3, r3
 8005eae:	f8a4 3046 	strh.w	r3, [r4, #70]	; 0x46
 8005eb2:	4615      	mov	r5, r2
 8005eb4:	f7fd f9f6 	bl	80032a4 <HAL_GetTick>
 8005eb8:	eba0 0008 	sub.w	r0, r0, r8
 8005ebc:	42b8      	cmp	r0, r7
 8005ebe:	d3ba      	bcc.n	8005e36 <HAL_SPI_TransmitReceive+0xc8>
 8005ec0:	1c78      	adds	r0, r7, #1
 8005ec2:	d0b8      	beq.n	8005e36 <HAL_SPI_TransmitReceive+0xc8>
 8005ec4:	2301      	movs	r3, #1
 8005ec6:	f884 305d 	strb.w	r3, [r4, #93]	; 0x5d
 8005eca:	2003      	movs	r0, #3
 8005ecc:	e774      	b.n	8005db8 <HAL_SPI_TransmitReceive+0x4a>
 8005ece:	b10b      	cbz	r3, 8005ed4 <HAL_SPI_TransmitReceive+0x166>
 8005ed0:	2e01      	cmp	r6, #1
 8005ed2:	d10b      	bne.n	8005eec <HAL_SPI_TransmitReceive+0x17e>
 8005ed4:	8fe3      	ldrh	r3, [r4, #62]	; 0x3e
 8005ed6:	b29b      	uxth	r3, r3
 8005ed8:	2b01      	cmp	r3, #1
 8005eda:	d952      	bls.n	8005f82 <HAL_SPI_TransmitReceive+0x214>
 8005edc:	f835 3b02 	ldrh.w	r3, [r5], #2
 8005ee0:	60cb      	str	r3, [r1, #12]
 8005ee2:	8fe3      	ldrh	r3, [r4, #62]	; 0x3e
 8005ee4:	63a5      	str	r5, [r4, #56]	; 0x38
 8005ee6:	3b02      	subs	r3, #2
 8005ee8:	b29b      	uxth	r3, r3
 8005eea:	87e3      	strh	r3, [r4, #62]	; 0x3e
 8005eec:	2501      	movs	r5, #1
 8005eee:	8fe3      	ldrh	r3, [r4, #62]	; 0x3e
 8005ef0:	b29b      	uxth	r3, r3
 8005ef2:	b923      	cbnz	r3, 8005efe <HAL_SPI_TransmitReceive+0x190>
 8005ef4:	f8b4 3046 	ldrh.w	r3, [r4, #70]	; 0x46
 8005ef8:	b29b      	uxth	r3, r3
 8005efa:	2b00      	cmp	r3, #0
 8005efc:	d0a2      	beq.n	8005e44 <HAL_SPI_TransmitReceive+0xd6>
 8005efe:	6822      	ldr	r2, [r4, #0]
 8005f00:	6893      	ldr	r3, [r2, #8]
 8005f02:	0799      	lsls	r1, r3, #30
 8005f04:	d511      	bpl.n	8005f2a <HAL_SPI_TransmitReceive+0x1bc>
 8005f06:	8fe3      	ldrh	r3, [r4, #62]	; 0x3e
 8005f08:	b29b      	uxth	r3, r3
 8005f0a:	b173      	cbz	r3, 8005f2a <HAL_SPI_TransmitReceive+0x1bc>
 8005f0c:	b16d      	cbz	r5, 8005f2a <HAL_SPI_TransmitReceive+0x1bc>
 8005f0e:	8fe1      	ldrh	r1, [r4, #62]	; 0x3e
 8005f10:	6ba3      	ldr	r3, [r4, #56]	; 0x38
 8005f12:	b289      	uxth	r1, r1
 8005f14:	2901      	cmp	r1, #1
 8005f16:	d93c      	bls.n	8005f92 <HAL_SPI_TransmitReceive+0x224>
 8005f18:	f833 1b02 	ldrh.w	r1, [r3], #2
 8005f1c:	60d1      	str	r1, [r2, #12]
 8005f1e:	63a3      	str	r3, [r4, #56]	; 0x38
 8005f20:	8fe3      	ldrh	r3, [r4, #62]	; 0x3e
 8005f22:	3b02      	subs	r3, #2
 8005f24:	b29b      	uxth	r3, r3
 8005f26:	87e3      	strh	r3, [r4, #62]	; 0x3e
 8005f28:	2500      	movs	r5, #0
 8005f2a:	6822      	ldr	r2, [r4, #0]
 8005f2c:	6893      	ldr	r3, [r2, #8]
 8005f2e:	f013 0301 	ands.w	r3, r3, #1
 8005f32:	d01d      	beq.n	8005f70 <HAL_SPI_TransmitReceive+0x202>
 8005f34:	f8b4 1046 	ldrh.w	r1, [r4, #70]	; 0x46
 8005f38:	b289      	uxth	r1, r1
 8005f3a:	b1c9      	cbz	r1, 8005f70 <HAL_SPI_TransmitReceive+0x202>
 8005f3c:	f8b4 0046 	ldrh.w	r0, [r4, #70]	; 0x46
 8005f40:	6c21      	ldr	r1, [r4, #64]	; 0x40
 8005f42:	b280      	uxth	r0, r0
 8005f44:	2801      	cmp	r0, #1
 8005f46:	d92c      	bls.n	8005fa2 <HAL_SPI_TransmitReceive+0x234>
 8005f48:	68d0      	ldr	r0, [r2, #12]
 8005f4a:	f821 0b02 	strh.w	r0, [r1], #2
 8005f4e:	6421      	str	r1, [r4, #64]	; 0x40
 8005f50:	f8b4 1046 	ldrh.w	r1, [r4, #70]	; 0x46
 8005f54:	3902      	subs	r1, #2
 8005f56:	b289      	uxth	r1, r1
 8005f58:	f8a4 1046 	strh.w	r1, [r4, #70]	; 0x46
 8005f5c:	f8b4 1046 	ldrh.w	r1, [r4, #70]	; 0x46
 8005f60:	b289      	uxth	r1, r1
 8005f62:	2901      	cmp	r1, #1
 8005f64:	d803      	bhi.n	8005f6e <HAL_SPI_TransmitReceive+0x200>
 8005f66:	6851      	ldr	r1, [r2, #4]
 8005f68:	f441 5180 	orr.w	r1, r1, #4096	; 0x1000
 8005f6c:	6051      	str	r1, [r2, #4]
 8005f6e:	461d      	mov	r5, r3
 8005f70:	f7fd f998 	bl	80032a4 <HAL_GetTick>
 8005f74:	eba0 0008 	sub.w	r0, r0, r8
 8005f78:	42b8      	cmp	r0, r7
 8005f7a:	d3b8      	bcc.n	8005eee <HAL_SPI_TransmitReceive+0x180>
 8005f7c:	1c7b      	adds	r3, r7, #1
 8005f7e:	d0b6      	beq.n	8005eee <HAL_SPI_TransmitReceive+0x180>
 8005f80:	e7a0      	b.n	8005ec4 <HAL_SPI_TransmitReceive+0x156>
 8005f82:	782b      	ldrb	r3, [r5, #0]
 8005f84:	730b      	strb	r3, [r1, #12]
 8005f86:	6ba3      	ldr	r3, [r4, #56]	; 0x38
 8005f88:	3301      	adds	r3, #1
 8005f8a:	63a3      	str	r3, [r4, #56]	; 0x38
 8005f8c:	8fe3      	ldrh	r3, [r4, #62]	; 0x3e
 8005f8e:	3b01      	subs	r3, #1
 8005f90:	e7aa      	b.n	8005ee8 <HAL_SPI_TransmitReceive+0x17a>
 8005f92:	781b      	ldrb	r3, [r3, #0]
 8005f94:	7313      	strb	r3, [r2, #12]
 8005f96:	6ba3      	ldr	r3, [r4, #56]	; 0x38
 8005f98:	3301      	adds	r3, #1
 8005f9a:	63a3      	str	r3, [r4, #56]	; 0x38
 8005f9c:	8fe3      	ldrh	r3, [r4, #62]	; 0x3e
 8005f9e:	3b01      	subs	r3, #1
 8005fa0:	e7c0      	b.n	8005f24 <HAL_SPI_TransmitReceive+0x1b6>
 8005fa2:	7b12      	ldrb	r2, [r2, #12]
 8005fa4:	700a      	strb	r2, [r1, #0]
 8005fa6:	6c22      	ldr	r2, [r4, #64]	; 0x40
 8005fa8:	3201      	adds	r2, #1
 8005faa:	6422      	str	r2, [r4, #64]	; 0x40
 8005fac:	f8b4 2046 	ldrh.w	r2, [r4, #70]	; 0x46
 8005fb0:	3a01      	subs	r2, #1
 8005fb2:	b292      	uxth	r2, r2
 8005fb4:	f8a4 2046 	strh.w	r2, [r4, #70]	; 0x46
 8005fb8:	e7d9      	b.n	8005f6e <HAL_SPI_TransmitReceive+0x200>
 8005fba:	2320      	movs	r3, #32
 8005fbc:	6623      	str	r3, [r4, #96]	; 0x60
 8005fbe:	2001      	movs	r0, #1
 8005fc0:	e748      	b.n	8005e54 <HAL_SPI_TransmitReceive+0xe6>
 8005fc2:	2002      	movs	r0, #2
 8005fc4:	e6f8      	b.n	8005db8 <HAL_SPI_TransmitReceive+0x4a>
 8005fc6:	2002      	movs	r0, #2
 8005fc8:	e6f9      	b.n	8005dbe <HAL_SPI_TransmitReceive+0x50>

08005fca <TIM_DMAError>:
 8005fca:	b510      	push	{r4, lr}
 8005fcc:	6a44      	ldr	r4, [r0, #36]	; 0x24
 8005fce:	6a63      	ldr	r3, [r4, #36]	; 0x24
 8005fd0:	4283      	cmp	r3, r0
 8005fd2:	d10a      	bne.n	8005fea <TIM_DMAError+0x20>
 8005fd4:	2301      	movs	r3, #1
 8005fd6:	7723      	strb	r3, [r4, #28]
 8005fd8:	f884 303e 	strb.w	r3, [r4, #62]	; 0x3e
 8005fdc:	f8d4 30a8 	ldr.w	r3, [r4, #168]	; 0xa8
 8005fe0:	4620      	mov	r0, r4
 8005fe2:	4798      	blx	r3
 8005fe4:	2300      	movs	r3, #0
 8005fe6:	7723      	strb	r3, [r4, #28]
 8005fe8:	bd10      	pop	{r4, pc}
 8005fea:	6aa3      	ldr	r3, [r4, #40]	; 0x28
 8005fec:	4283      	cmp	r3, r0
 8005fee:	d105      	bne.n	8005ffc <TIM_DMAError+0x32>
 8005ff0:	2302      	movs	r3, #2
 8005ff2:	7723      	strb	r3, [r4, #28]
 8005ff4:	2301      	movs	r3, #1
 8005ff6:	f884 303f 	strb.w	r3, [r4, #63]	; 0x3f
 8005ffa:	e7ef      	b.n	8005fdc <TIM_DMAError+0x12>
 8005ffc:	6ae3      	ldr	r3, [r4, #44]	; 0x2c
 8005ffe:	4283      	cmp	r3, r0
 8006000:	f04f 0301 	mov.w	r3, #1
 8006004:	d104      	bne.n	8006010 <TIM_DMAError+0x46>
 8006006:	2204      	movs	r2, #4
 8006008:	7722      	strb	r2, [r4, #28]
 800600a:	f884 3040 	strb.w	r3, [r4, #64]	; 0x40
 800600e:	e7e5      	b.n	8005fdc <TIM_DMAError+0x12>
 8006010:	6b22      	ldr	r2, [r4, #48]	; 0x30
 8006012:	4282      	cmp	r2, r0
 8006014:	bf03      	ittte	eq
 8006016:	2208      	moveq	r2, #8
 8006018:	7722      	strbeq	r2, [r4, #28]
 800601a:	f884 3041 	strbeq.w	r3, [r4, #65]	; 0x41
 800601e:	f884 303d 	strbne.w	r3, [r4, #61]	; 0x3d
 8006022:	e7db      	b.n	8005fdc <TIM_DMAError+0x12>

08006024 <TIM_DMADelayPulseCplt>:
 8006024:	b510      	push	{r4, lr}
 8006026:	6a44      	ldr	r4, [r0, #36]	; 0x24
 8006028:	6a62      	ldr	r2, [r4, #36]	; 0x24
 800602a:	4282      	cmp	r2, r0
 800602c:	d10c      	bne.n	8006048 <TIM_DMADelayPulseCplt+0x24>
 800602e:	2301      	movs	r3, #1
 8006030:	7723      	strb	r3, [r4, #28]
 8006032:	6992      	ldr	r2, [r2, #24]
 8006034:	b90a      	cbnz	r2, 800603a <TIM_DMADelayPulseCplt+0x16>
 8006036:	f884 303e 	strb.w	r3, [r4, #62]	; 0x3e
 800603a:	f8d4 30a0 	ldr.w	r3, [r4, #160]	; 0xa0
 800603e:	4620      	mov	r0, r4
 8006040:	4798      	blx	r3
 8006042:	2300      	movs	r3, #0
 8006044:	7723      	strb	r3, [r4, #28]
 8006046:	bd10      	pop	{r4, pc}
 8006048:	6aa3      	ldr	r3, [r4, #40]	; 0x28
 800604a:	4283      	cmp	r3, r0
 800604c:	d108      	bne.n	8006060 <TIM_DMADelayPulseCplt+0x3c>
 800604e:	2202      	movs	r2, #2
 8006050:	7722      	strb	r2, [r4, #28]
 8006052:	699b      	ldr	r3, [r3, #24]
 8006054:	2b00      	cmp	r3, #0
 8006056:	d1f0      	bne.n	800603a <TIM_DMADelayPulseCplt+0x16>
 8006058:	2301      	movs	r3, #1
 800605a:	f884 303f 	strb.w	r3, [r4, #63]	; 0x3f
 800605e:	e7ec      	b.n	800603a <TIM_DMADelayPulseCplt+0x16>
 8006060:	6ae3      	ldr	r3, [r4, #44]	; 0x2c
 8006062:	4283      	cmp	r3, r0
 8006064:	d108      	bne.n	8006078 <TIM_DMADelayPulseCplt+0x54>
 8006066:	2204      	movs	r2, #4
 8006068:	7722      	strb	r2, [r4, #28]
 800606a:	699b      	ldr	r3, [r3, #24]
 800606c:	2b00      	cmp	r3, #0
 800606e:	d1e4      	bne.n	800603a <TIM_DMADelayPulseCplt+0x16>
 8006070:	2301      	movs	r3, #1
 8006072:	f884 3040 	strb.w	r3, [r4, #64]	; 0x40
 8006076:	e7e0      	b.n	800603a <TIM_DMADelayPulseCplt+0x16>
 8006078:	6b23      	ldr	r3, [r4, #48]	; 0x30
 800607a:	4283      	cmp	r3, r0
 800607c:	d1dd      	bne.n	800603a <TIM_DMADelayPulseCplt+0x16>
 800607e:	2208      	movs	r2, #8
 8006080:	7722      	strb	r2, [r4, #28]
 8006082:	699b      	ldr	r3, [r3, #24]
 8006084:	2b00      	cmp	r3, #0
 8006086:	d1d8      	bne.n	800603a <TIM_DMADelayPulseCplt+0x16>
 8006088:	2301      	movs	r3, #1
 800608a:	f884 3041 	strb.w	r3, [r4, #65]	; 0x41
 800608e:	e7d4      	b.n	800603a <TIM_DMADelayPulseCplt+0x16>

08006090 <TIM_DMADelayPulseHalfCplt>:
 8006090:	b510      	push	{r4, lr}
 8006092:	6a44      	ldr	r4, [r0, #36]	; 0x24
 8006094:	6a63      	ldr	r3, [r4, #36]	; 0x24
 8006096:	4283      	cmp	r3, r0
 8006098:	d108      	bne.n	80060ac <TIM_DMADelayPulseHalfCplt+0x1c>
 800609a:	2301      	movs	r3, #1
 800609c:	7723      	strb	r3, [r4, #28]
 800609e:	f8d4 30a4 	ldr.w	r3, [r4, #164]	; 0xa4
 80060a2:	4620      	mov	r0, r4
 80060a4:	4798      	blx	r3
 80060a6:	2300      	movs	r3, #0
 80060a8:	7723      	strb	r3, [r4, #28]
 80060aa:	bd10      	pop	{r4, pc}
 80060ac:	6aa3      	ldr	r3, [r4, #40]	; 0x28
 80060ae:	4283      	cmp	r3, r0
 80060b0:	d101      	bne.n	80060b6 <TIM_DMADelayPulseHalfCplt+0x26>
 80060b2:	2302      	movs	r3, #2
 80060b4:	e7f2      	b.n	800609c <TIM_DMADelayPulseHalfCplt+0xc>
 80060b6:	6ae3      	ldr	r3, [r4, #44]	; 0x2c
 80060b8:	4283      	cmp	r3, r0
 80060ba:	d101      	bne.n	80060c0 <TIM_DMADelayPulseHalfCplt+0x30>
 80060bc:	2304      	movs	r3, #4
 80060be:	e7ed      	b.n	800609c <TIM_DMADelayPulseHalfCplt+0xc>
 80060c0:	6b23      	ldr	r3, [r4, #48]	; 0x30
 80060c2:	4283      	cmp	r3, r0
 80060c4:	d1eb      	bne.n	800609e <TIM_DMADelayPulseHalfCplt+0xe>
 80060c6:	2308      	movs	r3, #8
 80060c8:	e7e8      	b.n	800609c <TIM_DMADelayPulseHalfCplt+0xc>
	...

080060cc <TIM_OC1_SetConfig>:
 80060cc:	6a03      	ldr	r3, [r0, #32]
 80060ce:	f023 0301 	bic.w	r3, r3, #1
 80060d2:	6203      	str	r3, [r0, #32]
 80060d4:	6a03      	ldr	r3, [r0, #32]
 80060d6:	b570      	push	{r4, r5, r6, lr}
 80060d8:	6844      	ldr	r4, [r0, #4]
 80060da:	6982      	ldr	r2, [r0, #24]
 80060dc:	680d      	ldr	r5, [r1, #0]
 80060de:	f422 3280 	bic.w	r2, r2, #65536	; 0x10000
 80060e2:	f022 0273 	bic.w	r2, r2, #115	; 0x73
 80060e6:	432a      	orrs	r2, r5
 80060e8:	688d      	ldr	r5, [r1, #8]
 80060ea:	f023 0302 	bic.w	r3, r3, #2
 80060ee:	432b      	orrs	r3, r5
 80060f0:	4d1f      	ldr	r5, [pc, #124]	; (8006170 <TIM_OC1_SetConfig+0xa4>)
 80060f2:	42a8      	cmp	r0, r5
 80060f4:	d013      	beq.n	800611e <TIM_OC1_SetConfig+0x52>
 80060f6:	f505 6500 	add.w	r5, r5, #2048	; 0x800
 80060fa:	42a8      	cmp	r0, r5
 80060fc:	d00f      	beq.n	800611e <TIM_OC1_SetConfig+0x52>
 80060fe:	f505 6540 	add.w	r5, r5, #3072	; 0xc00
 8006102:	42a8      	cmp	r0, r5
 8006104:	d00b      	beq.n	800611e <TIM_OC1_SetConfig+0x52>
 8006106:	f505 6580 	add.w	r5, r5, #1024	; 0x400
 800610a:	42a8      	cmp	r0, r5
 800610c:	d007      	beq.n	800611e <TIM_OC1_SetConfig+0x52>
 800610e:	f505 6580 	add.w	r5, r5, #1024	; 0x400
 8006112:	42a8      	cmp	r0, r5
 8006114:	d003      	beq.n	800611e <TIM_OC1_SetConfig+0x52>
 8006116:	f505 6500 	add.w	r5, r5, #2048	; 0x800
 800611a:	42a8      	cmp	r0, r5
 800611c:	d122      	bne.n	8006164 <TIM_OC1_SetConfig+0x98>
 800611e:	68cd      	ldr	r5, [r1, #12]
 8006120:	f023 0308 	bic.w	r3, r3, #8
 8006124:	432b      	orrs	r3, r5
 8006126:	4d12      	ldr	r5, [pc, #72]	; (8006170 <TIM_OC1_SetConfig+0xa4>)
 8006128:	42a8      	cmp	r0, r5
 800612a:	f023 0304 	bic.w	r3, r3, #4
 800612e:	d013      	beq.n	8006158 <TIM_OC1_SetConfig+0x8c>
 8006130:	f505 6500 	add.w	r5, r5, #2048	; 0x800
 8006134:	42a8      	cmp	r0, r5
 8006136:	d00f      	beq.n	8006158 <TIM_OC1_SetConfig+0x8c>
 8006138:	f505 6540 	add.w	r5, r5, #3072	; 0xc00
 800613c:	42a8      	cmp	r0, r5
 800613e:	d00b      	beq.n	8006158 <TIM_OC1_SetConfig+0x8c>
 8006140:	f505 6580 	add.w	r5, r5, #1024	; 0x400
 8006144:	42a8      	cmp	r0, r5
 8006146:	d007      	beq.n	8006158 <TIM_OC1_SetConfig+0x8c>
 8006148:	f505 6580 	add.w	r5, r5, #1024	; 0x400
 800614c:	42a8      	cmp	r0, r5
 800614e:	d003      	beq.n	8006158 <TIM_OC1_SetConfig+0x8c>
 8006150:	f505 6500 	add.w	r5, r5, #2048	; 0x800
 8006154:	42a8      	cmp	r0, r5
 8006156:	d105      	bne.n	8006164 <TIM_OC1_SetConfig+0x98>
 8006158:	f424 7540 	bic.w	r5, r4, #768	; 0x300
 800615c:	e9d1 4605 	ldrd	r4, r6, [r1, #20]
 8006160:	4334      	orrs	r4, r6
 8006162:	432c      	orrs	r4, r5
 8006164:	6044      	str	r4, [r0, #4]
 8006166:	6182      	str	r2, [r0, #24]
 8006168:	684a      	ldr	r2, [r1, #4]
 800616a:	6342      	str	r2, [r0, #52]	; 0x34
 800616c:	6203      	str	r3, [r0, #32]
 800616e:	bd70      	pop	{r4, r5, r6, pc}
 8006170:	40012c00 	.word	0x40012c00

08006174 <TIM_OC3_SetConfig>:
 8006174:	6a03      	ldr	r3, [r0, #32]
 8006176:	f423 7380 	bic.w	r3, r3, #256	; 0x100
 800617a:	6203      	str	r3, [r0, #32]
 800617c:	6a03      	ldr	r3, [r0, #32]
 800617e:	b570      	push	{r4, r5, r6, lr}
 8006180:	6844      	ldr	r4, [r0, #4]
 8006182:	69c2      	ldr	r2, [r0, #28]
 8006184:	680d      	ldr	r5, [r1, #0]
 8006186:	f422 3280 	bic.w	r2, r2, #65536	; 0x10000
 800618a:	f022 0273 	bic.w	r2, r2, #115	; 0x73
 800618e:	432a      	orrs	r2, r5
 8006190:	688d      	ldr	r5, [r1, #8]
 8006192:	f423 7300 	bic.w	r3, r3, #512	; 0x200
 8006196:	ea43 2305 	orr.w	r3, r3, r5, lsl #8
 800619a:	4d1a      	ldr	r5, [pc, #104]	; (8006204 <TIM_OC3_SetConfig+0x90>)
 800619c:	42a8      	cmp	r0, r5
 800619e:	d007      	beq.n	80061b0 <TIM_OC3_SetConfig+0x3c>
 80061a0:	f505 6500 	add.w	r5, r5, #2048	; 0x800
 80061a4:	42a8      	cmp	r0, r5
 80061a6:	d003      	beq.n	80061b0 <TIM_OC3_SetConfig+0x3c>
 80061a8:	f505 55e0 	add.w	r5, r5, #7168	; 0x1c00
 80061ac:	42a8      	cmp	r0, r5
 80061ae:	d10d      	bne.n	80061cc <TIM_OC3_SetConfig+0x58>
 80061b0:	68cd      	ldr	r5, [r1, #12]
 80061b2:	f423 6300 	bic.w	r3, r3, #2048	; 0x800
 80061b6:	ea43 2305 	orr.w	r3, r3, r5, lsl #8
 80061ba:	4d12      	ldr	r5, [pc, #72]	; (8006204 <TIM_OC3_SetConfig+0x90>)
 80061bc:	42a8      	cmp	r0, r5
 80061be:	f423 6380 	bic.w	r3, r3, #1024	; 0x400
 80061c2:	d012      	beq.n	80061ea <TIM_OC3_SetConfig+0x76>
 80061c4:	f505 6500 	add.w	r5, r5, #2048	; 0x800
 80061c8:	42a8      	cmp	r0, r5
 80061ca:	d00e      	beq.n	80061ea <TIM_OC3_SetConfig+0x76>
 80061cc:	4d0e      	ldr	r5, [pc, #56]	; (8006208 <TIM_OC3_SetConfig+0x94>)
 80061ce:	42a8      	cmp	r0, r5
 80061d0:	d00b      	beq.n	80061ea <TIM_OC3_SetConfig+0x76>
 80061d2:	f505 6580 	add.w	r5, r5, #1024	; 0x400
 80061d6:	42a8      	cmp	r0, r5
 80061d8:	d007      	beq.n	80061ea <TIM_OC3_SetConfig+0x76>
 80061da:	f505 6580 	add.w	r5, r5, #1024	; 0x400
 80061de:	42a8      	cmp	r0, r5
 80061e0:	d003      	beq.n	80061ea <TIM_OC3_SetConfig+0x76>
 80061e2:	f505 6500 	add.w	r5, r5, #2048	; 0x800
 80061e6:	42a8      	cmp	r0, r5
 80061e8:	d106      	bne.n	80061f8 <TIM_OC3_SetConfig+0x84>
 80061ea:	f424 5540 	bic.w	r5, r4, #12288	; 0x3000
 80061ee:	e9d1 4605 	ldrd	r4, r6, [r1, #20]
 80061f2:	4334      	orrs	r4, r6
 80061f4:	ea45 1404 	orr.w	r4, r5, r4, lsl #4
 80061f8:	6044      	str	r4, [r0, #4]
 80061fa:	61c2      	str	r2, [r0, #28]
 80061fc:	684a      	ldr	r2, [r1, #4]
 80061fe:	63c2      	str	r2, [r0, #60]	; 0x3c
 8006200:	6203      	str	r3, [r0, #32]
 8006202:	bd70      	pop	{r4, r5, r6, pc}
 8006204:	40012c00 	.word	0x40012c00
 8006208:	40014000 	.word	0x40014000

0800620c <TIM_OC4_SetConfig>:
 800620c:	6a03      	ldr	r3, [r0, #32]
 800620e:	f423 5380 	bic.w	r3, r3, #4096	; 0x1000
 8006212:	6203      	str	r3, [r0, #32]
 8006214:	6a03      	ldr	r3, [r0, #32]
 8006216:	b530      	push	{r4, r5, lr}
 8006218:	6844      	ldr	r4, [r0, #4]
 800621a:	69c2      	ldr	r2, [r0, #28]
 800621c:	680d      	ldr	r5, [r1, #0]
 800621e:	f022 7280 	bic.w	r2, r2, #16777216	; 0x1000000
 8006222:	f422 42e6 	bic.w	r2, r2, #29440	; 0x7300
 8006226:	ea42 2205 	orr.w	r2, r2, r5, lsl #8
 800622a:	688d      	ldr	r5, [r1, #8]
 800622c:	f423 5300 	bic.w	r3, r3, #8192	; 0x2000
 8006230:	ea43 3305 	orr.w	r3, r3, r5, lsl #12
 8006234:	4d10      	ldr	r5, [pc, #64]	; (8006278 <TIM_OC4_SetConfig+0x6c>)
 8006236:	42a8      	cmp	r0, r5
 8006238:	d013      	beq.n	8006262 <TIM_OC4_SetConfig+0x56>
 800623a:	f505 6500 	add.w	r5, r5, #2048	; 0x800
 800623e:	42a8      	cmp	r0, r5
 8006240:	d00f      	beq.n	8006262 <TIM_OC4_SetConfig+0x56>
 8006242:	f505 6540 	add.w	r5, r5, #3072	; 0xc00
 8006246:	42a8      	cmp	r0, r5
 8006248:	d00b      	beq.n	8006262 <TIM_OC4_SetConfig+0x56>
 800624a:	f505 6580 	add.w	r5, r5, #1024	; 0x400
 800624e:	42a8      	cmp	r0, r5
 8006250:	d007      	beq.n	8006262 <TIM_OC4_SetConfig+0x56>
 8006252:	f505 6580 	add.w	r5, r5, #1024	; 0x400
 8006256:	42a8      	cmp	r0, r5
 8006258:	d003      	beq.n	8006262 <TIM_OC4_SetConfig+0x56>
 800625a:	f505 6500 	add.w	r5, r5, #2048	; 0x800
 800625e:	42a8      	cmp	r0, r5
 8006260:	d104      	bne.n	800626c <TIM_OC4_SetConfig+0x60>
 8006262:	694d      	ldr	r5, [r1, #20]
 8006264:	f424 4480 	bic.w	r4, r4, #16384	; 0x4000
 8006268:	ea44 1485 	orr.w	r4, r4, r5, lsl #6
 800626c:	6044      	str	r4, [r0, #4]
 800626e:	61c2      	str	r2, [r0, #28]
 8006270:	684a      	ldr	r2, [r1, #4]
 8006272:	6402      	str	r2, [r0, #64]	; 0x40
 8006274:	6203      	str	r3, [r0, #32]
 8006276:	bd30      	pop	{r4, r5, pc}
 8006278:	40012c00 	.word	0x40012c00

0800627c <TIM_OC5_SetConfig>:
 800627c:	6a03      	ldr	r3, [r0, #32]
 800627e:	f423 3380 	bic.w	r3, r3, #65536	; 0x10000
 8006282:	6203      	str	r3, [r0, #32]
 8006284:	6a03      	ldr	r3, [r0, #32]
 8006286:	b530      	push	{r4, r5, lr}
 8006288:	6844      	ldr	r4, [r0, #4]
 800628a:	6d42      	ldr	r2, [r0, #84]	; 0x54
 800628c:	680d      	ldr	r5, [r1, #0]
 800628e:	f422 3280 	bic.w	r2, r2, #65536	; 0x10000
 8006292:	f022 0270 	bic.w	r2, r2, #112	; 0x70
 8006296:	432a      	orrs	r2, r5
 8006298:	688d      	ldr	r5, [r1, #8]
 800629a:	f423 3300 	bic.w	r3, r3, #131072	; 0x20000
 800629e:	ea43 4305 	orr.w	r3, r3, r5, lsl #16
 80062a2:	4d11      	ldr	r5, [pc, #68]	; (80062e8 <TIM_OC5_SetConfig+0x6c>)
 80062a4:	42a8      	cmp	r0, r5
 80062a6:	d013      	beq.n	80062d0 <TIM_OC5_SetConfig+0x54>
 80062a8:	f505 6500 	add.w	r5, r5, #2048	; 0x800
 80062ac:	42a8      	cmp	r0, r5
 80062ae:	d00f      	beq.n	80062d0 <TIM_OC5_SetConfig+0x54>
 80062b0:	f505 6540 	add.w	r5, r5, #3072	; 0xc00
 80062b4:	42a8      	cmp	r0, r5
 80062b6:	d00b      	beq.n	80062d0 <TIM_OC5_SetConfig+0x54>
 80062b8:	f505 6580 	add.w	r5, r5, #1024	; 0x400
 80062bc:	42a8      	cmp	r0, r5
 80062be:	d007      	beq.n	80062d0 <TIM_OC5_SetConfig+0x54>
 80062c0:	f505 6580 	add.w	r5, r5, #1024	; 0x400
 80062c4:	42a8      	cmp	r0, r5
 80062c6:	d003      	beq.n	80062d0 <TIM_OC5_SetConfig+0x54>
 80062c8:	f505 6500 	add.w	r5, r5, #2048	; 0x800
 80062cc:	42a8      	cmp	r0, r5
 80062ce:	d104      	bne.n	80062da <TIM_OC5_SetConfig+0x5e>
 80062d0:	694d      	ldr	r5, [r1, #20]
 80062d2:	f424 3480 	bic.w	r4, r4, #65536	; 0x10000
 80062d6:	ea44 2405 	orr.w	r4, r4, r5, lsl #8
 80062da:	6044      	str	r4, [r0, #4]
 80062dc:	6542      	str	r2, [r0, #84]	; 0x54
 80062de:	684a      	ldr	r2, [r1, #4]
 80062e0:	6582      	str	r2, [r0, #88]	; 0x58
 80062e2:	6203      	str	r3, [r0, #32]
 80062e4:	bd30      	pop	{r4, r5, pc}
 80062e6:	bf00      	nop
 80062e8:	40012c00 	.word	0x40012c00

080062ec <TIM_OC6_SetConfig>:
 80062ec:	6a03      	ldr	r3, [r0, #32]
 80062ee:	f423 1380 	bic.w	r3, r3, #1048576	; 0x100000
 80062f2:	6203      	str	r3, [r0, #32]
 80062f4:	6a03      	ldr	r3, [r0, #32]
 80062f6:	b530      	push	{r4, r5, lr}
 80062f8:	6844      	ldr	r4, [r0, #4]
 80062fa:	6d42      	ldr	r2, [r0, #84]	; 0x54
 80062fc:	680d      	ldr	r5, [r1, #0]
 80062fe:	f022 7280 	bic.w	r2, r2, #16777216	; 0x1000000
 8006302:	f422 42e0 	bic.w	r2, r2, #28672	; 0x7000
 8006306:	ea42 2205 	orr.w	r2, r2, r5, lsl #8
 800630a:	688d      	ldr	r5, [r1, #8]
 800630c:	f423 1300 	bic.w	r3, r3, #2097152	; 0x200000
 8006310:	ea43 5305 	orr.w	r3, r3, r5, lsl #20
 8006314:	4d10      	ldr	r5, [pc, #64]	; (8006358 <TIM_OC6_SetConfig+0x6c>)
 8006316:	42a8      	cmp	r0, r5
 8006318:	d013      	beq.n	8006342 <TIM_OC6_SetConfig+0x56>
 800631a:	f505 6500 	add.w	r5, r5, #2048	; 0x800
 800631e:	42a8      	cmp	r0, r5
 8006320:	d00f      	beq.n	8006342 <TIM_OC6_SetConfig+0x56>
 8006322:	f505 6540 	add.w	r5, r5, #3072	; 0xc00
 8006326:	42a8      	cmp	r0, r5
 8006328:	d00b      	beq.n	8006342 <TIM_OC6_SetConfig+0x56>
 800632a:	f505 6580 	add.w	r5, r5, #1024	; 0x400
 800632e:	42a8      	cmp	r0, r5
 8006330:	d007      	beq.n	8006342 <TIM_OC6_SetConfig+0x56>
 8006332:	f505 6580 	add.w	r5, r5, #1024	; 0x400
 8006336:	42a8      	cmp	r0, r5
 8006338:	d003      	beq.n	8006342 <TIM_OC6_SetConfig+0x56>
 800633a:	f505 6500 	add.w	r5, r5, #2048	; 0x800
 800633e:	42a8      	cmp	r0, r5
 8006340:	d104      	bne.n	800634c <TIM_OC6_SetConfig+0x60>
 8006342:	694d      	ldr	r5, [r1, #20]
 8006344:	f424 2480 	bic.w	r4, r4, #262144	; 0x40000
 8006348:	ea44 2485 	orr.w	r4, r4, r5, lsl #10
 800634c:	6044      	str	r4, [r0, #4]
 800634e:	6542      	str	r2, [r0, #84]	; 0x54
 8006350:	684a      	ldr	r2, [r1, #4]
 8006352:	65c2      	str	r2, [r0, #92]	; 0x5c
 8006354:	6203      	str	r3, [r0, #32]
 8006356:	bd30      	pop	{r4, r5, pc}
 8006358:	40012c00 	.word	0x40012c00

0800635c <HAL_TIM_PWM_MspInit>:
 800635c:	4770      	bx	lr

0800635e <HAL_TIM_PeriodElapsedHalfCpltCallback>:
 800635e:	4770      	bx	lr

08006360 <HAL_TIM_OC_DelayElapsedCallback>:
 8006360:	4770      	bx	lr

08006362 <HAL_TIM_IC_CaptureCallback>:
 8006362:	4770      	bx	lr

08006364 <HAL_TIM_IC_CaptureHalfCpltCallback>:
 8006364:	4770      	bx	lr

08006366 <HAL_TIM_PWM_PulseFinishedCallback>:
 8006366:	4770      	bx	lr

08006368 <HAL_TIM_PWM_PulseFinishedHalfCpltCallback>:
 8006368:	4770      	bx	lr

0800636a <HAL_TIM_TriggerCallback>:
 800636a:	4770      	bx	lr

0800636c <HAL_TIM_TriggerHalfCpltCallback>:
 800636c:	4770      	bx	lr

0800636e <HAL_TIM_ErrorCallback>:
 800636e:	4770      	bx	lr

08006370 <HAL_TIM_Base_Start>:
 8006370:	f890 303d 	ldrb.w	r3, [r0, #61]	; 0x3d
 8006374:	2b01      	cmp	r3, #1
 8006376:	d12b      	bne.n	80063d0 <HAL_TIM_Base_Start+0x60>
 8006378:	2302      	movs	r3, #2
 800637a:	4a16      	ldr	r2, [pc, #88]	; (80063d4 <HAL_TIM_Base_Start+0x64>)
 800637c:	f880 303d 	strb.w	r3, [r0, #61]	; 0x3d
 8006380:	6803      	ldr	r3, [r0, #0]
 8006382:	4293      	cmp	r3, r2
 8006384:	d016      	beq.n	80063b4 <HAL_TIM_Base_Start+0x44>
 8006386:	f1b3 4f80 	cmp.w	r3, #1073741824	; 0x40000000
 800638a:	d013      	beq.n	80063b4 <HAL_TIM_Base_Start+0x44>
 800638c:	f5a2 3294 	sub.w	r2, r2, #75776	; 0x12800
 8006390:	4293      	cmp	r3, r2
 8006392:	d00f      	beq.n	80063b4 <HAL_TIM_Base_Start+0x44>
 8006394:	f502 6280 	add.w	r2, r2, #1024	; 0x400
 8006398:	4293      	cmp	r3, r2
 800639a:	d00b      	beq.n	80063b4 <HAL_TIM_Base_Start+0x44>
 800639c:	f502 3296 	add.w	r2, r2, #76800	; 0x12c00
 80063a0:	4293      	cmp	r3, r2
 80063a2:	d007      	beq.n	80063b4 <HAL_TIM_Base_Start+0x44>
 80063a4:	f502 6240 	add.w	r2, r2, #3072	; 0xc00
 80063a8:	4293      	cmp	r3, r2
 80063aa:	d003      	beq.n	80063b4 <HAL_TIM_Base_Start+0x44>
 80063ac:	f502 5280 	add.w	r2, r2, #4096	; 0x1000
 80063b0:	4293      	cmp	r3, r2
 80063b2:	d107      	bne.n	80063c4 <HAL_TIM_Base_Start+0x54>
 80063b4:	6899      	ldr	r1, [r3, #8]
 80063b6:	4a08      	ldr	r2, [pc, #32]	; (80063d8 <HAL_TIM_Base_Start+0x68>)
 80063b8:	400a      	ands	r2, r1
 80063ba:	2a06      	cmp	r2, #6
 80063bc:	d006      	beq.n	80063cc <HAL_TIM_Base_Start+0x5c>
 80063be:	f5b2 3f80 	cmp.w	r2, #65536	; 0x10000
 80063c2:	d003      	beq.n	80063cc <HAL_TIM_Base_Start+0x5c>
 80063c4:	681a      	ldr	r2, [r3, #0]
 80063c6:	f042 0201 	orr.w	r2, r2, #1
 80063ca:	601a      	str	r2, [r3, #0]
 80063cc:	2000      	movs	r0, #0
 80063ce:	4770      	bx	lr
 80063d0:	2001      	movs	r0, #1
 80063d2:	4770      	bx	lr
 80063d4:	40012c00 	.word	0x40012c00
 80063d8:	00010007 	.word	0x00010007

080063dc <HAL_TIM_Base_Start_IT>:
 80063dc:	f890 303d 	ldrb.w	r3, [r0, #61]	; 0x3d
 80063e0:	2b01      	cmp	r3, #1
 80063e2:	d12f      	bne.n	8006444 <HAL_TIM_Base_Start_IT+0x68>
 80063e4:	2302      	movs	r3, #2
 80063e6:	f880 303d 	strb.w	r3, [r0, #61]	; 0x3d
 80063ea:	6803      	ldr	r3, [r0, #0]
 80063ec:	68da      	ldr	r2, [r3, #12]
 80063ee:	f042 0201 	orr.w	r2, r2, #1
 80063f2:	60da      	str	r2, [r3, #12]
 80063f4:	4a14      	ldr	r2, [pc, #80]	; (8006448 <HAL_TIM_Base_Start_IT+0x6c>)
 80063f6:	4293      	cmp	r3, r2
 80063f8:	d016      	beq.n	8006428 <HAL_TIM_Base_Start_IT+0x4c>
 80063fa:	f1b3 4f80 	cmp.w	r3, #1073741824	; 0x40000000
 80063fe:	d013      	beq.n	8006428 <HAL_TIM_Base_Start_IT+0x4c>
 8006400:	f5a2 3294 	sub.w	r2, r2, #75776	; 0x12800
 8006404:	4293      	cmp	r3, r2
 8006406:	d00f      	beq.n	8006428 <HAL_TIM_Base_Start_IT+0x4c>
 8006408:	f502 6280 	add.w	r2, r2, #1024	; 0x400
 800640c:	4293      	cmp	r3, r2
 800640e:	d00b      	beq.n	8006428 <HAL_TIM_Base_Start_IT+0x4c>
 8006410:	f502 3296 	add.w	r2, r2, #76800	; 0x12c00
 8006414:	4293      	cmp	r3, r2
 8006416:	d007      	beq.n	8006428 <HAL_TIM_Base_Start_IT+0x4c>
 8006418:	f502 6240 	add.w	r2, r2, #3072	; 0xc00
 800641c:	4293      	cmp	r3, r2
 800641e:	d003      	beq.n	8006428 <HAL_TIM_Base_Start_IT+0x4c>
 8006420:	f502 5280 	add.w	r2, r2, #4096	; 0x1000
 8006424:	4293      	cmp	r3, r2
 8006426:	d107      	bne.n	8006438 <HAL_TIM_Base_Start_IT+0x5c>
 8006428:	6899      	ldr	r1, [r3, #8]
 800642a:	4a08      	ldr	r2, [pc, #32]	; (800644c <HAL_TIM_Base_Start_IT+0x70>)
 800642c:	400a      	ands	r2, r1
 800642e:	2a06      	cmp	r2, #6
 8006430:	d006      	beq.n	8006440 <HAL_TIM_Base_Start_IT+0x64>
 8006432:	f5b2 3f80 	cmp.w	r2, #65536	; 0x10000
 8006436:	d003      	beq.n	8006440 <HAL_TIM_Base_Start_IT+0x64>
 8006438:	681a      	ldr	r2, [r3, #0]
 800643a:	f042 0201 	orr.w	r2, r2, #1
 800643e:	601a      	str	r2, [r3, #0]
 8006440:	2000      	movs	r0, #0
 8006442:	4770      	bx	lr
 8006444:	2001      	movs	r0, #1
 8006446:	4770      	bx	lr
 8006448:	40012c00 	.word	0x40012c00
 800644c:	00010007 	.word	0x00010007

08006450 <HAL_TIM_IRQHandler>:
 8006450:	6803      	ldr	r3, [r0, #0]
 8006452:	691a      	ldr	r2, [r3, #16]
 8006454:	0791      	lsls	r1, r2, #30
 8006456:	b510      	push	{r4, lr}
 8006458:	4604      	mov	r4, r0
 800645a:	d510      	bpl.n	800647e <HAL_TIM_IRQHandler+0x2e>
 800645c:	68da      	ldr	r2, [r3, #12]
 800645e:	0792      	lsls	r2, r2, #30
 8006460:	d50d      	bpl.n	800647e <HAL_TIM_IRQHandler+0x2e>
 8006462:	f06f 0202 	mvn.w	r2, #2
 8006466:	611a      	str	r2, [r3, #16]
 8006468:	2201      	movs	r2, #1
 800646a:	7702      	strb	r2, [r0, #28]
 800646c:	699b      	ldr	r3, [r3, #24]
 800646e:	0799      	lsls	r1, r3, #30
 8006470:	f000 808e 	beq.w	8006590 <HAL_TIM_IRQHandler+0x140>
 8006474:	f8d0 3094 	ldr.w	r3, [r0, #148]	; 0x94
 8006478:	4798      	blx	r3
 800647a:	2300      	movs	r3, #0
 800647c:	7723      	strb	r3, [r4, #28]
 800647e:	6823      	ldr	r3, [r4, #0]
 8006480:	691a      	ldr	r2, [r3, #16]
 8006482:	0752      	lsls	r2, r2, #29
 8006484:	d511      	bpl.n	80064aa <HAL_TIM_IRQHandler+0x5a>
 8006486:	68da      	ldr	r2, [r3, #12]
 8006488:	0750      	lsls	r0, r2, #29
 800648a:	d50e      	bpl.n	80064aa <HAL_TIM_IRQHandler+0x5a>
 800648c:	f06f 0204 	mvn.w	r2, #4
 8006490:	611a      	str	r2, [r3, #16]
 8006492:	2202      	movs	r2, #2
 8006494:	7722      	strb	r2, [r4, #28]
 8006496:	699b      	ldr	r3, [r3, #24]
 8006498:	f413 7f40 	tst.w	r3, #768	; 0x300
 800649c:	d07f      	beq.n	800659e <HAL_TIM_IRQHandler+0x14e>
 800649e:	f8d4 3094 	ldr.w	r3, [r4, #148]	; 0x94
 80064a2:	4620      	mov	r0, r4
 80064a4:	4798      	blx	r3
 80064a6:	2300      	movs	r3, #0
 80064a8:	7723      	strb	r3, [r4, #28]
 80064aa:	6823      	ldr	r3, [r4, #0]
 80064ac:	691a      	ldr	r2, [r3, #16]
 80064ae:	0711      	lsls	r1, r2, #28
 80064b0:	d510      	bpl.n	80064d4 <HAL_TIM_IRQHandler+0x84>
 80064b2:	68da      	ldr	r2, [r3, #12]
 80064b4:	0712      	lsls	r2, r2, #28
 80064b6:	d50d      	bpl.n	80064d4 <HAL_TIM_IRQHandler+0x84>
 80064b8:	f06f 0208 	mvn.w	r2, #8
 80064bc:	611a      	str	r2, [r3, #16]
 80064be:	2204      	movs	r2, #4
 80064c0:	7722      	strb	r2, [r4, #28]
 80064c2:	69db      	ldr	r3, [r3, #28]
 80064c4:	079b      	lsls	r3, r3, #30
 80064c6:	d071      	beq.n	80065ac <HAL_TIM_IRQHandler+0x15c>
 80064c8:	f8d4 3094 	ldr.w	r3, [r4, #148]	; 0x94
 80064cc:	4620      	mov	r0, r4
 80064ce:	4798      	blx	r3
 80064d0:	2300      	movs	r3, #0
 80064d2:	7723      	strb	r3, [r4, #28]
 80064d4:	6823      	ldr	r3, [r4, #0]
 80064d6:	691a      	ldr	r2, [r3, #16]
 80064d8:	06d0      	lsls	r0, r2, #27
 80064da:	d511      	bpl.n	8006500 <HAL_TIM_IRQHandler+0xb0>
 80064dc:	68da      	ldr	r2, [r3, #12]
 80064de:	06d1      	lsls	r1, r2, #27
 80064e0:	d50e      	bpl.n	8006500 <HAL_TIM_IRQHandler+0xb0>
 80064e2:	f06f 0210 	mvn.w	r2, #16
 80064e6:	611a      	str	r2, [r3, #16]
 80064e8:	2208      	movs	r2, #8
 80064ea:	7722      	strb	r2, [r4, #28]
 80064ec:	69db      	ldr	r3, [r3, #28]
 80064ee:	f413 7f40 	tst.w	r3, #768	; 0x300
 80064f2:	d062      	beq.n	80065ba <HAL_TIM_IRQHandler+0x16a>
 80064f4:	f8d4 3094 	ldr.w	r3, [r4, #148]	; 0x94
 80064f8:	4620      	mov	r0, r4
 80064fa:	4798      	blx	r3
 80064fc:	2300      	movs	r3, #0
 80064fe:	7723      	strb	r3, [r4, #28]
 8006500:	6823      	ldr	r3, [r4, #0]
 8006502:	691a      	ldr	r2, [r3, #16]
 8006504:	07d2      	lsls	r2, r2, #31
 8006506:	d509      	bpl.n	800651c <HAL_TIM_IRQHandler+0xcc>
 8006508:	68da      	ldr	r2, [r3, #12]
 800650a:	07d0      	lsls	r0, r2, #31
 800650c:	d506      	bpl.n	800651c <HAL_TIM_IRQHandler+0xcc>
 800650e:	f06f 0201 	mvn.w	r2, #1
 8006512:	611a      	str	r2, [r3, #16]
 8006514:	4620      	mov	r0, r4
 8006516:	f8d4 3084 	ldr.w	r3, [r4, #132]	; 0x84
 800651a:	4798      	blx	r3
 800651c:	6823      	ldr	r3, [r4, #0]
 800651e:	691a      	ldr	r2, [r3, #16]
 8006520:	0611      	lsls	r1, r2, #24
 8006522:	d509      	bpl.n	8006538 <HAL_TIM_IRQHandler+0xe8>
 8006524:	68da      	ldr	r2, [r3, #12]
 8006526:	0612      	lsls	r2, r2, #24
 8006528:	d506      	bpl.n	8006538 <HAL_TIM_IRQHandler+0xe8>
 800652a:	f06f 0280 	mvn.w	r2, #128	; 0x80
 800652e:	611a      	str	r2, [r3, #16]
 8006530:	4620      	mov	r0, r4
 8006532:	f8d4 30b4 	ldr.w	r3, [r4, #180]	; 0xb4
 8006536:	4798      	blx	r3
 8006538:	6823      	ldr	r3, [r4, #0]
 800653a:	691a      	ldr	r2, [r3, #16]
 800653c:	05d0      	lsls	r0, r2, #23
 800653e:	d509      	bpl.n	8006554 <HAL_TIM_IRQHandler+0x104>
 8006540:	68da      	ldr	r2, [r3, #12]
 8006542:	0611      	lsls	r1, r2, #24
 8006544:	d506      	bpl.n	8006554 <HAL_TIM_IRQHandler+0x104>
 8006546:	f46f 7280 	mvn.w	r2, #256	; 0x100
 800654a:	611a      	str	r2, [r3, #16]
 800654c:	4620      	mov	r0, r4
 800654e:	f8d4 30b8 	ldr.w	r3, [r4, #184]	; 0xb8
 8006552:	4798      	blx	r3
 8006554:	6823      	ldr	r3, [r4, #0]
 8006556:	691a      	ldr	r2, [r3, #16]
 8006558:	0652      	lsls	r2, r2, #25
 800655a:	d509      	bpl.n	8006570 <HAL_TIM_IRQHandler+0x120>
 800655c:	68da      	ldr	r2, [r3, #12]
 800655e:	0650      	lsls	r0, r2, #25
 8006560:	d506      	bpl.n	8006570 <HAL_TIM_IRQHandler+0x120>
 8006562:	f06f 0240 	mvn.w	r2, #64	; 0x40
 8006566:	611a      	str	r2, [r3, #16]
 8006568:	4620      	mov	r0, r4
 800656a:	f8d4 308c 	ldr.w	r3, [r4, #140]	; 0x8c
 800656e:	4798      	blx	r3
 8006570:	6823      	ldr	r3, [r4, #0]
 8006572:	691a      	ldr	r2, [r3, #16]
 8006574:	0691      	lsls	r1, r2, #26
 8006576:	d527      	bpl.n	80065c8 <HAL_TIM_IRQHandler+0x178>
 8006578:	68da      	ldr	r2, [r3, #12]
 800657a:	0692      	lsls	r2, r2, #26
 800657c:	d524      	bpl.n	80065c8 <HAL_TIM_IRQHandler+0x178>
 800657e:	f06f 0220 	mvn.w	r2, #32
 8006582:	611a      	str	r2, [r3, #16]
 8006584:	4620      	mov	r0, r4
 8006586:	f8d4 30ac 	ldr.w	r3, [r4, #172]	; 0xac
 800658a:	e8bd 4010 	ldmia.w	sp!, {r4, lr}
 800658e:	4718      	bx	r3
 8006590:	f8d0 309c 	ldr.w	r3, [r0, #156]	; 0x9c
 8006594:	4798      	blx	r3
 8006596:	f8d4 30a0 	ldr.w	r3, [r4, #160]	; 0xa0
 800659a:	4620      	mov	r0, r4
 800659c:	e76c      	b.n	8006478 <HAL_TIM_IRQHandler+0x28>
 800659e:	f8d4 309c 	ldr.w	r3, [r4, #156]	; 0x9c
 80065a2:	4620      	mov	r0, r4
 80065a4:	4798      	blx	r3
 80065a6:	f8d4 30a0 	ldr.w	r3, [r4, #160]	; 0xa0
 80065aa:	e77a      	b.n	80064a2 <HAL_TIM_IRQHandler+0x52>
 80065ac:	f8d4 309c 	ldr.w	r3, [r4, #156]	; 0x9c
 80065b0:	4620      	mov	r0, r4
 80065b2:	4798      	blx	r3
 80065b4:	f8d4 30a0 	ldr.w	r3, [r4, #160]	; 0xa0
 80065b8:	e788      	b.n	80064cc <HAL_TIM_IRQHandler+0x7c>
 80065ba:	f8d4 309c 	ldr.w	r3, [r4, #156]	; 0x9c
 80065be:	4620      	mov	r0, r4
 80065c0:	4798      	blx	r3
 80065c2:	f8d4 30a0 	ldr.w	r3, [r4, #160]	; 0xa0
 80065c6:	e797      	b.n	80064f8 <HAL_TIM_IRQHandler+0xa8>
 80065c8:	bd10      	pop	{r4, pc}
	...

080065cc <TIM_Base_SetConfig>:
 80065cc:	4a32      	ldr	r2, [pc, #200]	; (8006698 <TIM_Base_SetConfig+0xcc>)
 80065ce:	6803      	ldr	r3, [r0, #0]
 80065d0:	4290      	cmp	r0, r2
 80065d2:	d012      	beq.n	80065fa <TIM_Base_SetConfig+0x2e>
 80065d4:	f1b0 4f80 	cmp.w	r0, #1073741824	; 0x40000000
 80065d8:	d00f      	beq.n	80065fa <TIM_Base_SetConfig+0x2e>
 80065da:	f5a2 3294 	sub.w	r2, r2, #75776	; 0x12800
 80065de:	4290      	cmp	r0, r2
 80065e0:	d00b      	beq.n	80065fa <TIM_Base_SetConfig+0x2e>
 80065e2:	f502 6280 	add.w	r2, r2, #1024	; 0x400
 80065e6:	4290      	cmp	r0, r2
 80065e8:	d007      	beq.n	80065fa <TIM_Base_SetConfig+0x2e>
 80065ea:	f502 3296 	add.w	r2, r2, #76800	; 0x12c00
 80065ee:	4290      	cmp	r0, r2
 80065f0:	d003      	beq.n	80065fa <TIM_Base_SetConfig+0x2e>
 80065f2:	f502 52e0 	add.w	r2, r2, #7168	; 0x1c00
 80065f6:	4290      	cmp	r0, r2
 80065f8:	d115      	bne.n	8006626 <TIM_Base_SetConfig+0x5a>
 80065fa:	684a      	ldr	r2, [r1, #4]
 80065fc:	f023 0370 	bic.w	r3, r3, #112	; 0x70
 8006600:	4313      	orrs	r3, r2
 8006602:	4a25      	ldr	r2, [pc, #148]	; (8006698 <TIM_Base_SetConfig+0xcc>)
 8006604:	4290      	cmp	r0, r2
 8006606:	d01d      	beq.n	8006644 <TIM_Base_SetConfig+0x78>
 8006608:	f1b0 4f80 	cmp.w	r0, #1073741824	; 0x40000000
 800660c:	d01a      	beq.n	8006644 <TIM_Base_SetConfig+0x78>
 800660e:	f5a2 3294 	sub.w	r2, r2, #75776	; 0x12800
 8006612:	4290      	cmp	r0, r2
 8006614:	d016      	beq.n	8006644 <TIM_Base_SetConfig+0x78>
 8006616:	f502 6280 	add.w	r2, r2, #1024	; 0x400
 800661a:	4290      	cmp	r0, r2
 800661c:	d012      	beq.n	8006644 <TIM_Base_SetConfig+0x78>
 800661e:	f502 3296 	add.w	r2, r2, #76800	; 0x12c00
 8006622:	4290      	cmp	r0, r2
 8006624:	d00e      	beq.n	8006644 <TIM_Base_SetConfig+0x78>
 8006626:	4a1d      	ldr	r2, [pc, #116]	; (800669c <TIM_Base_SetConfig+0xd0>)
 8006628:	4290      	cmp	r0, r2
 800662a:	d00b      	beq.n	8006644 <TIM_Base_SetConfig+0x78>
 800662c:	f502 6280 	add.w	r2, r2, #1024	; 0x400
 8006630:	4290      	cmp	r0, r2
 8006632:	d007      	beq.n	8006644 <TIM_Base_SetConfig+0x78>
 8006634:	f502 6280 	add.w	r2, r2, #1024	; 0x400
 8006638:	4290      	cmp	r0, r2
 800663a:	d003      	beq.n	8006644 <TIM_Base_SetConfig+0x78>
 800663c:	f502 6200 	add.w	r2, r2, #2048	; 0x800
 8006640:	4290      	cmp	r0, r2
 8006642:	d103      	bne.n	800664c <TIM_Base_SetConfig+0x80>
 8006644:	68ca      	ldr	r2, [r1, #12]
 8006646:	f423 7340 	bic.w	r3, r3, #768	; 0x300
 800664a:	4313      	orrs	r3, r2
 800664c:	694a      	ldr	r2, [r1, #20]
 800664e:	f023 0380 	bic.w	r3, r3, #128	; 0x80
 8006652:	4313      	orrs	r3, r2
 8006654:	6003      	str	r3, [r0, #0]
 8006656:	688b      	ldr	r3, [r1, #8]
 8006658:	62c3      	str	r3, [r0, #44]	; 0x2c
 800665a:	680b      	ldr	r3, [r1, #0]
 800665c:	6283      	str	r3, [r0, #40]	; 0x28
 800665e:	4b0e      	ldr	r3, [pc, #56]	; (8006698 <TIM_Base_SetConfig+0xcc>)
 8006660:	4298      	cmp	r0, r3
 8006662:	d013      	beq.n	800668c <TIM_Base_SetConfig+0xc0>
 8006664:	f503 6300 	add.w	r3, r3, #2048	; 0x800
 8006668:	4298      	cmp	r0, r3
 800666a:	d00f      	beq.n	800668c <TIM_Base_SetConfig+0xc0>
 800666c:	f503 6340 	add.w	r3, r3, #3072	; 0xc00
 8006670:	4298      	cmp	r0, r3
 8006672:	d00b      	beq.n	800668c <TIM_Base_SetConfig+0xc0>
 8006674:	f503 6380 	add.w	r3, r3, #1024	; 0x400
 8006678:	4298      	cmp	r0, r3
 800667a:	d007      	beq.n	800668c <TIM_Base_SetConfig+0xc0>
 800667c:	f503 6380 	add.w	r3, r3, #1024	; 0x400
 8006680:	4298      	cmp	r0, r3
 8006682:	d003      	beq.n	800668c <TIM_Base_SetConfig+0xc0>
 8006684:	f503 6300 	add.w	r3, r3, #2048	; 0x800
 8006688:	4298      	cmp	r0, r3
 800668a:	d101      	bne.n	8006690 <TIM_Base_SetConfig+0xc4>
 800668c:	690b      	ldr	r3, [r1, #16]
 800668e:	6303      	str	r3, [r0, #48]	; 0x30
 8006690:	2301      	movs	r3, #1
 8006692:	6143      	str	r3, [r0, #20]
 8006694:	4770      	bx	lr
 8006696:	bf00      	nop
 8006698:	40012c00 	.word	0x40012c00
 800669c:	40014000 	.word	0x40014000

080066a0 <TIM_OC2_SetConfig>:
 80066a0:	6a03      	ldr	r3, [r0, #32]
 80066a2:	f023 0310 	bic.w	r3, r3, #16
 80066a6:	6203      	str	r3, [r0, #32]
 80066a8:	6a03      	ldr	r3, [r0, #32]
 80066aa:	b570      	push	{r4, r5, r6, lr}
 80066ac:	6844      	ldr	r4, [r0, #4]
 80066ae:	6982      	ldr	r2, [r0, #24]
 80066b0:	680d      	ldr	r5, [r1, #0]
 80066b2:	f022 7280 	bic.w	r2, r2, #16777216	; 0x1000000
 80066b6:	f422 42e6 	bic.w	r2, r2, #29440	; 0x7300
 80066ba:	ea42 2205 	orr.w	r2, r2, r5, lsl #8
 80066be:	688d      	ldr	r5, [r1, #8]
 80066c0:	f023 0320 	bic.w	r3, r3, #32
 80066c4:	ea43 1305 	orr.w	r3, r3, r5, lsl #4
 80066c8:	4d1a      	ldr	r5, [pc, #104]	; (8006734 <TIM_OC2_SetConfig+0x94>)
 80066ca:	42a8      	cmp	r0, r5
 80066cc:	d007      	beq.n	80066de <TIM_OC2_SetConfig+0x3e>
 80066ce:	f505 6500 	add.w	r5, r5, #2048	; 0x800
 80066d2:	42a8      	cmp	r0, r5
 80066d4:	d003      	beq.n	80066de <TIM_OC2_SetConfig+0x3e>
 80066d6:	f505 55e0 	add.w	r5, r5, #7168	; 0x1c00
 80066da:	42a8      	cmp	r0, r5
 80066dc:	d10d      	bne.n	80066fa <TIM_OC2_SetConfig+0x5a>
 80066de:	68cd      	ldr	r5, [r1, #12]
 80066e0:	f023 0380 	bic.w	r3, r3, #128	; 0x80
 80066e4:	ea43 1305 	orr.w	r3, r3, r5, lsl #4
 80066e8:	4d12      	ldr	r5, [pc, #72]	; (8006734 <TIM_OC2_SetConfig+0x94>)
 80066ea:	42a8      	cmp	r0, r5
 80066ec:	f023 0340 	bic.w	r3, r3, #64	; 0x40
 80066f0:	d012      	beq.n	8006718 <TIM_OC2_SetConfig+0x78>
 80066f2:	f505 6500 	add.w	r5, r5, #2048	; 0x800
 80066f6:	42a8      	cmp	r0, r5
 80066f8:	d00e      	beq.n	8006718 <TIM_OC2_SetConfig+0x78>
 80066fa:	4d0f      	ldr	r5, [pc, #60]	; (8006738 <TIM_OC2_SetConfig+0x98>)
 80066fc:	42a8      	cmp	r0, r5
 80066fe:	d00b      	beq.n	8006718 <TIM_OC2_SetConfig+0x78>
 8006700:	f505 6580 	add.w	r5, r5, #1024	; 0x400
 8006704:	42a8      	cmp	r0, r5
 8006706:	d007      	beq.n	8006718 <TIM_OC2_SetConfig+0x78>
 8006708:	f505 6580 	add.w	r5, r5, #1024	; 0x400
 800670c:	42a8      	cmp	r0, r5
 800670e:	d003      	beq.n	8006718 <TIM_OC2_SetConfig+0x78>
 8006710:	f505 6500 	add.w	r5, r5, #2048	; 0x800
 8006714:	42a8      	cmp	r0, r5
 8006716:	d106      	bne.n	8006726 <TIM_OC2_SetConfig+0x86>
 8006718:	f424 6540 	bic.w	r5, r4, #3072	; 0xc00
 800671c:	e9d1 4605 	ldrd	r4, r6, [r1, #20]
 8006720:	4334      	orrs	r4, r6
 8006722:	ea45 0484 	orr.w	r4, r5, r4, lsl #2
 8006726:	6044      	str	r4, [r0, #4]
 8006728:	6182      	str	r2, [r0, #24]
 800672a:	684a      	ldr	r2, [r1, #4]
 800672c:	6382      	str	r2, [r0, #56]	; 0x38
 800672e:	6203      	str	r3, [r0, #32]
 8006730:	bd70      	pop	{r4, r5, r6, pc}
 8006732:	bf00      	nop
 8006734:	40012c00 	.word	0x40012c00
 8006738:	40014000 	.word	0x40014000

0800673c <HAL_TIM_PWM_ConfigChannel>:
 800673c:	b570      	push	{r4, r5, r6, lr}
 800673e:	f890 303c 	ldrb.w	r3, [r0, #60]	; 0x3c
 8006742:	2b01      	cmp	r3, #1
 8006744:	4605      	mov	r5, r0
 8006746:	d074      	beq.n	8006832 <HAL_TIM_PWM_ConfigChannel+0xf6>
 8006748:	2301      	movs	r3, #1
 800674a:	2a0c      	cmp	r2, #12
 800674c:	f880 303c 	strb.w	r3, [r0, #60]	; 0x3c
 8006750:	d04f      	beq.n	80067f2 <HAL_TIM_PWM_ConfigChannel+0xb6>
 8006752:	d809      	bhi.n	8006768 <HAL_TIM_PWM_ConfigChannel+0x2c>
 8006754:	2a04      	cmp	r2, #4
 8006756:	d02c      	beq.n	80067b2 <HAL_TIM_PWM_ConfigChannel+0x76>
 8006758:	2a08      	cmp	r2, #8
 800675a:	d03a      	beq.n	80067d2 <HAL_TIM_PWM_ConfigChannel+0x96>
 800675c:	b1c2      	cbz	r2, 8006790 <HAL_TIM_PWM_ConfigChannel+0x54>
 800675e:	4618      	mov	r0, r3
 8006760:	2300      	movs	r3, #0
 8006762:	f885 303c 	strb.w	r3, [r5, #60]	; 0x3c
 8006766:	bd70      	pop	{r4, r5, r6, pc}
 8006768:	2a10      	cmp	r2, #16
 800676a:	d052      	beq.n	8006812 <HAL_TIM_PWM_ConfigChannel+0xd6>
 800676c:	2a14      	cmp	r2, #20
 800676e:	d1f6      	bne.n	800675e <HAL_TIM_PWM_ConfigChannel+0x22>
 8006770:	6800      	ldr	r0, [r0, #0]
 8006772:	f7ff fdbb 	bl	80062ec <TIM_OC6_SetConfig>
 8006776:	6d43      	ldr	r3, [r0, #84]	; 0x54
 8006778:	690a      	ldr	r2, [r1, #16]
 800677a:	f443 6300 	orr.w	r3, r3, #2048	; 0x800
 800677e:	6543      	str	r3, [r0, #84]	; 0x54
 8006780:	6d43      	ldr	r3, [r0, #84]	; 0x54
 8006782:	f423 6380 	bic.w	r3, r3, #1024	; 0x400
 8006786:	6543      	str	r3, [r0, #84]	; 0x54
 8006788:	6d43      	ldr	r3, [r0, #84]	; 0x54
 800678a:	ea43 2302 	orr.w	r3, r3, r2, lsl #8
 800678e:	e04e      	b.n	800682e <HAL_TIM_PWM_ConfigChannel+0xf2>
 8006790:	6800      	ldr	r0, [r0, #0]
 8006792:	f7ff fc9b 	bl	80060cc <TIM_OC1_SetConfig>
 8006796:	6983      	ldr	r3, [r0, #24]
 8006798:	690a      	ldr	r2, [r1, #16]
 800679a:	f043 0308 	orr.w	r3, r3, #8
 800679e:	6183      	str	r3, [r0, #24]
 80067a0:	6983      	ldr	r3, [r0, #24]
 80067a2:	f023 0304 	bic.w	r3, r3, #4
 80067a6:	6183      	str	r3, [r0, #24]
 80067a8:	6983      	ldr	r3, [r0, #24]
 80067aa:	4313      	orrs	r3, r2
 80067ac:	6183      	str	r3, [r0, #24]
 80067ae:	2000      	movs	r0, #0
 80067b0:	e7d6      	b.n	8006760 <HAL_TIM_PWM_ConfigChannel+0x24>
 80067b2:	6800      	ldr	r0, [r0, #0]
 80067b4:	f7ff ff74 	bl	80066a0 <TIM_OC2_SetConfig>
 80067b8:	6983      	ldr	r3, [r0, #24]
 80067ba:	690a      	ldr	r2, [r1, #16]
 80067bc:	f443 6300 	orr.w	r3, r3, #2048	; 0x800
 80067c0:	6183      	str	r3, [r0, #24]
 80067c2:	6983      	ldr	r3, [r0, #24]
 80067c4:	f423 6380 	bic.w	r3, r3, #1024	; 0x400
 80067c8:	6183      	str	r3, [r0, #24]
 80067ca:	6983      	ldr	r3, [r0, #24]
 80067cc:	ea43 2302 	orr.w	r3, r3, r2, lsl #8
 80067d0:	e7ec      	b.n	80067ac <HAL_TIM_PWM_ConfigChannel+0x70>
 80067d2:	6800      	ldr	r0, [r0, #0]
 80067d4:	f7ff fcce 	bl	8006174 <TIM_OC3_SetConfig>
 80067d8:	69c3      	ldr	r3, [r0, #28]
 80067da:	690a      	ldr	r2, [r1, #16]
 80067dc:	f043 0308 	orr.w	r3, r3, #8
 80067e0:	61c3      	str	r3, [r0, #28]
 80067e2:	69c3      	ldr	r3, [r0, #28]
 80067e4:	f023 0304 	bic.w	r3, r3, #4
 80067e8:	61c3      	str	r3, [r0, #28]
 80067ea:	69c3      	ldr	r3, [r0, #28]
 80067ec:	4313      	orrs	r3, r2
 80067ee:	61c3      	str	r3, [r0, #28]
 80067f0:	e7dd      	b.n	80067ae <HAL_TIM_PWM_ConfigChannel+0x72>
 80067f2:	6800      	ldr	r0, [r0, #0]
 80067f4:	f7ff fd0a 	bl	800620c <TIM_OC4_SetConfig>
 80067f8:	69c3      	ldr	r3, [r0, #28]
 80067fa:	690a      	ldr	r2, [r1, #16]
 80067fc:	f443 6300 	orr.w	r3, r3, #2048	; 0x800
 8006800:	61c3      	str	r3, [r0, #28]
 8006802:	69c3      	ldr	r3, [r0, #28]
 8006804:	f423 6380 	bic.w	r3, r3, #1024	; 0x400
 8006808:	61c3      	str	r3, [r0, #28]
 800680a:	69c3      	ldr	r3, [r0, #28]
 800680c:	ea43 2302 	orr.w	r3, r3, r2, lsl #8
 8006810:	e7ed      	b.n	80067ee <HAL_TIM_PWM_ConfigChannel+0xb2>
 8006812:	6800      	ldr	r0, [r0, #0]
 8006814:	f7ff fd32 	bl	800627c <TIM_OC5_SetConfig>
 8006818:	6d43      	ldr	r3, [r0, #84]	; 0x54
 800681a:	690a      	ldr	r2, [r1, #16]
 800681c:	f043 0308 	orr.w	r3, r3, #8
 8006820:	6543      	str	r3, [r0, #84]	; 0x54
 8006822:	6d43      	ldr	r3, [r0, #84]	; 0x54
 8006824:	f023 0304 	bic.w	r3, r3, #4
 8006828:	6543      	str	r3, [r0, #84]	; 0x54
 800682a:	6d43      	ldr	r3, [r0, #84]	; 0x54
 800682c:	4313      	orrs	r3, r2
 800682e:	6543      	str	r3, [r0, #84]	; 0x54
 8006830:	e7bd      	b.n	80067ae <HAL_TIM_PWM_ConfigChannel+0x72>
 8006832:	2002      	movs	r0, #2
 8006834:	e797      	b.n	8006766 <HAL_TIM_PWM_ConfigChannel+0x2a>

08006836 <TIM_ETR_SetConfig>:
 8006836:	b510      	push	{r4, lr}
 8006838:	6884      	ldr	r4, [r0, #8]
 800683a:	4311      	orrs	r1, r2
 800683c:	f424 447f 	bic.w	r4, r4, #65280	; 0xff00
 8006840:	ea41 2303 	orr.w	r3, r1, r3, lsl #8
 8006844:	4323      	orrs	r3, r4
 8006846:	6083      	str	r3, [r0, #8]
 8006848:	bd10      	pop	{r4, pc}
	...

0800684c <HAL_TIM_ConfigClockSource>:
 800684c:	b538      	push	{r3, r4, r5, lr}
 800684e:	f890 303c 	ldrb.w	r3, [r0, #60]	; 0x3c
 8006852:	2b01      	cmp	r3, #1
 8006854:	4604      	mov	r4, r0
 8006856:	f04f 0302 	mov.w	r3, #2
 800685a:	f000 808c 	beq.w	8006976 <HAL_TIM_ConfigClockSource+0x12a>
 800685e:	2201      	movs	r2, #1
 8006860:	f880 303d 	strb.w	r3, [r0, #61]	; 0x3d
 8006864:	f880 203c 	strb.w	r2, [r0, #60]	; 0x3c
 8006868:	6800      	ldr	r0, [r0, #0]
 800686a:	4b44      	ldr	r3, [pc, #272]	; (800697c <HAL_TIM_ConfigClockSource+0x130>)
 800686c:	6885      	ldr	r5, [r0, #8]
 800686e:	402b      	ands	r3, r5
 8006870:	6083      	str	r3, [r0, #8]
 8006872:	680b      	ldr	r3, [r1, #0]
 8006874:	2b60      	cmp	r3, #96	; 0x60
 8006876:	d04f      	beq.n	8006918 <HAL_TIM_ConfigClockSource+0xcc>
 8006878:	d832      	bhi.n	80068e0 <HAL_TIM_ConfigClockSource+0x94>
 800687a:	2b40      	cmp	r3, #64	; 0x40
 800687c:	d064      	beq.n	8006948 <HAL_TIM_ConfigClockSource+0xfc>
 800687e:	d816      	bhi.n	80068ae <HAL_TIM_ConfigClockSource+0x62>
 8006880:	2b20      	cmp	r3, #32
 8006882:	d00d      	beq.n	80068a0 <HAL_TIM_ConfigClockSource+0x54>
 8006884:	d80a      	bhi.n	800689c <HAL_TIM_ConfigClockSource+0x50>
 8006886:	f033 0110 	bics.w	r1, r3, #16
 800688a:	d009      	beq.n	80068a0 <HAL_TIM_ConfigClockSource+0x54>
 800688c:	2301      	movs	r3, #1
 800688e:	f884 303d 	strb.w	r3, [r4, #61]	; 0x3d
 8006892:	2300      	movs	r3, #0
 8006894:	f884 303c 	strb.w	r3, [r4, #60]	; 0x3c
 8006898:	4610      	mov	r0, r2
 800689a:	bd38      	pop	{r3, r4, r5, pc}
 800689c:	2b30      	cmp	r3, #48	; 0x30
 800689e:	d1f5      	bne.n	800688c <HAL_TIM_ConfigClockSource+0x40>
 80068a0:	6882      	ldr	r2, [r0, #8]
 80068a2:	f022 0270 	bic.w	r2, r2, #112	; 0x70
 80068a6:	4313      	orrs	r3, r2
 80068a8:	f043 0307 	orr.w	r3, r3, #7
 80068ac:	e028      	b.n	8006900 <HAL_TIM_ConfigClockSource+0xb4>
 80068ae:	2b50      	cmp	r3, #80	; 0x50
 80068b0:	d1ec      	bne.n	800688c <HAL_TIM_ConfigClockSource+0x40>
 80068b2:	684a      	ldr	r2, [r1, #4]
 80068b4:	68cd      	ldr	r5, [r1, #12]
 80068b6:	6a01      	ldr	r1, [r0, #32]
 80068b8:	6a03      	ldr	r3, [r0, #32]
 80068ba:	f023 0301 	bic.w	r3, r3, #1
 80068be:	6203      	str	r3, [r0, #32]
 80068c0:	6983      	ldr	r3, [r0, #24]
 80068c2:	f021 010a 	bic.w	r1, r1, #10
 80068c6:	f023 03f0 	bic.w	r3, r3, #240	; 0xf0
 80068ca:	ea43 1305 	orr.w	r3, r3, r5, lsl #4
 80068ce:	430a      	orrs	r2, r1
 80068d0:	6183      	str	r3, [r0, #24]
 80068d2:	6202      	str	r2, [r0, #32]
 80068d4:	6883      	ldr	r3, [r0, #8]
 80068d6:	f023 0370 	bic.w	r3, r3, #112	; 0x70
 80068da:	f043 0357 	orr.w	r3, r3, #87	; 0x57
 80068de:	e00f      	b.n	8006900 <HAL_TIM_ConfigClockSource+0xb4>
 80068e0:	f5b3 5f80 	cmp.w	r3, #4096	; 0x1000
 80068e4:	d00d      	beq.n	8006902 <HAL_TIM_ConfigClockSource+0xb6>
 80068e6:	f5b3 5f00 	cmp.w	r3, #8192	; 0x2000
 80068ea:	d00c      	beq.n	8006906 <HAL_TIM_ConfigClockSource+0xba>
 80068ec:	2b70      	cmp	r3, #112	; 0x70
 80068ee:	d1cd      	bne.n	800688c <HAL_TIM_ConfigClockSource+0x40>
 80068f0:	68cb      	ldr	r3, [r1, #12]
 80068f2:	e9d1 2101 	ldrd	r2, r1, [r1, #4]
 80068f6:	f7ff ff9e 	bl	8006836 <TIM_ETR_SetConfig>
 80068fa:	6883      	ldr	r3, [r0, #8]
 80068fc:	f043 0377 	orr.w	r3, r3, #119	; 0x77
 8006900:	6083      	str	r3, [r0, #8]
 8006902:	2200      	movs	r2, #0
 8006904:	e7c2      	b.n	800688c <HAL_TIM_ConfigClockSource+0x40>
 8006906:	68cb      	ldr	r3, [r1, #12]
 8006908:	e9d1 2101 	ldrd	r2, r1, [r1, #4]
 800690c:	f7ff ff93 	bl	8006836 <TIM_ETR_SetConfig>
 8006910:	6883      	ldr	r3, [r0, #8]
 8006912:	f443 4380 	orr.w	r3, r3, #16384	; 0x4000
 8006916:	e7f3      	b.n	8006900 <HAL_TIM_ConfigClockSource+0xb4>
 8006918:	6a03      	ldr	r3, [r0, #32]
 800691a:	684d      	ldr	r5, [r1, #4]
 800691c:	68c9      	ldr	r1, [r1, #12]
 800691e:	f023 0310 	bic.w	r3, r3, #16
 8006922:	6203      	str	r3, [r0, #32]
 8006924:	6982      	ldr	r2, [r0, #24]
 8006926:	6a03      	ldr	r3, [r0, #32]
 8006928:	f422 4270 	bic.w	r2, r2, #61440	; 0xf000
 800692c:	f023 03a0 	bic.w	r3, r3, #160	; 0xa0
 8006930:	ea43 1305 	orr.w	r3, r3, r5, lsl #4
 8006934:	ea42 3201 	orr.w	r2, r2, r1, lsl #12
 8006938:	6182      	str	r2, [r0, #24]
 800693a:	6203      	str	r3, [r0, #32]
 800693c:	6883      	ldr	r3, [r0, #8]
 800693e:	f023 0370 	bic.w	r3, r3, #112	; 0x70
 8006942:	f043 0367 	orr.w	r3, r3, #103	; 0x67
 8006946:	e7db      	b.n	8006900 <HAL_TIM_ConfigClockSource+0xb4>
 8006948:	684a      	ldr	r2, [r1, #4]
 800694a:	68cd      	ldr	r5, [r1, #12]
 800694c:	6a01      	ldr	r1, [r0, #32]
 800694e:	6a03      	ldr	r3, [r0, #32]
 8006950:	f023 0301 	bic.w	r3, r3, #1
 8006954:	6203      	str	r3, [r0, #32]
 8006956:	6983      	ldr	r3, [r0, #24]
 8006958:	f021 010a 	bic.w	r1, r1, #10
 800695c:	f023 03f0 	bic.w	r3, r3, #240	; 0xf0
 8006960:	ea43 1305 	orr.w	r3, r3, r5, lsl #4
 8006964:	430a      	orrs	r2, r1
 8006966:	6183      	str	r3, [r0, #24]
 8006968:	6202      	str	r2, [r0, #32]
 800696a:	6883      	ldr	r3, [r0, #8]
 800696c:	f023 0370 	bic.w	r3, r3, #112	; 0x70
 8006970:	f043 0347 	orr.w	r3, r3, #71	; 0x47
 8006974:	e7c4      	b.n	8006900 <HAL_TIM_ConfigClockSource+0xb4>
 8006976:	461a      	mov	r2, r3
 8006978:	e78e      	b.n	8006898 <HAL_TIM_ConfigClockSource+0x4c>
 800697a:	bf00      	nop
 800697c:	fffe0088 	.word	0xfffe0088

08006980 <TIM_CCxChannelCmd>:
 8006980:	6a03      	ldr	r3, [r0, #32]
 8006982:	f001 011f 	and.w	r1, r1, #31
 8006986:	b510      	push	{r4, lr}
 8006988:	2401      	movs	r4, #1
 800698a:	408c      	lsls	r4, r1
 800698c:	ea23 0304 	bic.w	r3, r3, r4
 8006990:	6203      	str	r3, [r0, #32]
 8006992:	6a03      	ldr	r3, [r0, #32]
 8006994:	408a      	lsls	r2, r1
 8006996:	431a      	orrs	r2, r3
 8006998:	6202      	str	r2, [r0, #32]
 800699a:	bd10      	pop	{r4, pc}

0800699c <HAL_TIM_OC_Start>:
 800699c:	2908      	cmp	r1, #8
 800699e:	b508      	push	{r3, lr}
 80069a0:	d018      	beq.n	80069d4 <HAL_TIM_OC_Start+0x38>
 80069a2:	d805      	bhi.n	80069b0 <HAL_TIM_OC_Start+0x14>
 80069a4:	b159      	cbz	r1, 80069be <HAL_TIM_OC_Start+0x22>
 80069a6:	2904      	cmp	r1, #4
 80069a8:	d011      	beq.n	80069ce <HAL_TIM_OC_Start+0x32>
 80069aa:	f890 3043 	ldrb.w	r3, [r0, #67]	; 0x43
 80069ae:	e013      	b.n	80069d8 <HAL_TIM_OC_Start+0x3c>
 80069b0:	290c      	cmp	r1, #12
 80069b2:	d023      	beq.n	80069fc <HAL_TIM_OC_Start+0x60>
 80069b4:	2910      	cmp	r1, #16
 80069b6:	d1f8      	bne.n	80069aa <HAL_TIM_OC_Start+0xe>
 80069b8:	f890 3042 	ldrb.w	r3, [r0, #66]	; 0x42
 80069bc:	e00c      	b.n	80069d8 <HAL_TIM_OC_Start+0x3c>
 80069be:	f890 303e 	ldrb.w	r3, [r0, #62]	; 0x3e
 80069c2:	3b01      	subs	r3, #1
 80069c4:	bf18      	it	ne
 80069c6:	2301      	movne	r3, #1
 80069c8:	b183      	cbz	r3, 80069ec <HAL_TIM_OC_Start+0x50>
 80069ca:	2001      	movs	r0, #1
 80069cc:	e046      	b.n	8006a5c <HAL_TIM_OC_Start+0xc0>
 80069ce:	f890 303f 	ldrb.w	r3, [r0, #63]	; 0x3f
 80069d2:	e7f6      	b.n	80069c2 <HAL_TIM_OC_Start+0x26>
 80069d4:	f890 3040 	ldrb.w	r3, [r0, #64]	; 0x40
 80069d8:	3b01      	subs	r3, #1
 80069da:	bf18      	it	ne
 80069dc:	2301      	movne	r3, #1
 80069de:	2b00      	cmp	r3, #0
 80069e0:	d1f3      	bne.n	80069ca <HAL_TIM_OC_Start+0x2e>
 80069e2:	2908      	cmp	r1, #8
 80069e4:	f04f 0302 	mov.w	r3, #2
 80069e8:	d03c      	beq.n	8006a64 <HAL_TIM_OC_Start+0xc8>
 80069ea:	d80a      	bhi.n	8006a02 <HAL_TIM_OC_Start+0x66>
 80069ec:	2302      	movs	r3, #2
 80069ee:	b179      	cbz	r1, 8006a10 <HAL_TIM_OC_Start+0x74>
 80069f0:	2904      	cmp	r1, #4
 80069f2:	d034      	beq.n	8006a5e <HAL_TIM_OC_Start+0xc2>
 80069f4:	2302      	movs	r3, #2
 80069f6:	f880 3043 	strb.w	r3, [r0, #67]	; 0x43
 80069fa:	e00b      	b.n	8006a14 <HAL_TIM_OC_Start+0x78>
 80069fc:	f890 3041 	ldrb.w	r3, [r0, #65]	; 0x41
 8006a00:	e7ea      	b.n	80069d8 <HAL_TIM_OC_Start+0x3c>
 8006a02:	290c      	cmp	r1, #12
 8006a04:	d031      	beq.n	8006a6a <HAL_TIM_OC_Start+0xce>
 8006a06:	2910      	cmp	r1, #16
 8006a08:	d1f4      	bne.n	80069f4 <HAL_TIM_OC_Start+0x58>
 8006a0a:	f880 3042 	strb.w	r3, [r0, #66]	; 0x42
 8006a0e:	e001      	b.n	8006a14 <HAL_TIM_OC_Start+0x78>
 8006a10:	f880 303e 	strb.w	r3, [r0, #62]	; 0x3e
 8006a14:	6800      	ldr	r0, [r0, #0]
 8006a16:	2201      	movs	r2, #1
 8006a18:	f7ff ffb2 	bl	8006980 <TIM_CCxChannelCmd>
 8006a1c:	4b26      	ldr	r3, [pc, #152]	; (8006ab8 <HAL_TIM_OC_Start+0x11c>)
 8006a1e:	4298      	cmp	r0, r3
 8006a20:	d026      	beq.n	8006a70 <HAL_TIM_OC_Start+0xd4>
 8006a22:	f503 6300 	add.w	r3, r3, #2048	; 0x800
 8006a26:	4298      	cmp	r0, r3
 8006a28:	d022      	beq.n	8006a70 <HAL_TIM_OC_Start+0xd4>
 8006a2a:	f503 6340 	add.w	r3, r3, #3072	; 0xc00
 8006a2e:	4298      	cmp	r0, r3
 8006a30:	d01e      	beq.n	8006a70 <HAL_TIM_OC_Start+0xd4>
 8006a32:	f503 6380 	add.w	r3, r3, #1024	; 0x400
 8006a36:	4298      	cmp	r0, r3
 8006a38:	d01a      	beq.n	8006a70 <HAL_TIM_OC_Start+0xd4>
 8006a3a:	f503 6380 	add.w	r3, r3, #1024	; 0x400
 8006a3e:	4298      	cmp	r0, r3
 8006a40:	d016      	beq.n	8006a70 <HAL_TIM_OC_Start+0xd4>
 8006a42:	f503 6300 	add.w	r3, r3, #2048	; 0x800
 8006a46:	4298      	cmp	r0, r3
 8006a48:	d012      	beq.n	8006a70 <HAL_TIM_OC_Start+0xd4>
 8006a4a:	f1b0 4f80 	cmp.w	r0, #1073741824	; 0x40000000
 8006a4e:	d117      	bne.n	8006a80 <HAL_TIM_OC_Start+0xe4>
 8006a50:	6882      	ldr	r2, [r0, #8]
 8006a52:	4b1a      	ldr	r3, [pc, #104]	; (8006abc <HAL_TIM_OC_Start+0x120>)
 8006a54:	4013      	ands	r3, r2
 8006a56:	2b06      	cmp	r3, #6
 8006a58:	d12a      	bne.n	8006ab0 <HAL_TIM_OC_Start+0x114>
 8006a5a:	2000      	movs	r0, #0
 8006a5c:	bd08      	pop	{r3, pc}
 8006a5e:	f880 303f 	strb.w	r3, [r0, #63]	; 0x3f
 8006a62:	e7d7      	b.n	8006a14 <HAL_TIM_OC_Start+0x78>
 8006a64:	f880 3040 	strb.w	r3, [r0, #64]	; 0x40
 8006a68:	e7d4      	b.n	8006a14 <HAL_TIM_OC_Start+0x78>
 8006a6a:	f880 3041 	strb.w	r3, [r0, #65]	; 0x41
 8006a6e:	e7d1      	b.n	8006a14 <HAL_TIM_OC_Start+0x78>
 8006a70:	6c43      	ldr	r3, [r0, #68]	; 0x44
 8006a72:	f443 4300 	orr.w	r3, r3, #32768	; 0x8000
 8006a76:	6443      	str	r3, [r0, #68]	; 0x44
 8006a78:	4b0f      	ldr	r3, [pc, #60]	; (8006ab8 <HAL_TIM_OC_Start+0x11c>)
 8006a7a:	4298      	cmp	r0, r3
 8006a7c:	d1e5      	bne.n	8006a4a <HAL_TIM_OC_Start+0xae>
 8006a7e:	e7e7      	b.n	8006a50 <HAL_TIM_OC_Start+0xb4>
 8006a80:	4b0f      	ldr	r3, [pc, #60]	; (8006ac0 <HAL_TIM_OC_Start+0x124>)
 8006a82:	4298      	cmp	r0, r3
 8006a84:	d0e4      	beq.n	8006a50 <HAL_TIM_OC_Start+0xb4>
 8006a86:	f503 6380 	add.w	r3, r3, #1024	; 0x400
 8006a8a:	4298      	cmp	r0, r3
 8006a8c:	d0e0      	beq.n	8006a50 <HAL_TIM_OC_Start+0xb4>
 8006a8e:	f503 3396 	add.w	r3, r3, #76800	; 0x12c00
 8006a92:	4298      	cmp	r0, r3
 8006a94:	d0dc      	beq.n	8006a50 <HAL_TIM_OC_Start+0xb4>
 8006a96:	f503 6340 	add.w	r3, r3, #3072	; 0xc00
 8006a9a:	4298      	cmp	r0, r3
 8006a9c:	d0d8      	beq.n	8006a50 <HAL_TIM_OC_Start+0xb4>
 8006a9e:	f503 5380 	add.w	r3, r3, #4096	; 0x1000
 8006aa2:	4298      	cmp	r0, r3
 8006aa4:	d0d4      	beq.n	8006a50 <HAL_TIM_OC_Start+0xb4>
 8006aa6:	6803      	ldr	r3, [r0, #0]
 8006aa8:	f043 0301 	orr.w	r3, r3, #1
 8006aac:	6003      	str	r3, [r0, #0]
 8006aae:	e7d4      	b.n	8006a5a <HAL_TIM_OC_Start+0xbe>
 8006ab0:	f5b3 3f80 	cmp.w	r3, #65536	; 0x10000
 8006ab4:	d1f7      	bne.n	8006aa6 <HAL_TIM_OC_Start+0x10a>
 8006ab6:	e7d0      	b.n	8006a5a <HAL_TIM_OC_Start+0xbe>
 8006ab8:	40012c00 	.word	0x40012c00
 8006abc:	00010007 	.word	0x00010007
 8006ac0:	40000400 	.word	0x40000400

08006ac4 <HAL_TIM_PWM_Start>:
 8006ac4:	f7ff bf6a 	b.w	800699c <HAL_TIM_OC_Start>

08006ac8 <HAL_TIM_OC_Start_IT>:
 8006ac8:	2908      	cmp	r1, #8
 8006aca:	b508      	push	{r3, lr}
 8006acc:	d018      	beq.n	8006b00 <HAL_TIM_OC_Start_IT+0x38>
 8006ace:	d805      	bhi.n	8006adc <HAL_TIM_OC_Start_IT+0x14>
 8006ad0:	b159      	cbz	r1, 8006aea <HAL_TIM_OC_Start_IT+0x22>
 8006ad2:	2904      	cmp	r1, #4
 8006ad4:	d011      	beq.n	8006afa <HAL_TIM_OC_Start_IT+0x32>
 8006ad6:	f890 3043 	ldrb.w	r3, [r0, #67]	; 0x43
 8006ada:	e008      	b.n	8006aee <HAL_TIM_OC_Start_IT+0x26>
 8006adc:	290c      	cmp	r1, #12
 8006ade:	d012      	beq.n	8006b06 <HAL_TIM_OC_Start_IT+0x3e>
 8006ae0:	2910      	cmp	r1, #16
 8006ae2:	d1f8      	bne.n	8006ad6 <HAL_TIM_OC_Start_IT+0xe>
 8006ae4:	f890 3042 	ldrb.w	r3, [r0, #66]	; 0x42
 8006ae8:	e001      	b.n	8006aee <HAL_TIM_OC_Start_IT+0x26>
 8006aea:	f890 303e 	ldrb.w	r3, [r0, #62]	; 0x3e
 8006aee:	3b01      	subs	r3, #1
 8006af0:	bf18      	it	ne
 8006af2:	2301      	movne	r3, #1
 8006af4:	b153      	cbz	r3, 8006b0c <HAL_TIM_OC_Start_IT+0x44>
 8006af6:	2001      	movs	r0, #1
 8006af8:	e058      	b.n	8006bac <HAL_TIM_OC_Start_IT+0xe4>
 8006afa:	f890 303f 	ldrb.w	r3, [r0, #63]	; 0x3f
 8006afe:	e7f6      	b.n	8006aee <HAL_TIM_OC_Start_IT+0x26>
 8006b00:	f890 3040 	ldrb.w	r3, [r0, #64]	; 0x40
 8006b04:	e7f3      	b.n	8006aee <HAL_TIM_OC_Start_IT+0x26>
 8006b06:	f890 3041 	ldrb.w	r3, [r0, #65]	; 0x41
 8006b0a:	e7f0      	b.n	8006aee <HAL_TIM_OC_Start_IT+0x26>
 8006b0c:	2908      	cmp	r1, #8
 8006b0e:	f04f 0302 	mov.w	r3, #2
 8006b12:	d020      	beq.n	8006b56 <HAL_TIM_OC_Start_IT+0x8e>
 8006b14:	d80a      	bhi.n	8006b2c <HAL_TIM_OC_Start_IT+0x64>
 8006b16:	b181      	cbz	r1, 8006b3a <HAL_TIM_OC_Start_IT+0x72>
 8006b18:	2904      	cmp	r1, #4
 8006b1a:	d015      	beq.n	8006b48 <HAL_TIM_OC_Start_IT+0x80>
 8006b1c:	2302      	movs	r3, #2
 8006b1e:	2904      	cmp	r1, #4
 8006b20:	f880 3043 	strb.w	r3, [r0, #67]	; 0x43
 8006b24:	d012      	beq.n	8006b4c <HAL_TIM_OC_Start_IT+0x84>
 8006b26:	d849      	bhi.n	8006bbc <HAL_TIM_OC_Start_IT+0xf4>
 8006b28:	b149      	cbz	r1, 8006b3e <HAL_TIM_OC_Start_IT+0x76>
 8006b2a:	e7e4      	b.n	8006af6 <HAL_TIM_OC_Start_IT+0x2e>
 8006b2c:	290c      	cmp	r1, #12
 8006b2e:	d03e      	beq.n	8006bae <HAL_TIM_OC_Start_IT+0xe6>
 8006b30:	2910      	cmp	r1, #16
 8006b32:	d1f3      	bne.n	8006b1c <HAL_TIM_OC_Start_IT+0x54>
 8006b34:	f880 3042 	strb.w	r3, [r0, #66]	; 0x42
 8006b38:	e7dd      	b.n	8006af6 <HAL_TIM_OC_Start_IT+0x2e>
 8006b3a:	f880 303e 	strb.w	r3, [r0, #62]	; 0x3e
 8006b3e:	6802      	ldr	r2, [r0, #0]
 8006b40:	68d3      	ldr	r3, [r2, #12]
 8006b42:	f043 0302 	orr.w	r3, r3, #2
 8006b46:	e00c      	b.n	8006b62 <HAL_TIM_OC_Start_IT+0x9a>
 8006b48:	f880 303f 	strb.w	r3, [r0, #63]	; 0x3f
 8006b4c:	6802      	ldr	r2, [r0, #0]
 8006b4e:	68d3      	ldr	r3, [r2, #12]
 8006b50:	f043 0304 	orr.w	r3, r3, #4
 8006b54:	e005      	b.n	8006b62 <HAL_TIM_OC_Start_IT+0x9a>
 8006b56:	6802      	ldr	r2, [r0, #0]
 8006b58:	f880 3040 	strb.w	r3, [r0, #64]	; 0x40
 8006b5c:	68d3      	ldr	r3, [r2, #12]
 8006b5e:	f043 0308 	orr.w	r3, r3, #8
 8006b62:	60d3      	str	r3, [r2, #12]
 8006b64:	6800      	ldr	r0, [r0, #0]
 8006b66:	2201      	movs	r2, #1
 8006b68:	f7ff ff0a 	bl	8006980 <TIM_CCxChannelCmd>
 8006b6c:	4b27      	ldr	r3, [pc, #156]	; (8006c0c <HAL_TIM_OC_Start_IT+0x144>)
 8006b6e:	4298      	cmp	r0, r3
 8006b70:	d027      	beq.n	8006bc2 <HAL_TIM_OC_Start_IT+0xfa>
 8006b72:	f503 6300 	add.w	r3, r3, #2048	; 0x800
 8006b76:	4298      	cmp	r0, r3
 8006b78:	d023      	beq.n	8006bc2 <HAL_TIM_OC_Start_IT+0xfa>
 8006b7a:	f503 6340 	add.w	r3, r3, #3072	; 0xc00
 8006b7e:	4298      	cmp	r0, r3
 8006b80:	d01f      	beq.n	8006bc2 <HAL_TIM_OC_Start_IT+0xfa>
 8006b82:	f503 6380 	add.w	r3, r3, #1024	; 0x400
 8006b86:	4298      	cmp	r0, r3
 8006b88:	d01b      	beq.n	8006bc2 <HAL_TIM_OC_Start_IT+0xfa>
 8006b8a:	f503 6380 	add.w	r3, r3, #1024	; 0x400
 8006b8e:	4298      	cmp	r0, r3
 8006b90:	d017      	beq.n	8006bc2 <HAL_TIM_OC_Start_IT+0xfa>
 8006b92:	f503 6300 	add.w	r3, r3, #2048	; 0x800
 8006b96:	4298      	cmp	r0, r3
 8006b98:	d013      	beq.n	8006bc2 <HAL_TIM_OC_Start_IT+0xfa>
 8006b9a:	f1b0 4f80 	cmp.w	r0, #1073741824	; 0x40000000
 8006b9e:	d118      	bne.n	8006bd2 <HAL_TIM_OC_Start_IT+0x10a>
 8006ba0:	6882      	ldr	r2, [r0, #8]
 8006ba2:	4b1b      	ldr	r3, [pc, #108]	; (8006c10 <HAL_TIM_OC_Start_IT+0x148>)
 8006ba4:	4013      	ands	r3, r2
 8006ba6:	2b06      	cmp	r3, #6
 8006ba8:	d12b      	bne.n	8006c02 <HAL_TIM_OC_Start_IT+0x13a>
 8006baa:	2000      	movs	r0, #0
 8006bac:	bd08      	pop	{r3, pc}
 8006bae:	f880 3041 	strb.w	r3, [r0, #65]	; 0x41
 8006bb2:	6802      	ldr	r2, [r0, #0]
 8006bb4:	68d3      	ldr	r3, [r2, #12]
 8006bb6:	f043 0310 	orr.w	r3, r3, #16
 8006bba:	e7d2      	b.n	8006b62 <HAL_TIM_OC_Start_IT+0x9a>
 8006bbc:	290c      	cmp	r1, #12
 8006bbe:	d0f8      	beq.n	8006bb2 <HAL_TIM_OC_Start_IT+0xea>
 8006bc0:	e799      	b.n	8006af6 <HAL_TIM_OC_Start_IT+0x2e>
 8006bc2:	6c43      	ldr	r3, [r0, #68]	; 0x44
 8006bc4:	f443 4300 	orr.w	r3, r3, #32768	; 0x8000
 8006bc8:	6443      	str	r3, [r0, #68]	; 0x44
 8006bca:	4b10      	ldr	r3, [pc, #64]	; (8006c0c <HAL_TIM_OC_Start_IT+0x144>)
 8006bcc:	4298      	cmp	r0, r3
 8006bce:	d1e4      	bne.n	8006b9a <HAL_TIM_OC_Start_IT+0xd2>
 8006bd0:	e7e6      	b.n	8006ba0 <HAL_TIM_OC_Start_IT+0xd8>
 8006bd2:	4b10      	ldr	r3, [pc, #64]	; (8006c14 <HAL_TIM_OC_Start_IT+0x14c>)
 8006bd4:	4298      	cmp	r0, r3
 8006bd6:	d0e3      	beq.n	8006ba0 <HAL_TIM_OC_Start_IT+0xd8>
 8006bd8:	f503 6380 	add.w	r3, r3, #1024	; 0x400
 8006bdc:	4298      	cmp	r0, r3
 8006bde:	d0df      	beq.n	8006ba0 <HAL_TIM_OC_Start_IT+0xd8>
 8006be0:	f503 3396 	add.w	r3, r3, #76800	; 0x12c00
 8006be4:	4298      	cmp	r0, r3
 8006be6:	d0db      	beq.n	8006ba0 <HAL_TIM_OC_Start_IT+0xd8>
 8006be8:	f503 6340 	add.w	r3, r3, #3072	; 0xc00
 8006bec:	4298      	cmp	r0, r3
 8006bee:	d0d7      	beq.n	8006ba0 <HAL_TIM_OC_Start_IT+0xd8>
 8006bf0:	f503 5380 	add.w	r3, r3, #4096	; 0x1000
 8006bf4:	4298      	cmp	r0, r3
 8006bf6:	d0d3      	beq.n	8006ba0 <HAL_TIM_OC_Start_IT+0xd8>
 8006bf8:	6803      	ldr	r3, [r0, #0]
 8006bfa:	f043 0301 	orr.w	r3, r3, #1
 8006bfe:	6003      	str	r3, [r0, #0]
 8006c00:	e7d3      	b.n	8006baa <HAL_TIM_OC_Start_IT+0xe2>
 8006c02:	f5b3 3f80 	cmp.w	r3, #65536	; 0x10000
 8006c06:	d1f7      	bne.n	8006bf8 <HAL_TIM_OC_Start_IT+0x130>
 8006c08:	e7cf      	b.n	8006baa <HAL_TIM_OC_Start_IT+0xe2>
 8006c0a:	bf00      	nop
 8006c0c:	40012c00 	.word	0x40012c00
 8006c10:	00010007 	.word	0x00010007
 8006c14:	40000400 	.word	0x40000400

08006c18 <HAL_TIM_PWM_Start_IT>:
 8006c18:	f7ff bf56 	b.w	8006ac8 <HAL_TIM_OC_Start_IT>

08006c1c <HAL_TIM_OC_Start_DMA>:
 8006c1c:	b538      	push	{r3, r4, r5, lr}
 8006c1e:	460d      	mov	r5, r1
 8006c20:	2d08      	cmp	r5, #8
 8006c22:	4604      	mov	r4, r0
 8006c24:	4611      	mov	r1, r2
 8006c26:	d01b      	beq.n	8006c60 <HAL_TIM_OC_Start_DMA+0x44>
 8006c28:	d805      	bhi.n	8006c36 <HAL_TIM_OC_Start_DMA+0x1a>
 8006c2a:	b15d      	cbz	r5, 8006c44 <HAL_TIM_OC_Start_DMA+0x28>
 8006c2c:	2d04      	cmp	r5, #4
 8006c2e:	d014      	beq.n	8006c5a <HAL_TIM_OC_Start_DMA+0x3e>
 8006c30:	f894 0043 	ldrb.w	r0, [r4, #67]	; 0x43
 8006c34:	e008      	b.n	8006c48 <HAL_TIM_OC_Start_DMA+0x2c>
 8006c36:	2d0c      	cmp	r5, #12
 8006c38:	d015      	beq.n	8006c66 <HAL_TIM_OC_Start_DMA+0x4a>
 8006c3a:	2d10      	cmp	r5, #16
 8006c3c:	d1f8      	bne.n	8006c30 <HAL_TIM_OC_Start_DMA+0x14>
 8006c3e:	f890 0042 	ldrb.w	r0, [r0, #66]	; 0x42
 8006c42:	e001      	b.n	8006c48 <HAL_TIM_OC_Start_DMA+0x2c>
 8006c44:	f890 003e 	ldrb.w	r0, [r0, #62]	; 0x3e
 8006c48:	f1a0 0c02 	sub.w	ip, r0, #2
 8006c4c:	f1dc 0000 	rsbs	r0, ip, #0
 8006c50:	eb40 000c 	adc.w	r0, r0, ip
 8006c54:	b150      	cbz	r0, 8006c6c <HAL_TIM_OC_Start_DMA+0x50>
 8006c56:	2002      	movs	r0, #2
 8006c58:	e01d      	b.n	8006c96 <HAL_TIM_OC_Start_DMA+0x7a>
 8006c5a:	f890 003f 	ldrb.w	r0, [r0, #63]	; 0x3f
 8006c5e:	e7f3      	b.n	8006c48 <HAL_TIM_OC_Start_DMA+0x2c>
 8006c60:	f890 0040 	ldrb.w	r0, [r0, #64]	; 0x40
 8006c64:	e7f0      	b.n	8006c48 <HAL_TIM_OC_Start_DMA+0x2c>
 8006c66:	f890 0041 	ldrb.w	r0, [r0, #65]	; 0x41
 8006c6a:	e7ed      	b.n	8006c48 <HAL_TIM_OC_Start_DMA+0x2c>
 8006c6c:	2d08      	cmp	r5, #8
 8006c6e:	d016      	beq.n	8006c9e <HAL_TIM_OC_Start_DMA+0x82>
 8006c70:	d805      	bhi.n	8006c7e <HAL_TIM_OC_Start_DMA+0x62>
 8006c72:	b15d      	cbz	r5, 8006c8c <HAL_TIM_OC_Start_DMA+0x70>
 8006c74:	2d04      	cmp	r5, #4
 8006c76:	d00f      	beq.n	8006c98 <HAL_TIM_OC_Start_DMA+0x7c>
 8006c78:	f894 2043 	ldrb.w	r2, [r4, #67]	; 0x43
 8006c7c:	e008      	b.n	8006c90 <HAL_TIM_OC_Start_DMA+0x74>
 8006c7e:	2d0c      	cmp	r5, #12
 8006c80:	d010      	beq.n	8006ca4 <HAL_TIM_OC_Start_DMA+0x88>
 8006c82:	2d10      	cmp	r5, #16
 8006c84:	d1f8      	bne.n	8006c78 <HAL_TIM_OC_Start_DMA+0x5c>
 8006c86:	f894 2042 	ldrb.w	r2, [r4, #66]	; 0x42
 8006c8a:	e00d      	b.n	8006ca8 <HAL_TIM_OC_Start_DMA+0x8c>
 8006c8c:	f894 203e 	ldrb.w	r2, [r4, #62]	; 0x3e
 8006c90:	2a01      	cmp	r2, #1
 8006c92:	d00e      	beq.n	8006cb2 <HAL_TIM_OC_Start_DMA+0x96>
 8006c94:	2001      	movs	r0, #1
 8006c96:	bd38      	pop	{r3, r4, r5, pc}
 8006c98:	f894 203f 	ldrb.w	r2, [r4, #63]	; 0x3f
 8006c9c:	e7f8      	b.n	8006c90 <HAL_TIM_OC_Start_DMA+0x74>
 8006c9e:	f894 2040 	ldrb.w	r2, [r4, #64]	; 0x40
 8006ca2:	e7f5      	b.n	8006c90 <HAL_TIM_OC_Start_DMA+0x74>
 8006ca4:	f894 2041 	ldrb.w	r2, [r4, #65]	; 0x41
 8006ca8:	1e50      	subs	r0, r2, #1
 8006caa:	4242      	negs	r2, r0
 8006cac:	4142      	adcs	r2, r0
 8006cae:	2a00      	cmp	r2, #0
 8006cb0:	d0f0      	beq.n	8006c94 <HAL_TIM_OC_Start_DMA+0x78>
 8006cb2:	2900      	cmp	r1, #0
 8006cb4:	d0ee      	beq.n	8006c94 <HAL_TIM_OC_Start_DMA+0x78>
 8006cb6:	2b00      	cmp	r3, #0
 8006cb8:	d0ec      	beq.n	8006c94 <HAL_TIM_OC_Start_DMA+0x78>
 8006cba:	2d08      	cmp	r5, #8
 8006cbc:	f04f 0202 	mov.w	r2, #2
 8006cc0:	d061      	beq.n	8006d86 <HAL_TIM_OC_Start_DMA+0x16a>
 8006cc2:	d80b      	bhi.n	8006cdc <HAL_TIM_OC_Start_DMA+0xc0>
 8006cc4:	b18d      	cbz	r5, 8006cea <HAL_TIM_OC_Start_DMA+0xce>
 8006cc6:	2d04      	cmp	r5, #4
 8006cc8:	d049      	beq.n	8006d5e <HAL_TIM_OC_Start_DMA+0x142>
 8006cca:	2202      	movs	r2, #2
 8006ccc:	2d04      	cmp	r5, #4
 8006cce:	f884 2043 	strb.w	r2, [r4, #67]	; 0x43
 8006cd2:	d046      	beq.n	8006d62 <HAL_TIM_OC_Start_DMA+0x146>
 8006cd4:	f200 8081 	bhi.w	8006dda <HAL_TIM_OC_Start_DMA+0x1be>
 8006cd8:	b14d      	cbz	r5, 8006cee <HAL_TIM_OC_Start_DMA+0xd2>
 8006cda:	e7db      	b.n	8006c94 <HAL_TIM_OC_Start_DMA+0x78>
 8006cdc:	2d0c      	cmp	r5, #12
 8006cde:	d067      	beq.n	8006db0 <HAL_TIM_OC_Start_DMA+0x194>
 8006ce0:	2d10      	cmp	r5, #16
 8006ce2:	d1f2      	bne.n	8006cca <HAL_TIM_OC_Start_DMA+0xae>
 8006ce4:	f884 2042 	strb.w	r2, [r4, #66]	; 0x42
 8006ce8:	e7d4      	b.n	8006c94 <HAL_TIM_OC_Start_DMA+0x78>
 8006cea:	f884 203e 	strb.w	r2, [r4, #62]	; 0x3e
 8006cee:	6a60      	ldr	r0, [r4, #36]	; 0x24
 8006cf0:	4a4d      	ldr	r2, [pc, #308]	; (8006e28 <HAL_TIM_OC_Start_DMA+0x20c>)
 8006cf2:	6282      	str	r2, [r0, #40]	; 0x28
 8006cf4:	4a4d      	ldr	r2, [pc, #308]	; (8006e2c <HAL_TIM_OC_Start_DMA+0x210>)
 8006cf6:	62c2      	str	r2, [r0, #44]	; 0x2c
 8006cf8:	4a4d      	ldr	r2, [pc, #308]	; (8006e30 <HAL_TIM_OC_Start_DMA+0x214>)
 8006cfa:	6302      	str	r2, [r0, #48]	; 0x30
 8006cfc:	6822      	ldr	r2, [r4, #0]
 8006cfe:	3234      	adds	r2, #52	; 0x34
 8006d00:	f7fd f994 	bl	800402c <HAL_DMA_Start_IT>
 8006d04:	2800      	cmp	r0, #0
 8006d06:	d1c5      	bne.n	8006c94 <HAL_TIM_OC_Start_DMA+0x78>
 8006d08:	6822      	ldr	r2, [r4, #0]
 8006d0a:	68d3      	ldr	r3, [r2, #12]
 8006d0c:	f443 7300 	orr.w	r3, r3, #512	; 0x200
 8006d10:	60d3      	str	r3, [r2, #12]
 8006d12:	6820      	ldr	r0, [r4, #0]
 8006d14:	2201      	movs	r2, #1
 8006d16:	4629      	mov	r1, r5
 8006d18:	f7ff fe32 	bl	8006980 <TIM_CCxChannelCmd>
 8006d1c:	4b45      	ldr	r3, [pc, #276]	; (8006e34 <HAL_TIM_OC_Start_DMA+0x218>)
 8006d1e:	4298      	cmp	r0, r3
 8006d20:	d05e      	beq.n	8006de0 <HAL_TIM_OC_Start_DMA+0x1c4>
 8006d22:	f503 6300 	add.w	r3, r3, #2048	; 0x800
 8006d26:	4298      	cmp	r0, r3
 8006d28:	d05a      	beq.n	8006de0 <HAL_TIM_OC_Start_DMA+0x1c4>
 8006d2a:	f503 6340 	add.w	r3, r3, #3072	; 0xc00
 8006d2e:	4298      	cmp	r0, r3
 8006d30:	d056      	beq.n	8006de0 <HAL_TIM_OC_Start_DMA+0x1c4>
 8006d32:	f503 6380 	add.w	r3, r3, #1024	; 0x400
 8006d36:	4298      	cmp	r0, r3
 8006d38:	d052      	beq.n	8006de0 <HAL_TIM_OC_Start_DMA+0x1c4>
 8006d3a:	f503 6380 	add.w	r3, r3, #1024	; 0x400
 8006d3e:	4298      	cmp	r0, r3
 8006d40:	d04e      	beq.n	8006de0 <HAL_TIM_OC_Start_DMA+0x1c4>
 8006d42:	f503 6300 	add.w	r3, r3, #2048	; 0x800
 8006d46:	4298      	cmp	r0, r3
 8006d48:	d04a      	beq.n	8006de0 <HAL_TIM_OC_Start_DMA+0x1c4>
 8006d4a:	f1b0 4f80 	cmp.w	r0, #1073741824	; 0x40000000
 8006d4e:	d14f      	bne.n	8006df0 <HAL_TIM_OC_Start_DMA+0x1d4>
 8006d50:	6882      	ldr	r2, [r0, #8]
 8006d52:	4b39      	ldr	r3, [pc, #228]	; (8006e38 <HAL_TIM_OC_Start_DMA+0x21c>)
 8006d54:	4013      	ands	r3, r2
 8006d56:	2b06      	cmp	r3, #6
 8006d58:	d162      	bne.n	8006e20 <HAL_TIM_OC_Start_DMA+0x204>
 8006d5a:	2000      	movs	r0, #0
 8006d5c:	e79b      	b.n	8006c96 <HAL_TIM_OC_Start_DMA+0x7a>
 8006d5e:	f884 203f 	strb.w	r2, [r4, #63]	; 0x3f
 8006d62:	6aa0      	ldr	r0, [r4, #40]	; 0x28
 8006d64:	4a30      	ldr	r2, [pc, #192]	; (8006e28 <HAL_TIM_OC_Start_DMA+0x20c>)
 8006d66:	6282      	str	r2, [r0, #40]	; 0x28
 8006d68:	4a30      	ldr	r2, [pc, #192]	; (8006e2c <HAL_TIM_OC_Start_DMA+0x210>)
 8006d6a:	62c2      	str	r2, [r0, #44]	; 0x2c
 8006d6c:	4a30      	ldr	r2, [pc, #192]	; (8006e30 <HAL_TIM_OC_Start_DMA+0x214>)
 8006d6e:	6302      	str	r2, [r0, #48]	; 0x30
 8006d70:	6822      	ldr	r2, [r4, #0]
 8006d72:	3238      	adds	r2, #56	; 0x38
 8006d74:	f7fd f95a 	bl	800402c <HAL_DMA_Start_IT>
 8006d78:	2800      	cmp	r0, #0
 8006d7a:	d18b      	bne.n	8006c94 <HAL_TIM_OC_Start_DMA+0x78>
 8006d7c:	6822      	ldr	r2, [r4, #0]
 8006d7e:	68d3      	ldr	r3, [r2, #12]
 8006d80:	f443 6380 	orr.w	r3, r3, #1024	; 0x400
 8006d84:	e7c4      	b.n	8006d10 <HAL_TIM_OC_Start_DMA+0xf4>
 8006d86:	6ae0      	ldr	r0, [r4, #44]	; 0x2c
 8006d88:	f884 2040 	strb.w	r2, [r4, #64]	; 0x40
 8006d8c:	4a26      	ldr	r2, [pc, #152]	; (8006e28 <HAL_TIM_OC_Start_DMA+0x20c>)
 8006d8e:	6282      	str	r2, [r0, #40]	; 0x28
 8006d90:	4a26      	ldr	r2, [pc, #152]	; (8006e2c <HAL_TIM_OC_Start_DMA+0x210>)
 8006d92:	62c2      	str	r2, [r0, #44]	; 0x2c
 8006d94:	4a26      	ldr	r2, [pc, #152]	; (8006e30 <HAL_TIM_OC_Start_DMA+0x214>)
 8006d96:	6302      	str	r2, [r0, #48]	; 0x30
 8006d98:	6822      	ldr	r2, [r4, #0]
 8006d9a:	323c      	adds	r2, #60	; 0x3c
 8006d9c:	f7fd f946 	bl	800402c <HAL_DMA_Start_IT>
 8006da0:	2800      	cmp	r0, #0
 8006da2:	f47f af77 	bne.w	8006c94 <HAL_TIM_OC_Start_DMA+0x78>
 8006da6:	6822      	ldr	r2, [r4, #0]
 8006da8:	68d3      	ldr	r3, [r2, #12]
 8006daa:	f443 6300 	orr.w	r3, r3, #2048	; 0x800
 8006dae:	e7af      	b.n	8006d10 <HAL_TIM_OC_Start_DMA+0xf4>
 8006db0:	f884 2041 	strb.w	r2, [r4, #65]	; 0x41
 8006db4:	6b20      	ldr	r0, [r4, #48]	; 0x30
 8006db6:	4a1c      	ldr	r2, [pc, #112]	; (8006e28 <HAL_TIM_OC_Start_DMA+0x20c>)
 8006db8:	6282      	str	r2, [r0, #40]	; 0x28
 8006dba:	4a1c      	ldr	r2, [pc, #112]	; (8006e2c <HAL_TIM_OC_Start_DMA+0x210>)
 8006dbc:	62c2      	str	r2, [r0, #44]	; 0x2c
 8006dbe:	4a1c      	ldr	r2, [pc, #112]	; (8006e30 <HAL_TIM_OC_Start_DMA+0x214>)
 8006dc0:	6302      	str	r2, [r0, #48]	; 0x30
 8006dc2:	6822      	ldr	r2, [r4, #0]
 8006dc4:	3240      	adds	r2, #64	; 0x40
 8006dc6:	f7fd f931 	bl	800402c <HAL_DMA_Start_IT>
 8006dca:	2800      	cmp	r0, #0
 8006dcc:	f47f af62 	bne.w	8006c94 <HAL_TIM_OC_Start_DMA+0x78>
 8006dd0:	6822      	ldr	r2, [r4, #0]
 8006dd2:	68d3      	ldr	r3, [r2, #12]
 8006dd4:	f443 5380 	orr.w	r3, r3, #4096	; 0x1000
 8006dd8:	e79a      	b.n	8006d10 <HAL_TIM_OC_Start_DMA+0xf4>
 8006dda:	2d0c      	cmp	r5, #12
 8006ddc:	d0ea      	beq.n	8006db4 <HAL_TIM_OC_Start_DMA+0x198>
 8006dde:	e759      	b.n	8006c94 <HAL_TIM_OC_Start_DMA+0x78>
 8006de0:	6c43      	ldr	r3, [r0, #68]	; 0x44
 8006de2:	f443 4300 	orr.w	r3, r3, #32768	; 0x8000
 8006de6:	6443      	str	r3, [r0, #68]	; 0x44
 8006de8:	4b12      	ldr	r3, [pc, #72]	; (8006e34 <HAL_TIM_OC_Start_DMA+0x218>)
 8006dea:	4298      	cmp	r0, r3
 8006dec:	d1ad      	bne.n	8006d4a <HAL_TIM_OC_Start_DMA+0x12e>
 8006dee:	e7af      	b.n	8006d50 <HAL_TIM_OC_Start_DMA+0x134>
 8006df0:	4b12      	ldr	r3, [pc, #72]	; (8006e3c <HAL_TIM_OC_Start_DMA+0x220>)
 8006df2:	4298      	cmp	r0, r3
 8006df4:	d0ac      	beq.n	8006d50 <HAL_TIM_OC_Start_DMA+0x134>
 8006df6:	f503 6380 	add.w	r3, r3, #1024	; 0x400
 8006dfa:	4298      	cmp	r0, r3
 8006dfc:	d0a8      	beq.n	8006d50 <HAL_TIM_OC_Start_DMA+0x134>
 8006dfe:	f503 3396 	add.w	r3, r3, #76800	; 0x12c00
 8006e02:	4298      	cmp	r0, r3
 8006e04:	d0a4      	beq.n	8006d50 <HAL_TIM_OC_Start_DMA+0x134>
 8006e06:	f503 6340 	add.w	r3, r3, #3072	; 0xc00
 8006e0a:	4298      	cmp	r0, r3
 8006e0c:	d0a0      	beq.n	8006d50 <HAL_TIM_OC_Start_DMA+0x134>
 8006e0e:	f503 5380 	add.w	r3, r3, #4096	; 0x1000
 8006e12:	4298      	cmp	r0, r3
 8006e14:	d09c      	beq.n	8006d50 <HAL_TIM_OC_Start_DMA+0x134>
 8006e16:	6803      	ldr	r3, [r0, #0]
 8006e18:	f043 0301 	orr.w	r3, r3, #1
 8006e1c:	6003      	str	r3, [r0, #0]
 8006e1e:	e79c      	b.n	8006d5a <HAL_TIM_OC_Start_DMA+0x13e>
 8006e20:	f5b3 3f80 	cmp.w	r3, #65536	; 0x10000
 8006e24:	d1f7      	bne.n	8006e16 <HAL_TIM_OC_Start_DMA+0x1fa>
 8006e26:	e798      	b.n	8006d5a <HAL_TIM_OC_Start_DMA+0x13e>
 8006e28:	08006025 	.word	0x08006025
 8006e2c:	08006091 	.word	0x08006091
 8006e30:	08005fcb 	.word	0x08005fcb
 8006e34:	40012c00 	.word	0x40012c00
 8006e38:	00010007 	.word	0x00010007
 8006e3c:	40000400 	.word	0x40000400

08006e40 <HAL_TIM_PWM_Start_DMA>:
 8006e40:	f7ff beec 	b.w	8006c1c <HAL_TIM_OC_Start_DMA>

08006e44 <TIM_ResetCallback>:
 8006e44:	4b15      	ldr	r3, [pc, #84]	; (8006e9c <TIM_ResetCallback+0x58>)
 8006e46:	f8c0 3084 	str.w	r3, [r0, #132]	; 0x84
 8006e4a:	4b15      	ldr	r3, [pc, #84]	; (8006ea0 <TIM_ResetCallback+0x5c>)
 8006e4c:	f8c0 3088 	str.w	r3, [r0, #136]	; 0x88
 8006e50:	4b14      	ldr	r3, [pc, #80]	; (8006ea4 <TIM_ResetCallback+0x60>)
 8006e52:	f8c0 308c 	str.w	r3, [r0, #140]	; 0x8c
 8006e56:	4b14      	ldr	r3, [pc, #80]	; (8006ea8 <TIM_ResetCallback+0x64>)
 8006e58:	f8c0 3090 	str.w	r3, [r0, #144]	; 0x90
 8006e5c:	4b13      	ldr	r3, [pc, #76]	; (8006eac <TIM_ResetCallback+0x68>)
 8006e5e:	f8c0 3094 	str.w	r3, [r0, #148]	; 0x94
 8006e62:	4b13      	ldr	r3, [pc, #76]	; (8006eb0 <TIM_ResetCallback+0x6c>)
 8006e64:	f8c0 3098 	str.w	r3, [r0, #152]	; 0x98
 8006e68:	4b12      	ldr	r3, [pc, #72]	; (8006eb4 <TIM_ResetCallback+0x70>)
 8006e6a:	f8c0 309c 	str.w	r3, [r0, #156]	; 0x9c
 8006e6e:	4b12      	ldr	r3, [pc, #72]	; (8006eb8 <TIM_ResetCallback+0x74>)
 8006e70:	f8c0 30a0 	str.w	r3, [r0, #160]	; 0xa0
 8006e74:	4b11      	ldr	r3, [pc, #68]	; (8006ebc <TIM_ResetCallback+0x78>)
 8006e76:	f8c0 30a4 	str.w	r3, [r0, #164]	; 0xa4
 8006e7a:	4b11      	ldr	r3, [pc, #68]	; (8006ec0 <TIM_ResetCallback+0x7c>)
 8006e7c:	f8c0 30a8 	str.w	r3, [r0, #168]	; 0xa8
 8006e80:	4b10      	ldr	r3, [pc, #64]	; (8006ec4 <TIM_ResetCallback+0x80>)
 8006e82:	f8c0 30ac 	str.w	r3, [r0, #172]	; 0xac
 8006e86:	4b10      	ldr	r3, [pc, #64]	; (8006ec8 <TIM_ResetCallback+0x84>)
 8006e88:	f8c0 30b0 	str.w	r3, [r0, #176]	; 0xb0
 8006e8c:	4b0f      	ldr	r3, [pc, #60]	; (8006ecc <TIM_ResetCallback+0x88>)
 8006e8e:	f8c0 30b4 	str.w	r3, [r0, #180]	; 0xb4
 8006e92:	4b0f      	ldr	r3, [pc, #60]	; (8006ed0 <TIM_ResetCallback+0x8c>)
 8006e94:	f8c0 30b8 	str.w	r3, [r0, #184]	; 0xb8
 8006e98:	4770      	bx	lr
 8006e9a:	bf00      	nop
 8006e9c:	08002a65 	.word	0x08002a65
 8006ea0:	0800635f 	.word	0x0800635f
 8006ea4:	0800636b 	.word	0x0800636b
 8006ea8:	0800636d 	.word	0x0800636d
 8006eac:	08006363 	.word	0x08006363
 8006eb0:	08006365 	.word	0x08006365
 8006eb4:	08006361 	.word	0x08006361
 8006eb8:	08006367 	.word	0x08006367
 8006ebc:	08006369 	.word	0x08006369
 8006ec0:	0800636f 	.word	0x0800636f
 8006ec4:	080071b5 	.word	0x080071b5
 8006ec8:	080071b7 	.word	0x080071b7
 8006ecc:	080071b9 	.word	0x080071b9
 8006ed0:	080071bb 	.word	0x080071bb

08006ed4 <HAL_TIM_Base_Init>:
 8006ed4:	b510      	push	{r4, lr}
 8006ed6:	4604      	mov	r4, r0
 8006ed8:	b388      	cbz	r0, 8006f3e <HAL_TIM_Base_Init+0x6a>
 8006eda:	f890 303d 	ldrb.w	r3, [r0, #61]	; 0x3d
 8006ede:	f003 02ff 	and.w	r2, r3, #255	; 0xff
 8006ee2:	b953      	cbnz	r3, 8006efa <HAL_TIM_Base_Init+0x26>
 8006ee4:	f880 203c 	strb.w	r2, [r0, #60]	; 0x3c
 8006ee8:	f7ff ffac 	bl	8006e44 <TIM_ResetCallback>
 8006eec:	6cc3      	ldr	r3, [r0, #76]	; 0x4c
 8006eee:	b90b      	cbnz	r3, 8006ef4 <HAL_TIM_Base_Init+0x20>
 8006ef0:	4b14      	ldr	r3, [pc, #80]	; (8006f44 <HAL_TIM_Base_Init+0x70>)
 8006ef2:	64c3      	str	r3, [r0, #76]	; 0x4c
 8006ef4:	6ce3      	ldr	r3, [r4, #76]	; 0x4c
 8006ef6:	4620      	mov	r0, r4
 8006ef8:	4798      	blx	r3
 8006efa:	2302      	movs	r3, #2
 8006efc:	6820      	ldr	r0, [r4, #0]
 8006efe:	f884 303d 	strb.w	r3, [r4, #61]	; 0x3d
 8006f02:	1d21      	adds	r1, r4, #4
 8006f04:	f7ff fb62 	bl	80065cc <TIM_Base_SetConfig>
 8006f08:	2301      	movs	r3, #1
 8006f0a:	f884 3048 	strb.w	r3, [r4, #72]	; 0x48
 8006f0e:	2000      	movs	r0, #0
 8006f10:	f884 303e 	strb.w	r3, [r4, #62]	; 0x3e
 8006f14:	f884 303f 	strb.w	r3, [r4, #63]	; 0x3f
 8006f18:	f884 3040 	strb.w	r3, [r4, #64]	; 0x40
 8006f1c:	f884 3041 	strb.w	r3, [r4, #65]	; 0x41
 8006f20:	f884 3042 	strb.w	r3, [r4, #66]	; 0x42
 8006f24:	f884 3043 	strb.w	r3, [r4, #67]	; 0x43
 8006f28:	f884 3044 	strb.w	r3, [r4, #68]	; 0x44
 8006f2c:	f884 3045 	strb.w	r3, [r4, #69]	; 0x45
 8006f30:	f884 3046 	strb.w	r3, [r4, #70]	; 0x46
 8006f34:	f884 3047 	strb.w	r3, [r4, #71]	; 0x47
 8006f38:	f884 303d 	strb.w	r3, [r4, #61]	; 0x3d
 8006f3c:	bd10      	pop	{r4, pc}
 8006f3e:	2001      	movs	r0, #1
 8006f40:	e7fc      	b.n	8006f3c <HAL_TIM_Base_Init+0x68>
 8006f42:	bf00      	nop
 8006f44:	08002da9 	.word	0x08002da9

08006f48 <HAL_TIM_PWM_Init>:
 8006f48:	b510      	push	{r4, lr}
 8006f4a:	4604      	mov	r4, r0
 8006f4c:	b388      	cbz	r0, 8006fb2 <HAL_TIM_PWM_Init+0x6a>
 8006f4e:	f890 303d 	ldrb.w	r3, [r0, #61]	; 0x3d
 8006f52:	f003 02ff 	and.w	r2, r3, #255	; 0xff
 8006f56:	b953      	cbnz	r3, 8006f6e <HAL_TIM_PWM_Init+0x26>
 8006f58:	f880 203c 	strb.w	r2, [r0, #60]	; 0x3c
 8006f5c:	f7ff ff72 	bl	8006e44 <TIM_ResetCallback>
 8006f60:	6e43      	ldr	r3, [r0, #100]	; 0x64
 8006f62:	b90b      	cbnz	r3, 8006f68 <HAL_TIM_PWM_Init+0x20>
 8006f64:	4b14      	ldr	r3, [pc, #80]	; (8006fb8 <HAL_TIM_PWM_Init+0x70>)
 8006f66:	6643      	str	r3, [r0, #100]	; 0x64
 8006f68:	6e63      	ldr	r3, [r4, #100]	; 0x64
 8006f6a:	4620      	mov	r0, r4
 8006f6c:	4798      	blx	r3
 8006f6e:	2302      	movs	r3, #2
 8006f70:	6820      	ldr	r0, [r4, #0]
 8006f72:	f884 303d 	strb.w	r3, [r4, #61]	; 0x3d
 8006f76:	1d21      	adds	r1, r4, #4
 8006f78:	f7ff fb28 	bl	80065cc <TIM_Base_SetConfig>
 8006f7c:	2301      	movs	r3, #1
 8006f7e:	f884 3048 	strb.w	r3, [r4, #72]	; 0x48
 8006f82:	2000      	movs	r0, #0
 8006f84:	f884 303e 	strb.w	r3, [r4, #62]	; 0x3e
 8006f88:	f884 303f 	strb.w	r3, [r4, #63]	; 0x3f
 8006f8c:	f884 3040 	strb.w	r3, [r4, #64]	; 0x40
 8006f90:	f884 3041 	strb.w	r3, [r4, #65]	; 0x41
 8006f94:	f884 3042 	strb.w	r3, [r4, #66]	; 0x42
 8006f98:	f884 3043 	strb.w	r3, [r4, #67]	; 0x43
 8006f9c:	f884 3044 	strb.w	r3, [r4, #68]	; 0x44
 8006fa0:	f884 3045 	strb.w	r3, [r4, #69]	; 0x45
 8006fa4:	f884 3046 	strb.w	r3, [r4, #70]	; 0x46
 8006fa8:	f884 3047 	strb.w	r3, [r4, #71]	; 0x47
 8006fac:	f884 303d 	strb.w	r3, [r4, #61]	; 0x3d
 8006fb0:	bd10      	pop	{r4, pc}
 8006fb2:	2001      	movs	r0, #1
 8006fb4:	e7fc      	b.n	8006fb0 <HAL_TIM_PWM_Init+0x68>
 8006fb6:	bf00      	nop
 8006fb8:	0800635d 	.word	0x0800635d

08006fbc <TIM_CCxNChannelCmd>:
 8006fbc:	6a03      	ldr	r3, [r0, #32]
 8006fbe:	f001 011f 	and.w	r1, r1, #31
 8006fc2:	b510      	push	{r4, lr}
 8006fc4:	2404      	movs	r4, #4
 8006fc6:	408c      	lsls	r4, r1
 8006fc8:	ea23 0304 	bic.w	r3, r3, r4
 8006fcc:	6203      	str	r3, [r0, #32]
 8006fce:	6a03      	ldr	r3, [r0, #32]
 8006fd0:	408a      	lsls	r2, r1
 8006fd2:	431a      	orrs	r2, r3
 8006fd4:	6202      	str	r2, [r0, #32]
 8006fd6:	bd10      	pop	{r4, pc}

08006fd8 <HAL_TIMEx_OCN_Start>:
 8006fd8:	b508      	push	{r3, lr}
 8006fda:	b929      	cbnz	r1, 8006fe8 <HAL_TIMEx_OCN_Start+0x10>
 8006fdc:	f890 3044 	ldrb.w	r3, [r0, #68]	; 0x44
 8006fe0:	2b01      	cmp	r3, #1
 8006fe2:	d01d      	beq.n	8007020 <HAL_TIMEx_OCN_Start+0x48>
 8006fe4:	2001      	movs	r0, #1
 8006fe6:	bd08      	pop	{r3, pc}
 8006fe8:	2904      	cmp	r1, #4
 8006fea:	d107      	bne.n	8006ffc <HAL_TIMEx_OCN_Start+0x24>
 8006fec:	f890 3045 	ldrb.w	r3, [r0, #69]	; 0x45
 8006ff0:	2b01      	cmp	r3, #1
 8006ff2:	d1f7      	bne.n	8006fe4 <HAL_TIMEx_OCN_Start+0xc>
 8006ff4:	2302      	movs	r3, #2
 8006ff6:	f880 3045 	strb.w	r3, [r0, #69]	; 0x45
 8006ffa:	e014      	b.n	8007026 <HAL_TIMEx_OCN_Start+0x4e>
 8006ffc:	2908      	cmp	r1, #8
 8006ffe:	d107      	bne.n	8007010 <HAL_TIMEx_OCN_Start+0x38>
 8007000:	f890 3046 	ldrb.w	r3, [r0, #70]	; 0x46
 8007004:	2b01      	cmp	r3, #1
 8007006:	d1ed      	bne.n	8006fe4 <HAL_TIMEx_OCN_Start+0xc>
 8007008:	2302      	movs	r3, #2
 800700a:	f880 3046 	strb.w	r3, [r0, #70]	; 0x46
 800700e:	e00a      	b.n	8007026 <HAL_TIMEx_OCN_Start+0x4e>
 8007010:	f890 3047 	ldrb.w	r3, [r0, #71]	; 0x47
 8007014:	2b01      	cmp	r3, #1
 8007016:	d1e5      	bne.n	8006fe4 <HAL_TIMEx_OCN_Start+0xc>
 8007018:	2302      	movs	r3, #2
 800701a:	f880 3047 	strb.w	r3, [r0, #71]	; 0x47
 800701e:	e002      	b.n	8007026 <HAL_TIMEx_OCN_Start+0x4e>
 8007020:	2302      	movs	r3, #2
 8007022:	f880 3044 	strb.w	r3, [r0, #68]	; 0x44
 8007026:	6800      	ldr	r0, [r0, #0]
 8007028:	2204      	movs	r2, #4
 800702a:	f7ff ffc7 	bl	8006fbc <TIM_CCxNChannelCmd>
 800702e:	6c43      	ldr	r3, [r0, #68]	; 0x44
 8007030:	f443 4300 	orr.w	r3, r3, #32768	; 0x8000
 8007034:	6443      	str	r3, [r0, #68]	; 0x44
 8007036:	4b14      	ldr	r3, [pc, #80]	; (8007088 <HAL_TIMEx_OCN_Start+0xb0>)
 8007038:	4298      	cmp	r0, r3
 800703a:	d016      	beq.n	800706a <HAL_TIMEx_OCN_Start+0x92>
 800703c:	f1b0 4f80 	cmp.w	r0, #1073741824	; 0x40000000
 8007040:	d013      	beq.n	800706a <HAL_TIMEx_OCN_Start+0x92>
 8007042:	f5a3 3394 	sub.w	r3, r3, #75776	; 0x12800
 8007046:	4298      	cmp	r0, r3
 8007048:	d00f      	beq.n	800706a <HAL_TIMEx_OCN_Start+0x92>
 800704a:	f503 6380 	add.w	r3, r3, #1024	; 0x400
 800704e:	4298      	cmp	r0, r3
 8007050:	d00b      	beq.n	800706a <HAL_TIMEx_OCN_Start+0x92>
 8007052:	f503 3396 	add.w	r3, r3, #76800	; 0x12c00
 8007056:	4298      	cmp	r0, r3
 8007058:	d007      	beq.n	800706a <HAL_TIMEx_OCN_Start+0x92>
 800705a:	f503 6340 	add.w	r3, r3, #3072	; 0xc00
 800705e:	4298      	cmp	r0, r3
 8007060:	d003      	beq.n	800706a <HAL_TIMEx_OCN_Start+0x92>
 8007062:	f503 5380 	add.w	r3, r3, #4096	; 0x1000
 8007066:	4298      	cmp	r0, r3
 8007068:	d107      	bne.n	800707a <HAL_TIMEx_OCN_Start+0xa2>
 800706a:	6882      	ldr	r2, [r0, #8]
 800706c:	4b07      	ldr	r3, [pc, #28]	; (800708c <HAL_TIMEx_OCN_Start+0xb4>)
 800706e:	4013      	ands	r3, r2
 8007070:	2b06      	cmp	r3, #6
 8007072:	d006      	beq.n	8007082 <HAL_TIMEx_OCN_Start+0xaa>
 8007074:	f5b3 3f80 	cmp.w	r3, #65536	; 0x10000
 8007078:	d003      	beq.n	8007082 <HAL_TIMEx_OCN_Start+0xaa>
 800707a:	6803      	ldr	r3, [r0, #0]
 800707c:	f043 0301 	orr.w	r3, r3, #1
 8007080:	6003      	str	r3, [r0, #0]
 8007082:	2000      	movs	r0, #0
 8007084:	e7af      	b.n	8006fe6 <HAL_TIMEx_OCN_Start+0xe>
 8007086:	bf00      	nop
 8007088:	40012c00 	.word	0x40012c00
 800708c:	00010007 	.word	0x00010007

08007090 <HAL_TIMEx_PWMN_Start>:
 8007090:	f7ff bfa2 	b.w	8006fd8 <HAL_TIMEx_OCN_Start>

08007094 <HAL_TIMEx_MasterConfigSynchronization>:
 8007094:	b530      	push	{r4, r5, lr}
 8007096:	f890 303c 	ldrb.w	r3, [r0, #60]	; 0x3c
 800709a:	2b01      	cmp	r3, #1
 800709c:	f04f 0302 	mov.w	r3, #2
 80070a0:	d03d      	beq.n	800711e <HAL_TIMEx_MasterConfigSynchronization+0x8a>
 80070a2:	f880 303d 	strb.w	r3, [r0, #61]	; 0x3d
 80070a6:	4d1f      	ldr	r5, [pc, #124]	; (8007124 <HAL_TIMEx_MasterConfigSynchronization+0x90>)
 80070a8:	6803      	ldr	r3, [r0, #0]
 80070aa:	42ab      	cmp	r3, r5
 80070ac:	685a      	ldr	r2, [r3, #4]
 80070ae:	689c      	ldr	r4, [r3, #8]
 80070b0:	d007      	beq.n	80070c2 <HAL_TIMEx_MasterConfigSynchronization+0x2e>
 80070b2:	f505 6500 	add.w	r5, r5, #2048	; 0x800
 80070b6:	42ab      	cmp	r3, r5
 80070b8:	d003      	beq.n	80070c2 <HAL_TIMEx_MasterConfigSynchronization+0x2e>
 80070ba:	f505 55e0 	add.w	r5, r5, #7168	; 0x1c00
 80070be:	42ab      	cmp	r3, r5
 80070c0:	d103      	bne.n	80070ca <HAL_TIMEx_MasterConfigSynchronization+0x36>
 80070c2:	684d      	ldr	r5, [r1, #4]
 80070c4:	f422 0270 	bic.w	r2, r2, #15728640	; 0xf00000
 80070c8:	432a      	orrs	r2, r5
 80070ca:	680d      	ldr	r5, [r1, #0]
 80070cc:	f022 0270 	bic.w	r2, r2, #112	; 0x70
 80070d0:	432a      	orrs	r2, r5
 80070d2:	605a      	str	r2, [r3, #4]
 80070d4:	4a13      	ldr	r2, [pc, #76]	; (8007124 <HAL_TIMEx_MasterConfigSynchronization+0x90>)
 80070d6:	4293      	cmp	r3, r2
 80070d8:	d016      	beq.n	8007108 <HAL_TIMEx_MasterConfigSynchronization+0x74>
 80070da:	f1b3 4f80 	cmp.w	r3, #1073741824	; 0x40000000
 80070de:	d013      	beq.n	8007108 <HAL_TIMEx_MasterConfigSynchronization+0x74>
 80070e0:	f5a2 3294 	sub.w	r2, r2, #75776	; 0x12800
 80070e4:	4293      	cmp	r3, r2
 80070e6:	d00f      	beq.n	8007108 <HAL_TIMEx_MasterConfigSynchronization+0x74>
 80070e8:	f502 6280 	add.w	r2, r2, #1024	; 0x400
 80070ec:	4293      	cmp	r3, r2
 80070ee:	d00b      	beq.n	8007108 <HAL_TIMEx_MasterConfigSynchronization+0x74>
 80070f0:	f502 3296 	add.w	r2, r2, #76800	; 0x12c00
 80070f4:	4293      	cmp	r3, r2
 80070f6:	d007      	beq.n	8007108 <HAL_TIMEx_MasterConfigSynchronization+0x74>
 80070f8:	f502 6240 	add.w	r2, r2, #3072	; 0xc00
 80070fc:	4293      	cmp	r3, r2
 80070fe:	d003      	beq.n	8007108 <HAL_TIMEx_MasterConfigSynchronization+0x74>
 8007100:	f502 5280 	add.w	r2, r2, #4096	; 0x1000
 8007104:	4293      	cmp	r3, r2
 8007106:	d104      	bne.n	8007112 <HAL_TIMEx_MasterConfigSynchronization+0x7e>
 8007108:	6889      	ldr	r1, [r1, #8]
 800710a:	f024 0280 	bic.w	r2, r4, #128	; 0x80
 800710e:	430a      	orrs	r2, r1
 8007110:	609a      	str	r2, [r3, #8]
 8007112:	2301      	movs	r3, #1
 8007114:	f880 303d 	strb.w	r3, [r0, #61]	; 0x3d
 8007118:	2300      	movs	r3, #0
 800711a:	f880 303c 	strb.w	r3, [r0, #60]	; 0x3c
 800711e:	4618      	mov	r0, r3
 8007120:	bd30      	pop	{r4, r5, pc}
 8007122:	bf00      	nop
 8007124:	40012c00 	.word	0x40012c00

08007128 <HAL_TIMEx_ConfigBreakDeadTime>:
 8007128:	b510      	push	{r4, lr}
 800712a:	f890 303c 	ldrb.w	r3, [r0, #60]	; 0x3c
 800712e:	2b01      	cmp	r3, #1
 8007130:	d03c      	beq.n	80071ac <HAL_TIMEx_ConfigBreakDeadTime+0x84>
 8007132:	68cb      	ldr	r3, [r1, #12]
 8007134:	688a      	ldr	r2, [r1, #8]
 8007136:	4c1e      	ldr	r4, [pc, #120]	; (80071b0 <HAL_TIMEx_ConfigBreakDeadTime+0x88>)
 8007138:	f423 7340 	bic.w	r3, r3, #768	; 0x300
 800713c:	4313      	orrs	r3, r2
 800713e:	684a      	ldr	r2, [r1, #4]
 8007140:	f423 6380 	bic.w	r3, r3, #1024	; 0x400
 8007144:	4313      	orrs	r3, r2
 8007146:	680a      	ldr	r2, [r1, #0]
 8007148:	f423 6300 	bic.w	r3, r3, #2048	; 0x800
 800714c:	4313      	orrs	r3, r2
 800714e:	690a      	ldr	r2, [r1, #16]
 8007150:	f423 5380 	bic.w	r3, r3, #4096	; 0x1000
 8007154:	4313      	orrs	r3, r2
 8007156:	694a      	ldr	r2, [r1, #20]
 8007158:	f423 5300 	bic.w	r3, r3, #8192	; 0x2000
 800715c:	4313      	orrs	r3, r2
 800715e:	6a8a      	ldr	r2, [r1, #40]	; 0x28
 8007160:	f423 4380 	bic.w	r3, r3, #16384	; 0x4000
 8007164:	4313      	orrs	r3, r2
 8007166:	698a      	ldr	r2, [r1, #24]
 8007168:	f423 2370 	bic.w	r3, r3, #983040	; 0xf0000
 800716c:	ea43 4302 	orr.w	r3, r3, r2, lsl #16
 8007170:	6802      	ldr	r2, [r0, #0]
 8007172:	42a2      	cmp	r2, r4
 8007174:	d007      	beq.n	8007186 <HAL_TIMEx_ConfigBreakDeadTime+0x5e>
 8007176:	f504 6400 	add.w	r4, r4, #2048	; 0x800
 800717a:	42a2      	cmp	r2, r4
 800717c:	d003      	beq.n	8007186 <HAL_TIMEx_ConfigBreakDeadTime+0x5e>
 800717e:	f504 54e0 	add.w	r4, r4, #7168	; 0x1c00
 8007182:	42a2      	cmp	r2, r4
 8007184:	d10c      	bne.n	80071a0 <HAL_TIMEx_ConfigBreakDeadTime+0x78>
 8007186:	6a4c      	ldr	r4, [r1, #36]	; 0x24
 8007188:	f423 0370 	bic.w	r3, r3, #15728640	; 0xf00000
 800718c:	ea43 5304 	orr.w	r3, r3, r4, lsl #20
 8007190:	69cc      	ldr	r4, [r1, #28]
 8007192:	6a09      	ldr	r1, [r1, #32]
 8007194:	f023 7380 	bic.w	r3, r3, #16777216	; 0x1000000
 8007198:	4323      	orrs	r3, r4
 800719a:	f023 7300 	bic.w	r3, r3, #33554432	; 0x2000000
 800719e:	430b      	orrs	r3, r1
 80071a0:	6453      	str	r3, [r2, #68]	; 0x44
 80071a2:	2300      	movs	r3, #0
 80071a4:	f880 303c 	strb.w	r3, [r0, #60]	; 0x3c
 80071a8:	4618      	mov	r0, r3
 80071aa:	bd10      	pop	{r4, pc}
 80071ac:	2002      	movs	r0, #2
 80071ae:	e7fc      	b.n	80071aa <HAL_TIMEx_ConfigBreakDeadTime+0x82>
 80071b0:	40012c00 	.word	0x40012c00

080071b4 <HAL_TIMEx_CommutCallback>:
 80071b4:	4770      	bx	lr

080071b6 <HAL_TIMEx_CommutHalfCpltCallback>:
 80071b6:	4770      	bx	lr

080071b8 <HAL_TIMEx_BreakCallback>:
 80071b8:	4770      	bx	lr

080071ba <HAL_TIMEx_Break2Callback>:
 80071ba:	4770      	bx	lr

080071bc <UART_EndRxTransfer>:
 80071bc:	6802      	ldr	r2, [r0, #0]
 80071be:	e852 3f00 	ldrex	r3, [r2]
 80071c2:	f423 7390 	bic.w	r3, r3, #288	; 0x120
 80071c6:	e842 3100 	strex	r1, r3, [r2]
 80071ca:	6802      	ldr	r2, [r0, #0]
 80071cc:	2900      	cmp	r1, #0
 80071ce:	d1f5      	bne.n	80071bc <UART_EndRxTransfer>
 80071d0:	f102 0308 	add.w	r3, r2, #8
 80071d4:	e853 3f00 	ldrex	r3, [r3]
 80071d8:	f023 0301 	bic.w	r3, r3, #1
 80071dc:	f102 0c08 	add.w	ip, r2, #8
 80071e0:	e84c 3100 	strex	r1, r3, [ip]
 80071e4:	2900      	cmp	r1, #0
 80071e6:	d1f3      	bne.n	80071d0 <UART_EndRxTransfer+0x14>
 80071e8:	6e03      	ldr	r3, [r0, #96]	; 0x60
 80071ea:	2b01      	cmp	r3, #1
 80071ec:	d107      	bne.n	80071fe <UART_EndRxTransfer+0x42>
 80071ee:	e852 3f00 	ldrex	r3, [r2]
 80071f2:	f023 0310 	bic.w	r3, r3, #16
 80071f6:	e842 3100 	strex	r1, r3, [r2]
 80071fa:	2900      	cmp	r1, #0
 80071fc:	d1f7      	bne.n	80071ee <UART_EndRxTransfer+0x32>
 80071fe:	2320      	movs	r3, #32
 8007200:	f8c0 3080 	str.w	r3, [r0, #128]	; 0x80
 8007204:	2300      	movs	r3, #0
 8007206:	6603      	str	r3, [r0, #96]	; 0x60
 8007208:	6683      	str	r3, [r0, #104]	; 0x68
 800720a:	4770      	bx	lr

0800720c <UART_SetConfig>:
 800720c:	b538      	push	{r3, r4, r5, lr}
 800720e:	4604      	mov	r4, r0
 8007210:	69c0      	ldr	r0, [r0, #28]
 8007212:	6921      	ldr	r1, [r4, #16]
 8007214:	68a2      	ldr	r2, [r4, #8]
 8007216:	6823      	ldr	r3, [r4, #0]
 8007218:	430a      	orrs	r2, r1
 800721a:	6961      	ldr	r1, [r4, #20]
 800721c:	681d      	ldr	r5, [r3, #0]
 800721e:	430a      	orrs	r2, r1
 8007220:	4972      	ldr	r1, [pc, #456]	; (80073ec <UART_SetConfig+0x1e0>)
 8007222:	4302      	orrs	r2, r0
 8007224:	4029      	ands	r1, r5
 8007226:	430a      	orrs	r2, r1
 8007228:	601a      	str	r2, [r3, #0]
 800722a:	685a      	ldr	r2, [r3, #4]
 800722c:	68e1      	ldr	r1, [r4, #12]
 800722e:	6a25      	ldr	r5, [r4, #32]
 8007230:	f422 5240 	bic.w	r2, r2, #12288	; 0x3000
 8007234:	430a      	orrs	r2, r1
 8007236:	605a      	str	r2, [r3, #4]
 8007238:	6899      	ldr	r1, [r3, #8]
 800723a:	69a2      	ldr	r2, [r4, #24]
 800723c:	f421 6130 	bic.w	r1, r1, #2816	; 0xb00
 8007240:	432a      	orrs	r2, r5
 8007242:	430a      	orrs	r2, r1
 8007244:	609a      	str	r2, [r3, #8]
 8007246:	4a6a      	ldr	r2, [pc, #424]	; (80073f0 <UART_SetConfig+0x1e4>)
 8007248:	4293      	cmp	r3, r2
 800724a:	d115      	bne.n	8007278 <UART_SetConfig+0x6c>
 800724c:	4b69      	ldr	r3, [pc, #420]	; (80073f4 <UART_SetConfig+0x1e8>)
 800724e:	6b1b      	ldr	r3, [r3, #48]	; 0x30
 8007250:	f003 0303 	and.w	r3, r3, #3
 8007254:	3b01      	subs	r3, #1
 8007256:	2b02      	cmp	r3, #2
 8007258:	f200 80a0 	bhi.w	800739c <UART_SetConfig+0x190>
 800725c:	4a66      	ldr	r2, [pc, #408]	; (80073f8 <UART_SetConfig+0x1ec>)
 800725e:	f5b0 4f00 	cmp.w	r0, #32768	; 0x8000
 8007262:	5cd3      	ldrb	r3, [r2, r3]
 8007264:	d17c      	bne.n	8007360 <UART_SetConfig+0x154>
 8007266:	2b08      	cmp	r3, #8
 8007268:	d819      	bhi.n	800729e <UART_SetConfig+0x92>
 800726a:	e8df f003 	tbb	[pc, r3]
 800726e:	9a5b      	.short	0x9a5b
 8007270:	18a61863 	.word	0x18a61863
 8007274:	1818      	.short	0x1818
 8007276:	64          	.byte	0x64
 8007277:	00          	.byte	0x00
 8007278:	4a60      	ldr	r2, [pc, #384]	; (80073fc <UART_SetConfig+0x1f0>)
 800727a:	4293      	cmp	r3, r2
 800727c:	d119      	bne.n	80072b2 <UART_SetConfig+0xa6>
 800727e:	4b5d      	ldr	r3, [pc, #372]	; (80073f4 <UART_SetConfig+0x1e8>)
 8007280:	6b1b      	ldr	r3, [r3, #48]	; 0x30
 8007282:	f403 3340 	and.w	r3, r3, #196608	; 0x30000
 8007286:	f5b3 3f00 	cmp.w	r3, #131072	; 0x20000
 800728a:	f000 808d 	beq.w	80073a8 <UART_SetConfig+0x19c>
 800728e:	d808      	bhi.n	80072a2 <UART_SetConfig+0x96>
 8007290:	2b00      	cmp	r3, #0
 8007292:	f000 8095 	beq.w	80073c0 <UART_SetConfig+0x1b4>
 8007296:	f5b3 3f80 	cmp.w	r3, #65536	; 0x10000
 800729a:	f000 808b 	beq.w	80073b4 <UART_SetConfig+0x1a8>
 800729e:	2001      	movs	r0, #1
 80072a0:	e044      	b.n	800732c <UART_SetConfig+0x120>
 80072a2:	f5b3 3f40 	cmp.w	r3, #196608	; 0x30000
 80072a6:	d1fa      	bne.n	800729e <UART_SetConfig+0x92>
 80072a8:	f5b0 4f00 	cmp.w	r0, #32768	; 0x8000
 80072ac:	d042      	beq.n	8007334 <UART_SetConfig+0x128>
 80072ae:	4854      	ldr	r0, [pc, #336]	; (8007400 <UART_SetConfig+0x1f4>)
 80072b0:	e08d      	b.n	80073ce <UART_SetConfig+0x1c2>
 80072b2:	4a54      	ldr	r2, [pc, #336]	; (8007404 <UART_SetConfig+0x1f8>)
 80072b4:	4293      	cmp	r3, r2
 80072b6:	d10f      	bne.n	80072d8 <UART_SetConfig+0xcc>
 80072b8:	4b4e      	ldr	r3, [pc, #312]	; (80073f4 <UART_SetConfig+0x1e8>)
 80072ba:	6b1b      	ldr	r3, [r3, #48]	; 0x30
 80072bc:	f403 2340 	and.w	r3, r3, #786432	; 0xc0000
 80072c0:	f5b3 2f00 	cmp.w	r3, #524288	; 0x80000
 80072c4:	d070      	beq.n	80073a8 <UART_SetConfig+0x19c>
 80072c6:	d804      	bhi.n	80072d2 <UART_SetConfig+0xc6>
 80072c8:	2b00      	cmp	r3, #0
 80072ca:	d079      	beq.n	80073c0 <UART_SetConfig+0x1b4>
 80072cc:	f5b3 2f80 	cmp.w	r3, #262144	; 0x40000
 80072d0:	e7e3      	b.n	800729a <UART_SetConfig+0x8e>
 80072d2:	f5b3 2f40 	cmp.w	r3, #786432	; 0xc0000
 80072d6:	e7e6      	b.n	80072a6 <UART_SetConfig+0x9a>
 80072d8:	4a4b      	ldr	r2, [pc, #300]	; (8007408 <UART_SetConfig+0x1fc>)
 80072da:	4293      	cmp	r3, r2
 80072dc:	d10f      	bne.n	80072fe <UART_SetConfig+0xf2>
 80072de:	4b45      	ldr	r3, [pc, #276]	; (80073f4 <UART_SetConfig+0x1e8>)
 80072e0:	6b1b      	ldr	r3, [r3, #48]	; 0x30
 80072e2:	f403 1340 	and.w	r3, r3, #3145728	; 0x300000
 80072e6:	f5b3 1f00 	cmp.w	r3, #2097152	; 0x200000
 80072ea:	d05d      	beq.n	80073a8 <UART_SetConfig+0x19c>
 80072ec:	d804      	bhi.n	80072f8 <UART_SetConfig+0xec>
 80072ee:	2b00      	cmp	r3, #0
 80072f0:	d066      	beq.n	80073c0 <UART_SetConfig+0x1b4>
 80072f2:	f5b3 1f80 	cmp.w	r3, #1048576	; 0x100000
 80072f6:	e7d0      	b.n	800729a <UART_SetConfig+0x8e>
 80072f8:	f5b3 1f40 	cmp.w	r3, #3145728	; 0x300000
 80072fc:	e7d3      	b.n	80072a6 <UART_SetConfig+0x9a>
 80072fe:	4a43      	ldr	r2, [pc, #268]	; (800740c <UART_SetConfig+0x200>)
 8007300:	4293      	cmp	r3, r2
 8007302:	d1cc      	bne.n	800729e <UART_SetConfig+0x92>
 8007304:	4b3b      	ldr	r3, [pc, #236]	; (80073f4 <UART_SetConfig+0x1e8>)
 8007306:	6b1b      	ldr	r3, [r3, #48]	; 0x30
 8007308:	f403 0340 	and.w	r3, r3, #12582912	; 0xc00000
 800730c:	f5b3 0f00 	cmp.w	r3, #8388608	; 0x800000
 8007310:	d04a      	beq.n	80073a8 <UART_SetConfig+0x19c>
 8007312:	d804      	bhi.n	800731e <UART_SetConfig+0x112>
 8007314:	2b00      	cmp	r3, #0
 8007316:	d053      	beq.n	80073c0 <UART_SetConfig+0x1b4>
 8007318:	f5b3 0f80 	cmp.w	r3, #4194304	; 0x400000
 800731c:	e7bd      	b.n	800729a <UART_SetConfig+0x8e>
 800731e:	f5b3 0f40 	cmp.w	r3, #12582912	; 0xc00000
 8007322:	e7c0      	b.n	80072a6 <UART_SetConfig+0x9a>
 8007324:	f7fe f9a2 	bl	800566c <HAL_RCC_GetPCLK1Freq>
 8007328:	b928      	cbnz	r0, 8007336 <UART_SetConfig+0x12a>
 800732a:	2000      	movs	r0, #0
 800732c:	2300      	movs	r3, #0
 800732e:	e9c4 331a 	strd	r3, r3, [r4, #104]	; 0x68
 8007332:	bd38      	pop	{r3, r4, r5, pc}
 8007334:	4832      	ldr	r0, [pc, #200]	; (8007400 <UART_SetConfig+0x1f4>)
 8007336:	6862      	ldr	r2, [r4, #4]
 8007338:	0853      	lsrs	r3, r2, #1
 800733a:	eb03 0340 	add.w	r3, r3, r0, lsl #1
 800733e:	fbb3 f3f2 	udiv	r3, r3, r2
 8007342:	f64f 72ef 	movw	r2, #65519	; 0xffef
 8007346:	f1a3 0110 	sub.w	r1, r3, #16
 800734a:	4291      	cmp	r1, r2
 800734c:	d8a7      	bhi.n	800729e <UART_SetConfig+0x92>
 800734e:	f023 020f 	bic.w	r2, r3, #15
 8007352:	6821      	ldr	r1, [r4, #0]
 8007354:	b292      	uxth	r2, r2
 8007356:	f3c3 0342 	ubfx	r3, r3, #1, #3
 800735a:	4313      	orrs	r3, r2
 800735c:	60cb      	str	r3, [r1, #12]
 800735e:	e7e4      	b.n	800732a <UART_SetConfig+0x11e>
 8007360:	2b08      	cmp	r3, #8
 8007362:	d89c      	bhi.n	800729e <UART_SetConfig+0x92>
 8007364:	a201      	add	r2, pc, #4	; (adr r2, 800736c <UART_SetConfig+0x160>)
 8007366:	f852 f023 	ldr.w	pc, [r2, r3, lsl #2]
 800736a:	bf00      	nop
 800736c:	080073c7 	.word	0x080073c7
 8007370:	08007391 	.word	0x08007391
 8007374:	080072af 	.word	0x080072af
 8007378:	0800729f 	.word	0x0800729f
 800737c:	08007397 	.word	0x08007397
 8007380:	0800729f 	.word	0x0800729f
 8007384:	0800729f 	.word	0x0800729f
 8007388:	0800729f 	.word	0x0800729f
 800738c:	080073af 	.word	0x080073af
 8007390:	f7fe f984 	bl	800569c <HAL_RCC_GetPCLK2Freq>
 8007394:	e019      	b.n	80073ca <UART_SetConfig+0x1be>
 8007396:	f7fe f895 	bl	80054c4 <HAL_RCC_GetSysClockFreq>
 800739a:	e016      	b.n	80073ca <UART_SetConfig+0x1be>
 800739c:	f5b0 4f00 	cmp.w	r0, #32768	; 0x8000
 80073a0:	d1f6      	bne.n	8007390 <UART_SetConfig+0x184>
 80073a2:	f7fe f97b 	bl	800569c <HAL_RCC_GetPCLK2Freq>
 80073a6:	e7bf      	b.n	8007328 <UART_SetConfig+0x11c>
 80073a8:	f5b0 4f00 	cmp.w	r0, #32768	; 0x8000
 80073ac:	d0c3      	beq.n	8007336 <UART_SetConfig+0x12a>
 80073ae:	f44f 4000 	mov.w	r0, #32768	; 0x8000
 80073b2:	e00c      	b.n	80073ce <UART_SetConfig+0x1c2>
 80073b4:	f5b0 4f00 	cmp.w	r0, #32768	; 0x8000
 80073b8:	d1ed      	bne.n	8007396 <UART_SetConfig+0x18a>
 80073ba:	f7fe f883 	bl	80054c4 <HAL_RCC_GetSysClockFreq>
 80073be:	e7b3      	b.n	8007328 <UART_SetConfig+0x11c>
 80073c0:	f5b0 4f00 	cmp.w	r0, #32768	; 0x8000
 80073c4:	d0ae      	beq.n	8007324 <UART_SetConfig+0x118>
 80073c6:	f7fe f951 	bl	800566c <HAL_RCC_GetPCLK1Freq>
 80073ca:	2800      	cmp	r0, #0
 80073cc:	d0ad      	beq.n	800732a <UART_SetConfig+0x11e>
 80073ce:	6862      	ldr	r2, [r4, #4]
 80073d0:	eb00 0352 	add.w	r3, r0, r2, lsr #1
 80073d4:	fbb3 f3f2 	udiv	r3, r3, r2
 80073d8:	f64f 72ef 	movw	r2, #65519	; 0xffef
 80073dc:	f1a3 0110 	sub.w	r1, r3, #16
 80073e0:	4291      	cmp	r1, r2
 80073e2:	f63f af5c 	bhi.w	800729e <UART_SetConfig+0x92>
 80073e6:	6822      	ldr	r2, [r4, #0]
 80073e8:	60d3      	str	r3, [r2, #12]
 80073ea:	e79e      	b.n	800732a <UART_SetConfig+0x11e>
 80073ec:	efff69f3 	.word	0xefff69f3
 80073f0:	40013800 	.word	0x40013800
 80073f4:	40021000 	.word	0x40021000
 80073f8:	0800f58c 	.word	0x0800f58c
 80073fc:	40004400 	.word	0x40004400
 8007400:	007a1200 	.word	0x007a1200
 8007404:	40004800 	.word	0x40004800
 8007408:	40004c00 	.word	0x40004c00
 800740c:	40005000 	.word	0x40005000

08007410 <UART_AdvFeatureConfig>:
 8007410:	6a43      	ldr	r3, [r0, #36]	; 0x24
 8007412:	07da      	lsls	r2, r3, #31
 8007414:	b510      	push	{r4, lr}
 8007416:	d506      	bpl.n	8007426 <UART_AdvFeatureConfig+0x16>
 8007418:	6801      	ldr	r1, [r0, #0]
 800741a:	6a84      	ldr	r4, [r0, #40]	; 0x28
 800741c:	684a      	ldr	r2, [r1, #4]
 800741e:	f422 3200 	bic.w	r2, r2, #131072	; 0x20000
 8007422:	4322      	orrs	r2, r4
 8007424:	604a      	str	r2, [r1, #4]
 8007426:	079c      	lsls	r4, r3, #30
 8007428:	d506      	bpl.n	8007438 <UART_AdvFeatureConfig+0x28>
 800742a:	6801      	ldr	r1, [r0, #0]
 800742c:	6ac4      	ldr	r4, [r0, #44]	; 0x2c
 800742e:	684a      	ldr	r2, [r1, #4]
 8007430:	f422 3280 	bic.w	r2, r2, #65536	; 0x10000
 8007434:	4322      	orrs	r2, r4
 8007436:	604a      	str	r2, [r1, #4]
 8007438:	0759      	lsls	r1, r3, #29
 800743a:	d506      	bpl.n	800744a <UART_AdvFeatureConfig+0x3a>
 800743c:	6801      	ldr	r1, [r0, #0]
 800743e:	6b04      	ldr	r4, [r0, #48]	; 0x30
 8007440:	684a      	ldr	r2, [r1, #4]
 8007442:	f422 2280 	bic.w	r2, r2, #262144	; 0x40000
 8007446:	4322      	orrs	r2, r4
 8007448:	604a      	str	r2, [r1, #4]
 800744a:	071a      	lsls	r2, r3, #28
 800744c:	d506      	bpl.n	800745c <UART_AdvFeatureConfig+0x4c>
 800744e:	6801      	ldr	r1, [r0, #0]
 8007450:	6b44      	ldr	r4, [r0, #52]	; 0x34
 8007452:	684a      	ldr	r2, [r1, #4]
 8007454:	f422 4200 	bic.w	r2, r2, #32768	; 0x8000
 8007458:	4322      	orrs	r2, r4
 800745a:	604a      	str	r2, [r1, #4]
 800745c:	06dc      	lsls	r4, r3, #27
 800745e:	d506      	bpl.n	800746e <UART_AdvFeatureConfig+0x5e>
 8007460:	6801      	ldr	r1, [r0, #0]
 8007462:	6b84      	ldr	r4, [r0, #56]	; 0x38
 8007464:	688a      	ldr	r2, [r1, #8]
 8007466:	f422 5280 	bic.w	r2, r2, #4096	; 0x1000
 800746a:	4322      	orrs	r2, r4
 800746c:	608a      	str	r2, [r1, #8]
 800746e:	0699      	lsls	r1, r3, #26
 8007470:	d506      	bpl.n	8007480 <UART_AdvFeatureConfig+0x70>
 8007472:	6801      	ldr	r1, [r0, #0]
 8007474:	6bc4      	ldr	r4, [r0, #60]	; 0x3c
 8007476:	688a      	ldr	r2, [r1, #8]
 8007478:	f422 5200 	bic.w	r2, r2, #8192	; 0x2000
 800747c:	4322      	orrs	r2, r4
 800747e:	608a      	str	r2, [r1, #8]
 8007480:	065a      	lsls	r2, r3, #25
 8007482:	d50f      	bpl.n	80074a4 <UART_AdvFeatureConfig+0x94>
 8007484:	6801      	ldr	r1, [r0, #0]
 8007486:	6c04      	ldr	r4, [r0, #64]	; 0x40
 8007488:	684a      	ldr	r2, [r1, #4]
 800748a:	f422 1280 	bic.w	r2, r2, #1048576	; 0x100000
 800748e:	4322      	orrs	r2, r4
 8007490:	f5b4 1f80 	cmp.w	r4, #1048576	; 0x100000
 8007494:	604a      	str	r2, [r1, #4]
 8007496:	d105      	bne.n	80074a4 <UART_AdvFeatureConfig+0x94>
 8007498:	684a      	ldr	r2, [r1, #4]
 800749a:	6c44      	ldr	r4, [r0, #68]	; 0x44
 800749c:	f422 02c0 	bic.w	r2, r2, #6291456	; 0x600000
 80074a0:	4322      	orrs	r2, r4
 80074a2:	604a      	str	r2, [r1, #4]
 80074a4:	061b      	lsls	r3, r3, #24
 80074a6:	d506      	bpl.n	80074b6 <UART_AdvFeatureConfig+0xa6>
 80074a8:	6802      	ldr	r2, [r0, #0]
 80074aa:	6c81      	ldr	r1, [r0, #72]	; 0x48
 80074ac:	6853      	ldr	r3, [r2, #4]
 80074ae:	f423 2300 	bic.w	r3, r3, #524288	; 0x80000
 80074b2:	430b      	orrs	r3, r1
 80074b4:	6053      	str	r3, [r2, #4]
 80074b6:	bd10      	pop	{r4, pc}

080074b8 <UART_WaitOnFlagUntilTimeout>:
 80074b8:	e92d 43f8 	stmdb	sp!, {r3, r4, r5, r6, r7, r8, r9, lr}
 80074bc:	f8dd 9020 	ldr.w	r9, [sp, #32]
 80074c0:	4604      	mov	r4, r0
 80074c2:	460f      	mov	r7, r1
 80074c4:	4616      	mov	r6, r2
 80074c6:	4698      	mov	r8, r3
 80074c8:	6822      	ldr	r2, [r4, #0]
 80074ca:	69d3      	ldr	r3, [r2, #28]
 80074cc:	ea37 0303 	bics.w	r3, r7, r3
 80074d0:	bf0c      	ite	eq
 80074d2:	2301      	moveq	r3, #1
 80074d4:	2300      	movne	r3, #0
 80074d6:	42b3      	cmp	r3, r6
 80074d8:	d001      	beq.n	80074de <UART_WaitOnFlagUntilTimeout+0x26>
 80074da:	2000      	movs	r0, #0
 80074dc:	e01e      	b.n	800751c <UART_WaitOnFlagUntilTimeout+0x64>
 80074de:	f1b9 3fff 	cmp.w	r9, #4294967295
 80074e2:	d0f2      	beq.n	80074ca <UART_WaitOnFlagUntilTimeout+0x12>
 80074e4:	f7fb fede 	bl	80032a4 <HAL_GetTick>
 80074e8:	eba0 0008 	sub.w	r0, r0, r8
 80074ec:	4548      	cmp	r0, r9
 80074ee:	d825      	bhi.n	800753c <UART_WaitOnFlagUntilTimeout+0x84>
 80074f0:	f1b9 0f00 	cmp.w	r9, #0
 80074f4:	d022      	beq.n	800753c <UART_WaitOnFlagUntilTimeout+0x84>
 80074f6:	6820      	ldr	r0, [r4, #0]
 80074f8:	6803      	ldr	r3, [r0, #0]
 80074fa:	075a      	lsls	r2, r3, #29
 80074fc:	d5e4      	bpl.n	80074c8 <UART_WaitOnFlagUntilTimeout+0x10>
 80074fe:	69c5      	ldr	r5, [r0, #28]
 8007500:	f015 0508 	ands.w	r5, r5, #8
 8007504:	d00c      	beq.n	8007520 <UART_WaitOnFlagUntilTimeout+0x68>
 8007506:	2508      	movs	r5, #8
 8007508:	6205      	str	r5, [r0, #32]
 800750a:	4620      	mov	r0, r4
 800750c:	f7ff fe56 	bl	80071bc <UART_EndRxTransfer>
 8007510:	2300      	movs	r3, #0
 8007512:	f8c4 5084 	str.w	r5, [r4, #132]	; 0x84
 8007516:	f884 3078 	strb.w	r3, [r4, #120]	; 0x78
 800751a:	2001      	movs	r0, #1
 800751c:	e8bd 83f8 	ldmia.w	sp!, {r3, r4, r5, r6, r7, r8, r9, pc}
 8007520:	69c3      	ldr	r3, [r0, #28]
 8007522:	051b      	lsls	r3, r3, #20
 8007524:	d5d0      	bpl.n	80074c8 <UART_WaitOnFlagUntilTimeout+0x10>
 8007526:	f44f 6300 	mov.w	r3, #2048	; 0x800
 800752a:	6203      	str	r3, [r0, #32]
 800752c:	4620      	mov	r0, r4
 800752e:	f7ff fe45 	bl	80071bc <UART_EndRxTransfer>
 8007532:	2320      	movs	r3, #32
 8007534:	f8c4 3084 	str.w	r3, [r4, #132]	; 0x84
 8007538:	f884 5078 	strb.w	r5, [r4, #120]	; 0x78
 800753c:	2003      	movs	r0, #3
 800753e:	e7ed      	b.n	800751c <UART_WaitOnFlagUntilTimeout+0x64>

08007540 <UART_CheckIdleState>:
 8007540:	b530      	push	{r4, r5, lr}
 8007542:	4604      	mov	r4, r0
 8007544:	2500      	movs	r5, #0
 8007546:	b085      	sub	sp, #20
 8007548:	f8c0 5084 	str.w	r5, [r0, #132]	; 0x84
 800754c:	f7fb feaa 	bl	80032a4 <HAL_GetTick>
 8007550:	6822      	ldr	r2, [r4, #0]
 8007552:	6812      	ldr	r2, [r2, #0]
 8007554:	0711      	lsls	r1, r2, #28
 8007556:	4603      	mov	r3, r0
 8007558:	d51c      	bpl.n	8007594 <UART_CheckIdleState+0x54>
 800755a:	f06f 427e 	mvn.w	r2, #4261412864	; 0xfe000000
 800755e:	9200      	str	r2, [sp, #0]
 8007560:	9003      	str	r0, [sp, #12]
 8007562:	462a      	mov	r2, r5
 8007564:	f44f 1100 	mov.w	r1, #2097152	; 0x200000
 8007568:	4620      	mov	r0, r4
 800756a:	f7ff ffa5 	bl	80074b8 <UART_WaitOnFlagUntilTimeout>
 800756e:	9b03      	ldr	r3, [sp, #12]
 8007570:	b180      	cbz	r0, 8007594 <UART_CheckIdleState+0x54>
 8007572:	6822      	ldr	r2, [r4, #0]
 8007574:	e852 3f00 	ldrex	r3, [r2]
 8007578:	f023 0380 	bic.w	r3, r3, #128	; 0x80
 800757c:	e842 3100 	strex	r1, r3, [r2]
 8007580:	2900      	cmp	r1, #0
 8007582:	d1f6      	bne.n	8007572 <UART_CheckIdleState+0x32>
 8007584:	2320      	movs	r3, #32
 8007586:	67e3      	str	r3, [r4, #124]	; 0x7c
 8007588:	2003      	movs	r0, #3
 800758a:	2300      	movs	r3, #0
 800758c:	f884 3078 	strb.w	r3, [r4, #120]	; 0x78
 8007590:	b005      	add	sp, #20
 8007592:	bd30      	pop	{r4, r5, pc}
 8007594:	6822      	ldr	r2, [r4, #0]
 8007596:	6812      	ldr	r2, [r2, #0]
 8007598:	0752      	lsls	r2, r2, #29
 800759a:	d523      	bpl.n	80075e4 <UART_CheckIdleState+0xa4>
 800759c:	f06f 427e 	mvn.w	r2, #4261412864	; 0xfe000000
 80075a0:	9200      	str	r2, [sp, #0]
 80075a2:	f44f 0180 	mov.w	r1, #4194304	; 0x400000
 80075a6:	2200      	movs	r2, #0
 80075a8:	4620      	mov	r0, r4
 80075aa:	f7ff ff85 	bl	80074b8 <UART_WaitOnFlagUntilTimeout>
 80075ae:	b1c8      	cbz	r0, 80075e4 <UART_CheckIdleState+0xa4>
 80075b0:	6822      	ldr	r2, [r4, #0]
 80075b2:	e852 3f00 	ldrex	r3, [r2]
 80075b6:	f423 7390 	bic.w	r3, r3, #288	; 0x120
 80075ba:	e842 3100 	strex	r1, r3, [r2]
 80075be:	6822      	ldr	r2, [r4, #0]
 80075c0:	2900      	cmp	r1, #0
 80075c2:	d1f5      	bne.n	80075b0 <UART_CheckIdleState+0x70>
 80075c4:	f102 0308 	add.w	r3, r2, #8
 80075c8:	e853 3f00 	ldrex	r3, [r3]
 80075cc:	f023 0301 	bic.w	r3, r3, #1
 80075d0:	f102 0008 	add.w	r0, r2, #8
 80075d4:	e840 3100 	strex	r1, r3, [r0]
 80075d8:	2900      	cmp	r1, #0
 80075da:	d1f3      	bne.n	80075c4 <UART_CheckIdleState+0x84>
 80075dc:	2320      	movs	r3, #32
 80075de:	f8c4 3080 	str.w	r3, [r4, #128]	; 0x80
 80075e2:	e7d1      	b.n	8007588 <UART_CheckIdleState+0x48>
 80075e4:	2320      	movs	r3, #32
 80075e6:	2000      	movs	r0, #0
 80075e8:	67e3      	str	r3, [r4, #124]	; 0x7c
 80075ea:	f8c4 3080 	str.w	r3, [r4, #128]	; 0x80
 80075ee:	6620      	str	r0, [r4, #96]	; 0x60
 80075f0:	6660      	str	r0, [r4, #100]	; 0x64
 80075f2:	e7ca      	b.n	800758a <UART_CheckIdleState+0x4a>

080075f4 <HAL_UART_Init>:
 80075f4:	b510      	push	{r4, lr}
 80075f6:	4604      	mov	r4, r0
 80075f8:	b340      	cbz	r0, 800764c <HAL_UART_Init+0x58>
 80075fa:	6fc3      	ldr	r3, [r0, #124]	; 0x7c
 80075fc:	b91b      	cbnz	r3, 8007606 <HAL_UART_Init+0x12>
 80075fe:	f880 3078 	strb.w	r3, [r0, #120]	; 0x78
 8007602:	f7fb fcfb 	bl	8002ffc <HAL_UART_MspInit>
 8007606:	6822      	ldr	r2, [r4, #0]
 8007608:	2324      	movs	r3, #36	; 0x24
 800760a:	67e3      	str	r3, [r4, #124]	; 0x7c
 800760c:	6813      	ldr	r3, [r2, #0]
 800760e:	f023 0301 	bic.w	r3, r3, #1
 8007612:	6013      	str	r3, [r2, #0]
 8007614:	4620      	mov	r0, r4
 8007616:	f7ff fdf9 	bl	800720c <UART_SetConfig>
 800761a:	2801      	cmp	r0, #1
 800761c:	d016      	beq.n	800764c <HAL_UART_Init+0x58>
 800761e:	6a63      	ldr	r3, [r4, #36]	; 0x24
 8007620:	b113      	cbz	r3, 8007628 <HAL_UART_Init+0x34>
 8007622:	4620      	mov	r0, r4
 8007624:	f7ff fef4 	bl	8007410 <UART_AdvFeatureConfig>
 8007628:	6823      	ldr	r3, [r4, #0]
 800762a:	685a      	ldr	r2, [r3, #4]
 800762c:	f422 4290 	bic.w	r2, r2, #18432	; 0x4800
 8007630:	605a      	str	r2, [r3, #4]
 8007632:	689a      	ldr	r2, [r3, #8]
 8007634:	f022 022a 	bic.w	r2, r2, #42	; 0x2a
 8007638:	609a      	str	r2, [r3, #8]
 800763a:	681a      	ldr	r2, [r3, #0]
 800763c:	f042 0201 	orr.w	r2, r2, #1
 8007640:	4620      	mov	r0, r4
 8007642:	601a      	str	r2, [r3, #0]
 8007644:	e8bd 4010 	ldmia.w	sp!, {r4, lr}
 8007648:	f7ff bf7a 	b.w	8007540 <UART_CheckIdleState>
 800764c:	2001      	movs	r0, #1
 800764e:	bd10      	pop	{r4, pc}

08007650 <USB_EnableGlobalInt>:
 8007650:	2300      	movs	r3, #0
 8007652:	f44f 423f 	mov.w	r2, #48896	; 0xbf00
 8007656:	f8a0 3044 	strh.w	r3, [r0, #68]	; 0x44
 800765a:	f8a0 2040 	strh.w	r2, [r0, #64]	; 0x40
 800765e:	4618      	mov	r0, r3
 8007660:	4770      	bx	lr

08007662 <USB_DisableGlobalInt>:
 8007662:	f8b0 3040 	ldrh.w	r3, [r0, #64]	; 0x40
 8007666:	f423 537c 	bic.w	r3, r3, #16128	; 0x3f00
 800766a:	045b      	lsls	r3, r3, #17
 800766c:	0c5b      	lsrs	r3, r3, #17
 800766e:	f8a0 3040 	strh.w	r3, [r0, #64]	; 0x40
 8007672:	2000      	movs	r0, #0
 8007674:	4770      	bx	lr

08007676 <USB_DevInit>:
 8007676:	b084      	sub	sp, #16
 8007678:	b510      	push	{r4, lr}
 800767a:	ac03      	add	r4, sp, #12
 800767c:	e884 000e 	stmia.w	r4, {r1, r2, r3}
 8007680:	e8bd 4010 	ldmia.w	sp!, {r4, lr}
 8007684:	2301      	movs	r3, #1
 8007686:	f8a0 3040 	strh.w	r3, [r0, #64]	; 0x40
 800768a:	2300      	movs	r3, #0
 800768c:	f8a0 3040 	strh.w	r3, [r0, #64]	; 0x40
 8007690:	b004      	add	sp, #16
 8007692:	f8a0 3044 	strh.w	r3, [r0, #68]	; 0x44
 8007696:	f8a0 3050 	strh.w	r3, [r0, #80]	; 0x50
 800769a:	4618      	mov	r0, r3
 800769c:	4770      	bx	lr
	...

080076a0 <USB_ActivateEndpoint>:
 80076a0:	b5f0      	push	{r4, r5, r6, r7, lr}
 80076a2:	780d      	ldrb	r5, [r1, #0]
 80076a4:	78ce      	ldrb	r6, [r1, #3]
 80076a6:	f830 4025 	ldrh.w	r4, [r0, r5, lsl #2]
 80076aa:	f424 44ec 	bic.w	r4, r4, #30208	; 0x7600
 80076ae:	f024 0470 	bic.w	r4, r4, #112	; 0x70
 80076b2:	0424      	lsls	r4, r4, #16
 80076b4:	4603      	mov	r3, r0
 80076b6:	462a      	mov	r2, r5
 80076b8:	0c24      	lsrs	r4, r4, #16
 80076ba:	2e03      	cmp	r6, #3
 80076bc:	d853      	bhi.n	8007766 <USB_ActivateEndpoint+0xc6>
 80076be:	e8df f006 	tbb	[pc, r6]
 80076c2:	4f02      	.short	0x4f02
 80076c4:	4b4d      	.short	0x4b4d
 80076c6:	f444 7400 	orr.w	r4, r4, #512	; 0x200
 80076ca:	4630      	mov	r0, r6
 80076cc:	f248 0c80 	movw	ip, #32896	; 0x8080
 80076d0:	ea44 040c 	orr.w	r4, r4, ip
 80076d4:	f823 4022 	strh.w	r4, [r3, r2, lsl #2]
 80076d8:	f833 4022 	ldrh.w	r4, [r3, r2, lsl #2]
 80076dc:	f8df e284 	ldr.w	lr, [pc, #644]	; 8007964 <USB_ActivateEndpoint+0x2c4>
 80076e0:	b2a4      	uxth	r4, r4
 80076e2:	ea04 040e 	and.w	r4, r4, lr
 80076e6:	432c      	orrs	r4, r5
 80076e8:	ea4c 0404 	orr.w	r4, ip, r4
 80076ec:	f823 4022 	strh.w	r4, [r3, r2, lsl #2]
 80076f0:	7b0c      	ldrb	r4, [r1, #12]
 80076f2:	eb03 07c5 	add.w	r7, r3, r5, lsl #3
 80076f6:	2c00      	cmp	r4, #0
 80076f8:	f040 8087 	bne.w	800780a <USB_ActivateEndpoint+0x16a>
 80076fc:	88cc      	ldrh	r4, [r1, #6]
 80076fe:	f891 c001 	ldrb.w	ip, [r1, #1]
 8007702:	0864      	lsrs	r4, r4, #1
 8007704:	0064      	lsls	r4, r4, #1
 8007706:	f1bc 0f00 	cmp.w	ip, #0
 800770a:	d02e      	beq.n	800776a <USB_ActivateEndpoint+0xca>
 800770c:	f8b3 1050 	ldrh.w	r1, [r3, #80]	; 0x50
 8007710:	fa17 f181 	uxtah	r1, r7, r1
 8007714:	f8a1 4400 	strh.w	r4, [r1, #1024]	; 0x400
 8007718:	f833 1022 	ldrh.w	r1, [r3, r2, lsl #2]
 800771c:	0649      	lsls	r1, r1, #25
 800771e:	d50a      	bpl.n	8007736 <USB_ActivateEndpoint+0x96>
 8007720:	f833 1022 	ldrh.w	r1, [r3, r2, lsl #2]
 8007724:	b289      	uxth	r1, r1
 8007726:	ea01 010e 	and.w	r1, r1, lr
 800772a:	f441 4100 	orr.w	r1, r1, #32768	; 0x8000
 800772e:	f041 01c0 	orr.w	r1, r1, #192	; 0xc0
 8007732:	f823 1022 	strh.w	r1, [r3, r2, lsl #2]
 8007736:	f833 1022 	ldrh.w	r1, [r3, r2, lsl #2]
 800773a:	4c88      	ldr	r4, [pc, #544]	; (800795c <USB_ActivateEndpoint+0x2bc>)
 800773c:	b289      	uxth	r1, r1
 800773e:	2e01      	cmp	r6, #1
 8007740:	ea01 0104 	and.w	r1, r1, r4
 8007744:	d001      	beq.n	800774a <USB_ActivateEndpoint+0xaa>
 8007746:	f081 0120 	eor.w	r1, r1, #32
 800774a:	f441 4100 	orr.w	r1, r1, #32768	; 0x8000
 800774e:	f041 0180 	orr.w	r1, r1, #128	; 0x80
 8007752:	f823 1022 	strh.w	r1, [r3, r2, lsl #2]
 8007756:	e0b8      	b.n	80078ca <USB_ActivateEndpoint+0x22a>
 8007758:	f444 64c0 	orr.w	r4, r4, #1536	; 0x600
 800775c:	2000      	movs	r0, #0
 800775e:	e7b5      	b.n	80076cc <USB_ActivateEndpoint+0x2c>
 8007760:	f444 6480 	orr.w	r4, r4, #1024	; 0x400
 8007764:	e7fa      	b.n	800775c <USB_ActivateEndpoint+0xbc>
 8007766:	2001      	movs	r0, #1
 8007768:	e7b0      	b.n	80076cc <USB_ActivateEndpoint+0x2c>
 800776a:	f8b3 6050 	ldrh.w	r6, [r3, #80]	; 0x50
 800776e:	6909      	ldr	r1, [r1, #16]
 8007770:	fa17 f686 	uxtah	r6, r7, r6
 8007774:	293e      	cmp	r1, #62	; 0x3e
 8007776:	f8a6 4404 	strh.w	r4, [r6, #1028]	; 0x404
 800777a:	f8b3 4050 	ldrh.w	r4, [r3, #80]	; 0x50
 800777e:	fa17 f484 	uxtah	r4, r7, r4
 8007782:	f8b4 6406 	ldrh.w	r6, [r4, #1030]	; 0x406
 8007786:	f3c6 0609 	ubfx	r6, r6, #0, #10
 800778a:	f8a4 6406 	strh.w	r6, [r4, #1030]	; 0x406
 800778e:	d92b      	bls.n	80077e8 <USB_ActivateEndpoint+0x148>
 8007790:	094e      	lsrs	r6, r1, #5
 8007792:	06cf      	lsls	r7, r1, #27
 8007794:	f8b4 1406 	ldrh.w	r1, [r4, #1030]	; 0x406
 8007798:	bf08      	it	eq
 800779a:	f106 36ff 	addeq.w	r6, r6, #4294967295
 800779e:	b289      	uxth	r1, r1
 80077a0:	ea41 2186 	orr.w	r1, r1, r6, lsl #10
 80077a4:	ea6f 4141 	mvn.w	r1, r1, lsl #17
 80077a8:	ea6f 4151 	mvn.w	r1, r1, lsr #17
 80077ac:	b289      	uxth	r1, r1
 80077ae:	f8a4 1406 	strh.w	r1, [r4, #1030]	; 0x406
 80077b2:	f833 1022 	ldrh.w	r1, [r3, r2, lsl #2]
 80077b6:	044f      	lsls	r7, r1, #17
 80077b8:	d50d      	bpl.n	80077d6 <USB_ActivateEndpoint+0x136>
 80077ba:	f833 1022 	ldrh.w	r1, [r3, r2, lsl #2]
 80077be:	f421 41e0 	bic.w	r1, r1, #28672	; 0x7000
 80077c2:	f021 0170 	bic.w	r1, r1, #112	; 0x70
 80077c6:	0409      	lsls	r1, r1, #16
 80077c8:	0c09      	lsrs	r1, r1, #16
 80077ca:	f441 4140 	orr.w	r1, r1, #49152	; 0xc000
 80077ce:	f041 0180 	orr.w	r1, r1, #128	; 0x80
 80077d2:	f823 1022 	strh.w	r1, [r3, r2, lsl #2]
 80077d6:	f833 1022 	ldrh.w	r1, [r3, r2, lsl #2]
 80077da:	4c61      	ldr	r4, [pc, #388]	; (8007960 <USB_ActivateEndpoint+0x2c0>)
 80077dc:	b289      	uxth	r1, r1
 80077de:	4021      	ands	r1, r4
 80077e0:	b985      	cbnz	r5, 8007804 <USB_ActivateEndpoint+0x164>
 80077e2:	f481 5140 	eor.w	r1, r1, #12288	; 0x3000
 80077e6:	e7b0      	b.n	800774a <USB_ActivateEndpoint+0xaa>
 80077e8:	b911      	cbnz	r1, 80077f0 <USB_ActivateEndpoint+0x150>
 80077ea:	f8b4 1406 	ldrh.w	r1, [r4, #1030]	; 0x406
 80077ee:	e7d9      	b.n	80077a4 <USB_ActivateEndpoint+0x104>
 80077f0:	084e      	lsrs	r6, r1, #1
 80077f2:	07c9      	lsls	r1, r1, #31
 80077f4:	f8b4 1406 	ldrh.w	r1, [r4, #1030]	; 0x406
 80077f8:	bf48      	it	mi
 80077fa:	3601      	addmi	r6, #1
 80077fc:	b289      	uxth	r1, r1
 80077fe:	ea41 2186 	orr.w	r1, r1, r6, lsl #10
 8007802:	e7d3      	b.n	80077ac <USB_ActivateEndpoint+0x10c>
 8007804:	f481 5100 	eor.w	r1, r1, #8192	; 0x2000
 8007808:	e79f      	b.n	800774a <USB_ActivateEndpoint+0xaa>
 800780a:	2e02      	cmp	r6, #2
 800780c:	f833 4022 	ldrh.w	r4, [r3, r2, lsl #2]
 8007810:	d15c      	bne.n	80078cc <USB_ActivateEndpoint+0x22c>
 8007812:	b2a4      	uxth	r4, r4
 8007814:	ea04 040e 	and.w	r4, r4, lr
 8007818:	f444 4401 	orr.w	r4, r4, #33024	; 0x8100
 800781c:	f044 0480 	orr.w	r4, r4, #128	; 0x80
 8007820:	f823 4022 	strh.w	r4, [r3, r2, lsl #2]
 8007824:	f8b3 5050 	ldrh.w	r5, [r3, #80]	; 0x50
 8007828:	890c      	ldrh	r4, [r1, #8]
 800782a:	fa17 f585 	uxtah	r5, r7, r5
 800782e:	0864      	lsrs	r4, r4, #1
 8007830:	0064      	lsls	r4, r4, #1
 8007832:	f8a5 4400 	strh.w	r4, [r5, #1024]	; 0x400
 8007836:	894c      	ldrh	r4, [r1, #10]
 8007838:	f8b3 5050 	ldrh.w	r5, [r3, #80]	; 0x50
 800783c:	0864      	lsrs	r4, r4, #1
 800783e:	fa17 f585 	uxtah	r5, r7, r5
 8007842:	0064      	lsls	r4, r4, #1
 8007844:	f8a5 4404 	strh.w	r4, [r5, #1028]	; 0x404
 8007848:	7849      	ldrb	r1, [r1, #1]
 800784a:	2900      	cmp	r1, #0
 800784c:	d149      	bne.n	80078e2 <USB_ActivateEndpoint+0x242>
 800784e:	f833 1022 	ldrh.w	r1, [r3, r2, lsl #2]
 8007852:	044e      	lsls	r6, r1, #17
 8007854:	d50d      	bpl.n	8007872 <USB_ActivateEndpoint+0x1d2>
 8007856:	f833 1022 	ldrh.w	r1, [r3, r2, lsl #2]
 800785a:	f421 41e0 	bic.w	r1, r1, #28672	; 0x7000
 800785e:	f021 0170 	bic.w	r1, r1, #112	; 0x70
 8007862:	0409      	lsls	r1, r1, #16
 8007864:	0c09      	lsrs	r1, r1, #16
 8007866:	f441 4140 	orr.w	r1, r1, #49152	; 0xc000
 800786a:	f041 0180 	orr.w	r1, r1, #128	; 0x80
 800786e:	f823 1022 	strh.w	r1, [r3, r2, lsl #2]
 8007872:	f833 1022 	ldrh.w	r1, [r3, r2, lsl #2]
 8007876:	064d      	lsls	r5, r1, #25
 8007878:	d50d      	bpl.n	8007896 <USB_ActivateEndpoint+0x1f6>
 800787a:	f833 1022 	ldrh.w	r1, [r3, r2, lsl #2]
 800787e:	f421 41e0 	bic.w	r1, r1, #28672	; 0x7000
 8007882:	f021 0170 	bic.w	r1, r1, #112	; 0x70
 8007886:	0409      	lsls	r1, r1, #16
 8007888:	0c09      	lsrs	r1, r1, #16
 800788a:	f441 4100 	orr.w	r1, r1, #32768	; 0x8000
 800788e:	f041 01c0 	orr.w	r1, r1, #192	; 0xc0
 8007892:	f823 1022 	strh.w	r1, [r3, r2, lsl #2]
 8007896:	f833 1022 	ldrh.w	r1, [r3, r2, lsl #2]
 800789a:	f421 4180 	bic.w	r1, r1, #16384	; 0x4000
 800789e:	f021 0170 	bic.w	r1, r1, #112	; 0x70
 80078a2:	0409      	lsls	r1, r1, #16
 80078a4:	0c09      	lsrs	r1, r1, #16
 80078a6:	f248 0480 	movw	r4, #32896	; 0x8080
 80078aa:	f481 5140 	eor.w	r1, r1, #12288	; 0x3000
 80078ae:	4321      	orrs	r1, r4
 80078b0:	f823 1022 	strh.w	r1, [r3, r2, lsl #2]
 80078b4:	f833 1022 	ldrh.w	r1, [r3, r2, lsl #2]
 80078b8:	f421 41e0 	bic.w	r1, r1, #28672	; 0x7000
 80078bc:	f021 0140 	bic.w	r1, r1, #64	; 0x40
 80078c0:	0409      	lsls	r1, r1, #16
 80078c2:	0c09      	lsrs	r1, r1, #16
 80078c4:	430c      	orrs	r4, r1
 80078c6:	f823 4022 	strh.w	r4, [r3, r2, lsl #2]
 80078ca:	bdf0      	pop	{r4, r5, r6, r7, pc}
 80078cc:	f424 44e2 	bic.w	r4, r4, #28928	; 0x7100
 80078d0:	f024 0470 	bic.w	r4, r4, #112	; 0x70
 80078d4:	0424      	lsls	r4, r4, #16
 80078d6:	0c24      	lsrs	r4, r4, #16
 80078d8:	ea4c 0c04 	orr.w	ip, ip, r4
 80078dc:	f823 c022 	strh.w	ip, [r3, r2, lsl #2]
 80078e0:	e7a0      	b.n	8007824 <USB_ActivateEndpoint+0x184>
 80078e2:	f833 1022 	ldrh.w	r1, [r3, r2, lsl #2]
 80078e6:	044c      	lsls	r4, r1, #17
 80078e8:	d50d      	bpl.n	8007906 <USB_ActivateEndpoint+0x266>
 80078ea:	f833 1022 	ldrh.w	r1, [r3, r2, lsl #2]
 80078ee:	f421 41e0 	bic.w	r1, r1, #28672	; 0x7000
 80078f2:	f021 0170 	bic.w	r1, r1, #112	; 0x70
 80078f6:	0409      	lsls	r1, r1, #16
 80078f8:	0c09      	lsrs	r1, r1, #16
 80078fa:	f441 4140 	orr.w	r1, r1, #49152	; 0xc000
 80078fe:	f041 0180 	orr.w	r1, r1, #128	; 0x80
 8007902:	f823 1022 	strh.w	r1, [r3, r2, lsl #2]
 8007906:	f833 1022 	ldrh.w	r1, [r3, r2, lsl #2]
 800790a:	0649      	lsls	r1, r1, #25
 800790c:	d50d      	bpl.n	800792a <USB_ActivateEndpoint+0x28a>
 800790e:	f833 1022 	ldrh.w	r1, [r3, r2, lsl #2]
 8007912:	f421 41e0 	bic.w	r1, r1, #28672	; 0x7000
 8007916:	f021 0170 	bic.w	r1, r1, #112	; 0x70
 800791a:	0409      	lsls	r1, r1, #16
 800791c:	0c09      	lsrs	r1, r1, #16
 800791e:	f441 4100 	orr.w	r1, r1, #32768	; 0x8000
 8007922:	f041 01c0 	orr.w	r1, r1, #192	; 0xc0
 8007926:	f823 1022 	strh.w	r1, [r3, r2, lsl #2]
 800792a:	f833 1022 	ldrh.w	r1, [r3, r2, lsl #2]
 800792e:	4c0b      	ldr	r4, [pc, #44]	; (800795c <USB_ActivateEndpoint+0x2bc>)
 8007930:	b289      	uxth	r1, r1
 8007932:	4021      	ands	r1, r4
 8007934:	2e01      	cmp	r6, #1
 8007936:	bf18      	it	ne
 8007938:	f081 0120 	eorne.w	r1, r1, #32
 800793c:	f441 4100 	orr.w	r1, r1, #32768	; 0x8000
 8007940:	f041 0180 	orr.w	r1, r1, #128	; 0x80
 8007944:	f823 1022 	strh.w	r1, [r3, r2, lsl #2]
 8007948:	f833 1022 	ldrh.w	r1, [r3, r2, lsl #2]
 800794c:	f421 4180 	bic.w	r1, r1, #16384	; 0x4000
 8007950:	f021 0170 	bic.w	r1, r1, #112	; 0x70
 8007954:	0409      	lsls	r1, r1, #16
 8007956:	0c09      	lsrs	r1, r1, #16
 8007958:	e6f7      	b.n	800774a <USB_ActivateEndpoint+0xaa>
 800795a:	bf00      	nop
 800795c:	ffff8fbf 	.word	0xffff8fbf
 8007960:	ffffbf8f 	.word	0xffffbf8f
 8007964:	ffff8f8f 	.word	0xffff8f8f

08007968 <USB_DeactivateEndpoint>:
 8007968:	784a      	ldrb	r2, [r1, #1]
 800796a:	780b      	ldrb	r3, [r1, #0]
 800796c:	7b09      	ldrb	r1, [r1, #12]
 800796e:	bbd9      	cbnz	r1, 80079e8 <USB_DeactivateEndpoint+0x80>
 8007970:	b30a      	cbz	r2, 80079b6 <USB_DeactivateEndpoint+0x4e>
 8007972:	f830 2023 	ldrh.w	r2, [r0, r3, lsl #2]
 8007976:	0651      	lsls	r1, r2, #25
 8007978:	d50d      	bpl.n	8007996 <USB_DeactivateEndpoint+0x2e>
 800797a:	f830 2023 	ldrh.w	r2, [r0, r3, lsl #2]
 800797e:	f422 42e0 	bic.w	r2, r2, #28672	; 0x7000
 8007982:	f022 0270 	bic.w	r2, r2, #112	; 0x70
 8007986:	0412      	lsls	r2, r2, #16
 8007988:	0c12      	lsrs	r2, r2, #16
 800798a:	f442 4200 	orr.w	r2, r2, #32768	; 0x8000
 800798e:	f042 02c0 	orr.w	r2, r2, #192	; 0xc0
 8007992:	f820 2023 	strh.w	r2, [r0, r3, lsl #2]
 8007996:	f830 2023 	ldrh.w	r2, [r0, r3, lsl #2]
 800799a:	f422 42e0 	bic.w	r2, r2, #28672	; 0x7000
 800799e:	f022 0240 	bic.w	r2, r2, #64	; 0x40
 80079a2:	0412      	lsls	r2, r2, #16
 80079a4:	0c12      	lsrs	r2, r2, #16
 80079a6:	f442 4200 	orr.w	r2, r2, #32768	; 0x8000
 80079aa:	f042 0280 	orr.w	r2, r2, #128	; 0x80
 80079ae:	f820 2023 	strh.w	r2, [r0, r3, lsl #2]
 80079b2:	2000      	movs	r0, #0
 80079b4:	4770      	bx	lr
 80079b6:	f830 2023 	ldrh.w	r2, [r0, r3, lsl #2]
 80079ba:	0452      	lsls	r2, r2, #17
 80079bc:	d50d      	bpl.n	80079da <USB_DeactivateEndpoint+0x72>
 80079be:	f830 2023 	ldrh.w	r2, [r0, r3, lsl #2]
 80079c2:	f422 42e0 	bic.w	r2, r2, #28672	; 0x7000
 80079c6:	f022 0270 	bic.w	r2, r2, #112	; 0x70
 80079ca:	0412      	lsls	r2, r2, #16
 80079cc:	0c12      	lsrs	r2, r2, #16
 80079ce:	f442 4240 	orr.w	r2, r2, #49152	; 0xc000
 80079d2:	f042 0280 	orr.w	r2, r2, #128	; 0x80
 80079d6:	f820 2023 	strh.w	r2, [r0, r3, lsl #2]
 80079da:	f830 2023 	ldrh.w	r2, [r0, r3, lsl #2]
 80079de:	f422 4280 	bic.w	r2, r2, #16384	; 0x4000
 80079e2:	f022 0270 	bic.w	r2, r2, #112	; 0x70
 80079e6:	e7dc      	b.n	80079a2 <USB_DeactivateEndpoint+0x3a>
 80079e8:	2a00      	cmp	r2, #0
 80079ea:	d14a      	bne.n	8007a82 <USB_DeactivateEndpoint+0x11a>
 80079ec:	f830 2023 	ldrh.w	r2, [r0, r3, lsl #2]
 80079f0:	0451      	lsls	r1, r2, #17
 80079f2:	d50d      	bpl.n	8007a10 <USB_DeactivateEndpoint+0xa8>
 80079f4:	f830 2023 	ldrh.w	r2, [r0, r3, lsl #2]
 80079f8:	f422 42e0 	bic.w	r2, r2, #28672	; 0x7000
 80079fc:	f022 0270 	bic.w	r2, r2, #112	; 0x70
 8007a00:	0412      	lsls	r2, r2, #16
 8007a02:	0c12      	lsrs	r2, r2, #16
 8007a04:	f442 4240 	orr.w	r2, r2, #49152	; 0xc000
 8007a08:	f042 0280 	orr.w	r2, r2, #128	; 0x80
 8007a0c:	f820 2023 	strh.w	r2, [r0, r3, lsl #2]
 8007a10:	f830 2023 	ldrh.w	r2, [r0, r3, lsl #2]
 8007a14:	0652      	lsls	r2, r2, #25
 8007a16:	d50d      	bpl.n	8007a34 <USB_DeactivateEndpoint+0xcc>
 8007a18:	f830 2023 	ldrh.w	r2, [r0, r3, lsl #2]
 8007a1c:	f422 42e0 	bic.w	r2, r2, #28672	; 0x7000
 8007a20:	f022 0270 	bic.w	r2, r2, #112	; 0x70
 8007a24:	0412      	lsls	r2, r2, #16
 8007a26:	0c12      	lsrs	r2, r2, #16
 8007a28:	f442 4200 	orr.w	r2, r2, #32768	; 0x8000
 8007a2c:	f042 02c0 	orr.w	r2, r2, #192	; 0xc0
 8007a30:	f820 2023 	strh.w	r2, [r0, r3, lsl #2]
 8007a34:	f830 2023 	ldrh.w	r2, [r0, r3, lsl #2]
 8007a38:	f422 42e0 	bic.w	r2, r2, #28672	; 0x7000
 8007a3c:	f022 0270 	bic.w	r2, r2, #112	; 0x70
 8007a40:	0412      	lsls	r2, r2, #16
 8007a42:	0c12      	lsrs	r2, r2, #16
 8007a44:	f442 4200 	orr.w	r2, r2, #32768	; 0x8000
 8007a48:	f042 02c0 	orr.w	r2, r2, #192	; 0xc0
 8007a4c:	f820 2023 	strh.w	r2, [r0, r3, lsl #2]
 8007a50:	f830 2023 	ldrh.w	r2, [r0, r3, lsl #2]
 8007a54:	f422 4280 	bic.w	r2, r2, #16384	; 0x4000
 8007a58:	f022 0270 	bic.w	r2, r2, #112	; 0x70
 8007a5c:	0412      	lsls	r2, r2, #16
 8007a5e:	0c12      	lsrs	r2, r2, #16
 8007a60:	f248 0180 	movw	r1, #32896	; 0x8080
 8007a64:	430a      	orrs	r2, r1
 8007a66:	f820 2023 	strh.w	r2, [r0, r3, lsl #2]
 8007a6a:	f830 2023 	ldrh.w	r2, [r0, r3, lsl #2]
 8007a6e:	f422 42e0 	bic.w	r2, r2, #28672	; 0x7000
 8007a72:	f022 0240 	bic.w	r2, r2, #64	; 0x40
 8007a76:	0412      	lsls	r2, r2, #16
 8007a78:	0c12      	lsrs	r2, r2, #16
 8007a7a:	4311      	orrs	r1, r2
 8007a7c:	f820 1023 	strh.w	r1, [r0, r3, lsl #2]
 8007a80:	e797      	b.n	80079b2 <USB_DeactivateEndpoint+0x4a>
 8007a82:	f830 2023 	ldrh.w	r2, [r0, r3, lsl #2]
 8007a86:	0451      	lsls	r1, r2, #17
 8007a88:	d50d      	bpl.n	8007aa6 <USB_DeactivateEndpoint+0x13e>
 8007a8a:	f830 2023 	ldrh.w	r2, [r0, r3, lsl #2]
 8007a8e:	f422 42e0 	bic.w	r2, r2, #28672	; 0x7000
 8007a92:	f022 0270 	bic.w	r2, r2, #112	; 0x70
 8007a96:	0412      	lsls	r2, r2, #16
 8007a98:	0c12      	lsrs	r2, r2, #16
 8007a9a:	f442 4240 	orr.w	r2, r2, #49152	; 0xc000
 8007a9e:	f042 0280 	orr.w	r2, r2, #128	; 0x80
 8007aa2:	f820 2023 	strh.w	r2, [r0, r3, lsl #2]
 8007aa6:	f830 2023 	ldrh.w	r2, [r0, r3, lsl #2]
 8007aaa:	0652      	lsls	r2, r2, #25
 8007aac:	d50d      	bpl.n	8007aca <USB_DeactivateEndpoint+0x162>
 8007aae:	f830 2023 	ldrh.w	r2, [r0, r3, lsl #2]
 8007ab2:	f422 42e0 	bic.w	r2, r2, #28672	; 0x7000
 8007ab6:	f022 0270 	bic.w	r2, r2, #112	; 0x70
 8007aba:	0412      	lsls	r2, r2, #16
 8007abc:	0c12      	lsrs	r2, r2, #16
 8007abe:	f442 4200 	orr.w	r2, r2, #32768	; 0x8000
 8007ac2:	f042 02c0 	orr.w	r2, r2, #192	; 0xc0
 8007ac6:	f820 2023 	strh.w	r2, [r0, r3, lsl #2]
 8007aca:	f830 2023 	ldrh.w	r2, [r0, r3, lsl #2]
 8007ace:	f422 42e0 	bic.w	r2, r2, #28672	; 0x7000
 8007ad2:	f022 0270 	bic.w	r2, r2, #112	; 0x70
 8007ad6:	0412      	lsls	r2, r2, #16
 8007ad8:	0c12      	lsrs	r2, r2, #16
 8007ada:	f442 4240 	orr.w	r2, r2, #49152	; 0xc000
 8007ade:	f042 0280 	orr.w	r2, r2, #128	; 0x80
 8007ae2:	f820 2023 	strh.w	r2, [r0, r3, lsl #2]
 8007ae6:	f830 2023 	ldrh.w	r2, [r0, r3, lsl #2]
 8007aea:	f422 42e0 	bic.w	r2, r2, #28672	; 0x7000
 8007aee:	f022 0240 	bic.w	r2, r2, #64	; 0x40
 8007af2:	0412      	lsls	r2, r2, #16
 8007af4:	0c12      	lsrs	r2, r2, #16
 8007af6:	f248 0180 	movw	r1, #32896	; 0x8080
 8007afa:	430a      	orrs	r2, r1
 8007afc:	f820 2023 	strh.w	r2, [r0, r3, lsl #2]
 8007b00:	f830 2023 	ldrh.w	r2, [r0, r3, lsl #2]
 8007b04:	f422 4280 	bic.w	r2, r2, #16384	; 0x4000
 8007b08:	f022 0270 	bic.w	r2, r2, #112	; 0x70
 8007b0c:	e7b3      	b.n	8007a76 <USB_DeactivateEndpoint+0x10e>

08007b0e <USB_EPSetStall>:
 8007b0e:	784b      	ldrb	r3, [r1, #1]
 8007b10:	780a      	ldrb	r2, [r1, #0]
 8007b12:	b18b      	cbz	r3, 8007b38 <USB_EPSetStall+0x2a>
 8007b14:	f830 3022 	ldrh.w	r3, [r0, r2, lsl #2]
 8007b18:	f423 43e0 	bic.w	r3, r3, #28672	; 0x7000
 8007b1c:	f023 0340 	bic.w	r3, r3, #64	; 0x40
 8007b20:	041b      	lsls	r3, r3, #16
 8007b22:	0c1b      	lsrs	r3, r3, #16
 8007b24:	f083 0310 	eor.w	r3, r3, #16
 8007b28:	f443 4300 	orr.w	r3, r3, #32768	; 0x8000
 8007b2c:	f043 0380 	orr.w	r3, r3, #128	; 0x80
 8007b30:	f820 3022 	strh.w	r3, [r0, r2, lsl #2]
 8007b34:	2000      	movs	r0, #0
 8007b36:	4770      	bx	lr
 8007b38:	f830 3022 	ldrh.w	r3, [r0, r2, lsl #2]
 8007b3c:	f423 4380 	bic.w	r3, r3, #16384	; 0x4000
 8007b40:	f023 0370 	bic.w	r3, r3, #112	; 0x70
 8007b44:	041b      	lsls	r3, r3, #16
 8007b46:	0c1b      	lsrs	r3, r3, #16
 8007b48:	f483 5380 	eor.w	r3, r3, #4096	; 0x1000
 8007b4c:	e7ec      	b.n	8007b28 <USB_EPSetStall+0x1a>

08007b4e <USB_EPClearStall>:
 8007b4e:	7b0b      	ldrb	r3, [r1, #12]
 8007b50:	bb3b      	cbnz	r3, 8007ba2 <USB_EPClearStall+0x54>
 8007b52:	784b      	ldrb	r3, [r1, #1]
 8007b54:	780a      	ldrb	r2, [r1, #0]
 8007b56:	b333      	cbz	r3, 8007ba6 <USB_EPClearStall+0x58>
 8007b58:	f830 3022 	ldrh.w	r3, [r0, r2, lsl #2]
 8007b5c:	065b      	lsls	r3, r3, #25
 8007b5e:	d50d      	bpl.n	8007b7c <USB_EPClearStall+0x2e>
 8007b60:	f830 3022 	ldrh.w	r3, [r0, r2, lsl #2]
 8007b64:	f423 43e0 	bic.w	r3, r3, #28672	; 0x7000
 8007b68:	f023 0370 	bic.w	r3, r3, #112	; 0x70
 8007b6c:	041b      	lsls	r3, r3, #16
 8007b6e:	0c1b      	lsrs	r3, r3, #16
 8007b70:	f443 4300 	orr.w	r3, r3, #32768	; 0x8000
 8007b74:	f043 03c0 	orr.w	r3, r3, #192	; 0xc0
 8007b78:	f820 3022 	strh.w	r3, [r0, r2, lsl #2]
 8007b7c:	78cb      	ldrb	r3, [r1, #3]
 8007b7e:	2b01      	cmp	r3, #1
 8007b80:	d00f      	beq.n	8007ba2 <USB_EPClearStall+0x54>
 8007b82:	f830 3022 	ldrh.w	r3, [r0, r2, lsl #2]
 8007b86:	f423 43e0 	bic.w	r3, r3, #28672	; 0x7000
 8007b8a:	f023 0340 	bic.w	r3, r3, #64	; 0x40
 8007b8e:	041b      	lsls	r3, r3, #16
 8007b90:	0c1b      	lsrs	r3, r3, #16
 8007b92:	f083 0320 	eor.w	r3, r3, #32
 8007b96:	f443 4300 	orr.w	r3, r3, #32768	; 0x8000
 8007b9a:	f043 0380 	orr.w	r3, r3, #128	; 0x80
 8007b9e:	f820 3022 	strh.w	r3, [r0, r2, lsl #2]
 8007ba2:	2000      	movs	r0, #0
 8007ba4:	4770      	bx	lr
 8007ba6:	f830 3022 	ldrh.w	r3, [r0, r2, lsl #2]
 8007baa:	045b      	lsls	r3, r3, #17
 8007bac:	d50d      	bpl.n	8007bca <USB_EPClearStall+0x7c>
 8007bae:	f830 3022 	ldrh.w	r3, [r0, r2, lsl #2]
 8007bb2:	f423 43e0 	bic.w	r3, r3, #28672	; 0x7000
 8007bb6:	f023 0370 	bic.w	r3, r3, #112	; 0x70
 8007bba:	041b      	lsls	r3, r3, #16
 8007bbc:	0c1b      	lsrs	r3, r3, #16
 8007bbe:	f443 4340 	orr.w	r3, r3, #49152	; 0xc000
 8007bc2:	f043 0380 	orr.w	r3, r3, #128	; 0x80
 8007bc6:	f820 3022 	strh.w	r3, [r0, r2, lsl #2]
 8007bca:	f830 3022 	ldrh.w	r3, [r0, r2, lsl #2]
 8007bce:	f423 4380 	bic.w	r3, r3, #16384	; 0x4000
 8007bd2:	f023 0370 	bic.w	r3, r3, #112	; 0x70
 8007bd6:	041b      	lsls	r3, r3, #16
 8007bd8:	0c1b      	lsrs	r3, r3, #16
 8007bda:	f483 5340 	eor.w	r3, r3, #12288	; 0x3000
 8007bde:	e7da      	b.n	8007b96 <USB_EPClearStall+0x48>

08007be0 <USB_SetDevAddress>:
 8007be0:	b911      	cbnz	r1, 8007be8 <USB_SetDevAddress+0x8>
 8007be2:	2380      	movs	r3, #128	; 0x80
 8007be4:	f8a0 304c 	strh.w	r3, [r0, #76]	; 0x4c
 8007be8:	2000      	movs	r0, #0
 8007bea:	4770      	bx	lr

08007bec <USB_DevConnect>:
 8007bec:	2000      	movs	r0, #0
 8007bee:	4770      	bx	lr

08007bf0 <USB_ReadInterrupts>:
 8007bf0:	f8b0 0044 	ldrh.w	r0, [r0, #68]	; 0x44
 8007bf4:	b280      	uxth	r0, r0
 8007bf6:	4770      	bx	lr

08007bf8 <USB_WritePMA>:
 8007bf8:	f502 6280 	add.w	r2, r2, #1024	; 0x400
 8007bfc:	3301      	adds	r3, #1
 8007bfe:	4410      	add	r0, r2
 8007c00:	085b      	lsrs	r3, r3, #1
 8007c02:	eb01 0343 	add.w	r3, r1, r3, lsl #1
 8007c06:	1a40      	subs	r0, r0, r1
 8007c08:	428b      	cmp	r3, r1
 8007c0a:	d100      	bne.n	8007c0e <USB_WritePMA+0x16>
 8007c0c:	4770      	bx	lr
 8007c0e:	880a      	ldrh	r2, [r1, #0]
 8007c10:	520a      	strh	r2, [r1, r0]
 8007c12:	3102      	adds	r1, #2
 8007c14:	e7f8      	b.n	8007c08 <USB_WritePMA+0x10>

08007c16 <USB_EPStartXfer>:
 8007c16:	e92d 47f0 	stmdb	sp!, {r4, r5, r6, r7, r8, r9, sl, lr}
 8007c1a:	784a      	ldrb	r2, [r1, #1]
 8007c1c:	7b0e      	ldrb	r6, [r1, #12]
 8007c1e:	2a01      	cmp	r2, #1
 8007c20:	4605      	mov	r5, r0
 8007c22:	460c      	mov	r4, r1
 8007c24:	f040 811c 	bne.w	8007e60 <USB_EPStartXfer+0x24a>
 8007c28:	f8d1 a010 	ldr.w	sl, [r1, #16]
 8007c2c:	698f      	ldr	r7, [r1, #24]
 8007c2e:	6949      	ldr	r1, [r1, #20]
 8007c30:	4557      	cmp	r7, sl
 8007c32:	bf28      	it	cs
 8007c34:	4657      	movcs	r7, sl
 8007c36:	bb16      	cbnz	r6, 8007c7e <USB_EPStartXfer+0x68>
 8007c38:	b2bf      	uxth	r7, r7
 8007c3a:	88e2      	ldrh	r2, [r4, #6]
 8007c3c:	463b      	mov	r3, r7
 8007c3e:	f7ff ffdb 	bl	8007bf8 <USB_WritePMA>
 8007c42:	f8b5 2050 	ldrh.w	r2, [r5, #80]	; 0x50
 8007c46:	7823      	ldrb	r3, [r4, #0]
 8007c48:	f205 4102 	addw	r1, r5, #1026	; 0x402
 8007c4c:	fa11 f282 	uxtah	r2, r1, r2
 8007c50:	eb02 02c3 	add.w	r2, r2, r3, lsl #3
 8007c54:	8017      	strh	r7, [r2, #0]
 8007c56:	7822      	ldrb	r2, [r4, #0]
 8007c58:	f835 3022 	ldrh.w	r3, [r5, r2, lsl #2]
 8007c5c:	f423 43e0 	bic.w	r3, r3, #28672	; 0x7000
 8007c60:	f023 0340 	bic.w	r3, r3, #64	; 0x40
 8007c64:	041b      	lsls	r3, r3, #16
 8007c66:	0c1b      	lsrs	r3, r3, #16
 8007c68:	f083 0330 	eor.w	r3, r3, #48	; 0x30
 8007c6c:	f443 4300 	orr.w	r3, r3, #32768	; 0x8000
 8007c70:	f043 0380 	orr.w	r3, r3, #128	; 0x80
 8007c74:	f825 3022 	strh.w	r3, [r5, r2, lsl #2]
 8007c78:	2000      	movs	r0, #0
 8007c7a:	e8bd 87f0 	ldmia.w	sp!, {r4, r5, r6, r7, r8, r9, sl, pc}
 8007c7e:	78e3      	ldrb	r3, [r4, #3]
 8007c80:	6a26      	ldr	r6, [r4, #32]
 8007c82:	f894 c000 	ldrb.w	ip, [r4]
 8007c86:	2b02      	cmp	r3, #2
 8007c88:	f040 80d3 	bne.w	8007e32 <USB_EPStartXfer+0x21c>
 8007c8c:	45b2      	cmp	sl, r6
 8007c8e:	f830 202c 	ldrh.w	r2, [r0, ip, lsl #2]
 8007c92:	f080 80b7 	bcs.w	8007e04 <USB_EPStartXfer+0x1ee>
 8007c96:	f422 42e0 	bic.w	r2, r2, #28672	; 0x7000
 8007c9a:	f022 0270 	bic.w	r2, r2, #112	; 0x70
 8007c9e:	0412      	lsls	r2, r2, #16
 8007ca0:	0c12      	lsrs	r2, r2, #16
 8007ca2:	f442 4201 	orr.w	r2, r2, #33024	; 0x8100
 8007ca6:	f042 0280 	orr.w	r2, r2, #128	; 0x80
 8007caa:	f820 202c 	strh.w	r2, [r0, ip, lsl #2]
 8007cae:	f830 802c 	ldrh.w	r8, [r0, ip, lsl #2]
 8007cb2:	f8b0 2050 	ldrh.w	r2, [r0, #80]	; 0x50
 8007cb6:	1bf6      	subs	r6, r6, r7
 8007cb8:	f018 0840 	ands.w	r8, r8, #64	; 0x40
 8007cbc:	6226      	str	r6, [r4, #32]
 8007cbe:	eb01 0907 	add.w	r9, r1, r7
 8007cc2:	b2bb      	uxth	r3, r7
 8007cc4:	d051      	beq.n	8007d6a <USB_EPStartXfer+0x154>
 8007cc6:	f200 4e06 	addw	lr, r0, #1030	; 0x406
 8007cca:	fa1e f282 	uxtah	r2, lr, r2
 8007cce:	f822 303c 	strh.w	r3, [r2, ip, lsl #3]
 8007cd2:	8962      	ldrh	r2, [r4, #10]
 8007cd4:	f7ff ff90 	bl	8007bf8 <USB_WritePMA>
 8007cd8:	45b2      	cmp	sl, r6
 8007cda:	7862      	ldrb	r2, [r4, #1]
 8007cdc:	f8c4 9014 	str.w	r9, [r4, #20]
 8007ce0:	bf36      	itet	cc
 8007ce2:	1bf3      	subcc	r3, r6, r7
 8007ce4:	2300      	movcs	r3, #0
 8007ce6:	463e      	movcc	r6, r7
 8007ce8:	6223      	str	r3, [r4, #32]
 8007cea:	b2b3      	uxth	r3, r6
 8007cec:	bb82      	cbnz	r2, 8007d50 <USB_EPStartXfer+0x13a>
 8007cee:	f8b5 2050 	ldrh.w	r2, [r5, #80]	; 0x50
 8007cf2:	7821      	ldrb	r1, [r4, #0]
 8007cf4:	f205 4002 	addw	r0, r5, #1026	; 0x402
 8007cf8:	fa10 f282 	uxtah	r2, r0, r2
 8007cfc:	eb02 02c1 	add.w	r2, r2, r1, lsl #3
 8007d00:	2e3e      	cmp	r6, #62	; 0x3e
 8007d02:	8811      	ldrh	r1, [r2, #0]
 8007d04:	f3c1 0109 	ubfx	r1, r1, #0, #10
 8007d08:	8011      	strh	r1, [r2, #0]
 8007d0a:	d914      	bls.n	8007d36 <USB_EPStartXfer+0x120>
 8007d0c:	8811      	ldrh	r1, [r2, #0]
 8007d0e:	0970      	lsrs	r0, r6, #5
 8007d10:	06f6      	lsls	r6, r6, #27
 8007d12:	bf08      	it	eq
 8007d14:	f100 30ff 	addeq.w	r0, r0, #4294967295
 8007d18:	b289      	uxth	r1, r1
 8007d1a:	ea41 2180 	orr.w	r1, r1, r0, lsl #10
 8007d1e:	ea6f 4141 	mvn.w	r1, r1, lsl #17
 8007d22:	ea6f 4151 	mvn.w	r1, r1, lsr #17
 8007d26:	b289      	uxth	r1, r1
 8007d28:	8011      	strh	r1, [r2, #0]
 8007d2a:	8922      	ldrh	r2, [r4, #8]
 8007d2c:	4649      	mov	r1, r9
 8007d2e:	4628      	mov	r0, r5
 8007d30:	f7ff ff62 	bl	8007bf8 <USB_WritePMA>
 8007d34:	e78f      	b.n	8007c56 <USB_EPStartXfer+0x40>
 8007d36:	b90e      	cbnz	r6, 8007d3c <USB_EPStartXfer+0x126>
 8007d38:	8811      	ldrh	r1, [r2, #0]
 8007d3a:	e7f0      	b.n	8007d1e <USB_EPStartXfer+0x108>
 8007d3c:	07f1      	lsls	r1, r6, #31
 8007d3e:	8811      	ldrh	r1, [r2, #0]
 8007d40:	ea4f 0056 	mov.w	r0, r6, lsr #1
 8007d44:	bf48      	it	mi
 8007d46:	3001      	addmi	r0, #1
 8007d48:	b289      	uxth	r1, r1
 8007d4a:	ea41 2180 	orr.w	r1, r1, r0, lsl #10
 8007d4e:	e7ea      	b.n	8007d26 <USB_EPStartXfer+0x110>
 8007d50:	2a01      	cmp	r2, #1
 8007d52:	d1ea      	bne.n	8007d2a <USB_EPStartXfer+0x114>
 8007d54:	f8b5 2050 	ldrh.w	r2, [r5, #80]	; 0x50
 8007d58:	7821      	ldrb	r1, [r4, #0]
 8007d5a:	f205 4002 	addw	r0, r5, #1026	; 0x402
 8007d5e:	fa10 f282 	uxtah	r2, r0, r2
 8007d62:	eb02 02c1 	add.w	r2, r2, r1, lsl #3
 8007d66:	8013      	strh	r3, [r2, #0]
 8007d68:	e7df      	b.n	8007d2a <USB_EPStartXfer+0x114>
 8007d6a:	f200 4e02 	addw	lr, r0, #1026	; 0x402
 8007d6e:	fa1e f282 	uxtah	r2, lr, r2
 8007d72:	f822 303c 	strh.w	r3, [r2, ip, lsl #3]
 8007d76:	8922      	ldrh	r2, [r4, #8]
 8007d78:	f7ff ff3e 	bl	8007bf8 <USB_WritePMA>
 8007d7c:	45b2      	cmp	sl, r6
 8007d7e:	7862      	ldrb	r2, [r4, #1]
 8007d80:	f8c4 9014 	str.w	r9, [r4, #20]
 8007d84:	bf36      	itet	cc
 8007d86:	1bf3      	subcc	r3, r6, r7
 8007d88:	4643      	movcs	r3, r8
 8007d8a:	463e      	movcc	r6, r7
 8007d8c:	6223      	str	r3, [r4, #32]
 8007d8e:	b2b3      	uxth	r3, r6
 8007d90:	bb5a      	cbnz	r2, 8007dea <USB_EPStartXfer+0x1d4>
 8007d92:	f8b5 2050 	ldrh.w	r2, [r5, #80]	; 0x50
 8007d96:	7821      	ldrb	r1, [r4, #0]
 8007d98:	f205 4006 	addw	r0, r5, #1030	; 0x406
 8007d9c:	fa10 f282 	uxtah	r2, r0, r2
 8007da0:	eb02 02c1 	add.w	r2, r2, r1, lsl #3
 8007da4:	2e3e      	cmp	r6, #62	; 0x3e
 8007da6:	8811      	ldrh	r1, [r2, #0]
 8007da8:	f3c1 0109 	ubfx	r1, r1, #0, #10
 8007dac:	8011      	strh	r1, [r2, #0]
 8007dae:	d910      	bls.n	8007dd2 <USB_EPStartXfer+0x1bc>
 8007db0:	8811      	ldrh	r1, [r2, #0]
 8007db2:	0970      	lsrs	r0, r6, #5
 8007db4:	06f7      	lsls	r7, r6, #27
 8007db6:	bf08      	it	eq
 8007db8:	f100 30ff 	addeq.w	r0, r0, #4294967295
 8007dbc:	b289      	uxth	r1, r1
 8007dbe:	ea41 2180 	orr.w	r1, r1, r0, lsl #10
 8007dc2:	ea6f 4141 	mvn.w	r1, r1, lsl #17
 8007dc6:	ea6f 4151 	mvn.w	r1, r1, lsr #17
 8007dca:	b289      	uxth	r1, r1
 8007dcc:	8011      	strh	r1, [r2, #0]
 8007dce:	8962      	ldrh	r2, [r4, #10]
 8007dd0:	e7ac      	b.n	8007d2c <USB_EPStartXfer+0x116>
 8007dd2:	b90e      	cbnz	r6, 8007dd8 <USB_EPStartXfer+0x1c2>
 8007dd4:	8811      	ldrh	r1, [r2, #0]
 8007dd6:	e7f4      	b.n	8007dc2 <USB_EPStartXfer+0x1ac>
 8007dd8:	8811      	ldrh	r1, [r2, #0]
 8007dda:	0870      	lsrs	r0, r6, #1
 8007ddc:	07f6      	lsls	r6, r6, #31
 8007dde:	bf48      	it	mi
 8007de0:	3001      	addmi	r0, #1
 8007de2:	b289      	uxth	r1, r1
 8007de4:	ea41 2180 	orr.w	r1, r1, r0, lsl #10
 8007de8:	e7ef      	b.n	8007dca <USB_EPStartXfer+0x1b4>
 8007dea:	2a01      	cmp	r2, #1
 8007dec:	d1ef      	bne.n	8007dce <USB_EPStartXfer+0x1b8>
 8007dee:	f8b5 2050 	ldrh.w	r2, [r5, #80]	; 0x50
 8007df2:	7821      	ldrb	r1, [r4, #0]
 8007df4:	f205 4006 	addw	r0, r5, #1030	; 0x406
 8007df8:	fa10 f282 	uxtah	r2, r0, r2
 8007dfc:	eb02 02c1 	add.w	r2, r2, r1, lsl #3
 8007e00:	8013      	strh	r3, [r2, #0]
 8007e02:	e7e4      	b.n	8007dce <USB_EPStartXfer+0x1b8>
 8007e04:	f422 42e2 	bic.w	r2, r2, #28928	; 0x7100
 8007e08:	f022 0270 	bic.w	r2, r2, #112	; 0x70
 8007e0c:	0412      	lsls	r2, r2, #16
 8007e0e:	0c12      	lsrs	r2, r2, #16
 8007e10:	f442 4200 	orr.w	r2, r2, #32768	; 0x8000
 8007e14:	f042 0280 	orr.w	r2, r2, #128	; 0x80
 8007e18:	f820 202c 	strh.w	r2, [r0, ip, lsl #2]
 8007e1c:	f8b0 2050 	ldrh.w	r2, [r0, #80]	; 0x50
 8007e20:	f200 4302 	addw	r3, r0, #1026	; 0x402
 8007e24:	fa13 f282 	uxtah	r2, r3, r2
 8007e28:	b2b3      	uxth	r3, r6
 8007e2a:	f822 303c 	strh.w	r3, [r2, ip, lsl #3]
 8007e2e:	8922      	ldrh	r2, [r4, #8]
 8007e30:	e77e      	b.n	8007d30 <USB_EPStartXfer+0x11a>
 8007e32:	f830 202c 	ldrh.w	r2, [r0, ip, lsl #2]
 8007e36:	1bf6      	subs	r6, r6, r7
 8007e38:	f012 0f40 	tst.w	r2, #64	; 0x40
 8007e3c:	6226      	str	r6, [r4, #32]
 8007e3e:	f8b0 2050 	ldrh.w	r2, [r0, #80]	; 0x50
 8007e42:	b2bb      	uxth	r3, r7
 8007e44:	d007      	beq.n	8007e56 <USB_EPStartXfer+0x240>
 8007e46:	f200 4606 	addw	r6, r0, #1030	; 0x406
 8007e4a:	fa16 f282 	uxtah	r2, r6, r2
 8007e4e:	f822 303c 	strh.w	r3, [r2, ip, lsl #3]
 8007e52:	8962      	ldrh	r2, [r4, #10]
 8007e54:	e76c      	b.n	8007d30 <USB_EPStartXfer+0x11a>
 8007e56:	f200 4602 	addw	r6, r0, #1026	; 0x402
 8007e5a:	fa16 f282 	uxtah	r2, r6, r2
 8007e5e:	e7e4      	b.n	8007e2a <USB_EPStartXfer+0x214>
 8007e60:	2e00      	cmp	r6, #0
 8007e62:	d13c      	bne.n	8007ede <USB_EPStartXfer+0x2c8>
 8007e64:	698a      	ldr	r2, [r1, #24]
 8007e66:	690b      	ldr	r3, [r1, #16]
 8007e68:	429a      	cmp	r2, r3
 8007e6a:	bf84      	itt	hi
 8007e6c:	1ad6      	subhi	r6, r2, r3
 8007e6e:	461a      	movhi	r2, r3
 8007e70:	f8b0 3050 	ldrh.w	r3, [r0, #80]	; 0x50
 8007e74:	618e      	str	r6, [r1, #24]
 8007e76:	f200 4006 	addw	r0, r0, #1030	; 0x406
 8007e7a:	7809      	ldrb	r1, [r1, #0]
 8007e7c:	fa10 f383 	uxtah	r3, r0, r3
 8007e80:	eb03 03c1 	add.w	r3, r3, r1, lsl #3
 8007e84:	2a3e      	cmp	r2, #62	; 0x3e
 8007e86:	8819      	ldrh	r1, [r3, #0]
 8007e88:	f3c1 0109 	ubfx	r1, r1, #0, #10
 8007e8c:	8019      	strh	r1, [r3, #0]
 8007e8e:	d91a      	bls.n	8007ec6 <USB_EPStartXfer+0x2b0>
 8007e90:	0951      	lsrs	r1, r2, #5
 8007e92:	06d0      	lsls	r0, r2, #27
 8007e94:	881a      	ldrh	r2, [r3, #0]
 8007e96:	bf08      	it	eq
 8007e98:	f101 31ff 	addeq.w	r1, r1, #4294967295
 8007e9c:	b292      	uxth	r2, r2
 8007e9e:	ea42 2281 	orr.w	r2, r2, r1, lsl #10
 8007ea2:	ea6f 4242 	mvn.w	r2, r2, lsl #17
 8007ea6:	ea6f 4252 	mvn.w	r2, r2, lsr #17
 8007eaa:	b292      	uxth	r2, r2
 8007eac:	801a      	strh	r2, [r3, #0]
 8007eae:	7822      	ldrb	r2, [r4, #0]
 8007eb0:	f835 3022 	ldrh.w	r3, [r5, r2, lsl #2]
 8007eb4:	f423 4380 	bic.w	r3, r3, #16384	; 0x4000
 8007eb8:	f023 0370 	bic.w	r3, r3, #112	; 0x70
 8007ebc:	041b      	lsls	r3, r3, #16
 8007ebe:	0c1b      	lsrs	r3, r3, #16
 8007ec0:	f483 5340 	eor.w	r3, r3, #12288	; 0x3000
 8007ec4:	e6d2      	b.n	8007c6c <USB_EPStartXfer+0x56>
 8007ec6:	b90a      	cbnz	r2, 8007ecc <USB_EPStartXfer+0x2b6>
 8007ec8:	881a      	ldrh	r2, [r3, #0]
 8007eca:	e7ea      	b.n	8007ea2 <USB_EPStartXfer+0x28c>
 8007ecc:	0851      	lsrs	r1, r2, #1
 8007ece:	07d2      	lsls	r2, r2, #31
 8007ed0:	881a      	ldrh	r2, [r3, #0]
 8007ed2:	bf48      	it	mi
 8007ed4:	3101      	addmi	r1, #1
 8007ed6:	b292      	uxth	r2, r2
 8007ed8:	ea42 2281 	orr.w	r2, r2, r1, lsl #10
 8007edc:	e7e5      	b.n	8007eaa <USB_EPStartXfer+0x294>
 8007ede:	78cb      	ldrb	r3, [r1, #3]
 8007ee0:	2b02      	cmp	r3, #2
 8007ee2:	d174      	bne.n	8007fce <USB_EPStartXfer+0x3b8>
 8007ee4:	2a00      	cmp	r2, #0
 8007ee6:	d14c      	bne.n	8007f82 <USB_EPStartXfer+0x36c>
 8007ee8:	f8b0 2050 	ldrh.w	r2, [r0, #80]	; 0x50
 8007eec:	780b      	ldrb	r3, [r1, #0]
 8007eee:	f200 4102 	addw	r1, r0, #1026	; 0x402
 8007ef2:	fa11 f282 	uxtah	r2, r1, r2
 8007ef6:	eb02 02c3 	add.w	r2, r2, r3, lsl #3
 8007efa:	8813      	ldrh	r3, [r2, #0]
 8007efc:	f3c3 0309 	ubfx	r3, r3, #0, #10
 8007f00:	8013      	strh	r3, [r2, #0]
 8007f02:	6923      	ldr	r3, [r4, #16]
 8007f04:	2b3e      	cmp	r3, #62	; 0x3e
 8007f06:	d921      	bls.n	8007f4c <USB_EPStartXfer+0x336>
 8007f08:	8811      	ldrh	r1, [r2, #0]
 8007f0a:	0958      	lsrs	r0, r3, #5
 8007f0c:	06df      	lsls	r7, r3, #27
 8007f0e:	bf08      	it	eq
 8007f10:	f100 30ff 	addeq.w	r0, r0, #4294967295
 8007f14:	b289      	uxth	r1, r1
 8007f16:	ea41 2180 	orr.w	r1, r1, r0, lsl #10
 8007f1a:	ea6f 4141 	mvn.w	r1, r1, lsl #17
 8007f1e:	ea6f 4151 	mvn.w	r1, r1, lsr #17
 8007f22:	b289      	uxth	r1, r1
 8007f24:	8011      	strh	r1, [r2, #0]
 8007f26:	f8b5 2050 	ldrh.w	r2, [r5, #80]	; 0x50
 8007f2a:	7821      	ldrb	r1, [r4, #0]
 8007f2c:	f205 4006 	addw	r0, r5, #1030	; 0x406
 8007f30:	fa10 f282 	uxtah	r2, r0, r2
 8007f34:	eb02 02c1 	add.w	r2, r2, r1, lsl #3
 8007f38:	2b3e      	cmp	r3, #62	; 0x3e
 8007f3a:	8811      	ldrh	r1, [r2, #0]
 8007f3c:	f3c1 0109 	ubfx	r1, r1, #0, #10
 8007f40:	8011      	strh	r1, [r2, #0]
 8007f42:	d80f      	bhi.n	8007f64 <USB_EPStartXfer+0x34e>
 8007f44:	2b00      	cmp	r3, #0
 8007f46:	d139      	bne.n	8007fbc <USB_EPStartXfer+0x3a6>
 8007f48:	8813      	ldrh	r3, [r2, #0]
 8007f4a:	e014      	b.n	8007f76 <USB_EPStartXfer+0x360>
 8007f4c:	b90b      	cbnz	r3, 8007f52 <USB_EPStartXfer+0x33c>
 8007f4e:	8811      	ldrh	r1, [r2, #0]
 8007f50:	e7e3      	b.n	8007f1a <USB_EPStartXfer+0x304>
 8007f52:	8811      	ldrh	r1, [r2, #0]
 8007f54:	0858      	lsrs	r0, r3, #1
 8007f56:	07de      	lsls	r6, r3, #31
 8007f58:	bf48      	it	mi
 8007f5a:	3001      	addmi	r0, #1
 8007f5c:	b289      	uxth	r1, r1
 8007f5e:	ea41 2180 	orr.w	r1, r1, r0, lsl #10
 8007f62:	e7de      	b.n	8007f22 <USB_EPStartXfer+0x30c>
 8007f64:	0959      	lsrs	r1, r3, #5
 8007f66:	06d8      	lsls	r0, r3, #27
 8007f68:	8813      	ldrh	r3, [r2, #0]
 8007f6a:	bf08      	it	eq
 8007f6c:	f101 31ff 	addeq.w	r1, r1, #4294967295
 8007f70:	b29b      	uxth	r3, r3
 8007f72:	ea43 2381 	orr.w	r3, r3, r1, lsl #10
 8007f76:	ea6f 4343 	mvn.w	r3, r3, lsl #17
 8007f7a:	ea6f 4353 	mvn.w	r3, r3, lsr #17
 8007f7e:	b29b      	uxth	r3, r3
 8007f80:	8013      	strh	r3, [r2, #0]
 8007f82:	69e3      	ldr	r3, [r4, #28]
 8007f84:	2b00      	cmp	r3, #0
 8007f86:	d092      	beq.n	8007eae <USB_EPStartXfer+0x298>
 8007f88:	7822      	ldrb	r2, [r4, #0]
 8007f8a:	f835 1022 	ldrh.w	r1, [r5, r2, lsl #2]
 8007f8e:	f244 0340 	movw	r3, #16448	; 0x4040
 8007f92:	ea03 0001 	and.w	r0, r3, r1
 8007f96:	438b      	bics	r3, r1
 8007f98:	d001      	beq.n	8007f9e <USB_EPStartXfer+0x388>
 8007f9a:	2800      	cmp	r0, #0
 8007f9c:	d187      	bne.n	8007eae <USB_EPStartXfer+0x298>
 8007f9e:	f835 3022 	ldrh.w	r3, [r5, r2, lsl #2]
 8007fa2:	f423 43e0 	bic.w	r3, r3, #28672	; 0x7000
 8007fa6:	f023 0370 	bic.w	r3, r3, #112	; 0x70
 8007faa:	041b      	lsls	r3, r3, #16
 8007fac:	0c1b      	lsrs	r3, r3, #16
 8007fae:	f443 4300 	orr.w	r3, r3, #32768	; 0x8000
 8007fb2:	f043 03c0 	orr.w	r3, r3, #192	; 0xc0
 8007fb6:	f825 3022 	strh.w	r3, [r5, r2, lsl #2]
 8007fba:	e778      	b.n	8007eae <USB_EPStartXfer+0x298>
 8007fbc:	0859      	lsrs	r1, r3, #1
 8007fbe:	07db      	lsls	r3, r3, #31
 8007fc0:	8813      	ldrh	r3, [r2, #0]
 8007fc2:	bf48      	it	mi
 8007fc4:	3101      	addmi	r1, #1
 8007fc6:	b29b      	uxth	r3, r3
 8007fc8:	ea43 2381 	orr.w	r3, r3, r1, lsl #10
 8007fcc:	e7d7      	b.n	8007f7e <USB_EPStartXfer+0x368>
 8007fce:	2b01      	cmp	r3, #1
 8007fd0:	d15f      	bne.n	8008092 <USB_EPStartXfer+0x47c>
 8007fd2:	698b      	ldr	r3, [r1, #24]
 8007fd4:	6909      	ldr	r1, [r1, #16]
 8007fd6:	428b      	cmp	r3, r1
 8007fd8:	bf8a      	itet	hi
 8007fda:	1a58      	subhi	r0, r3, r1
 8007fdc:	2000      	movls	r0, #0
 8007fde:	460b      	movhi	r3, r1
 8007fe0:	61a0      	str	r0, [r4, #24]
 8007fe2:	2a00      	cmp	r2, #0
 8007fe4:	f47f af63 	bne.w	8007eae <USB_EPStartXfer+0x298>
 8007fe8:	f8b5 2050 	ldrh.w	r2, [r5, #80]	; 0x50
 8007fec:	7821      	ldrb	r1, [r4, #0]
 8007fee:	f205 4002 	addw	r0, r5, #1026	; 0x402
 8007ff2:	fa10 f282 	uxtah	r2, r0, r2
 8007ff6:	eb02 02c1 	add.w	r2, r2, r1, lsl #3
 8007ffa:	2b3e      	cmp	r3, #62	; 0x3e
 8007ffc:	8811      	ldrh	r1, [r2, #0]
 8007ffe:	f3c1 0109 	ubfx	r1, r1, #0, #10
 8008002:	8011      	strh	r1, [r2, #0]
 8008004:	d920      	bls.n	8008048 <USB_EPStartXfer+0x432>
 8008006:	8811      	ldrh	r1, [r2, #0]
 8008008:	0958      	lsrs	r0, r3, #5
 800800a:	06df      	lsls	r7, r3, #27
 800800c:	bf08      	it	eq
 800800e:	f100 30ff 	addeq.w	r0, r0, #4294967295
 8008012:	b289      	uxth	r1, r1
 8008014:	ea41 2180 	orr.w	r1, r1, r0, lsl #10
 8008018:	ea6f 4141 	mvn.w	r1, r1, lsl #17
 800801c:	ea6f 4151 	mvn.w	r1, r1, lsr #17
 8008020:	b289      	uxth	r1, r1
 8008022:	8011      	strh	r1, [r2, #0]
 8008024:	f8b5 2050 	ldrh.w	r2, [r5, #80]	; 0x50
 8008028:	7821      	ldrb	r1, [r4, #0]
 800802a:	f205 4006 	addw	r0, r5, #1030	; 0x406
 800802e:	fa10 f282 	uxtah	r2, r0, r2
 8008032:	eb02 02c1 	add.w	r2, r2, r1, lsl #3
 8008036:	2b3e      	cmp	r3, #62	; 0x3e
 8008038:	8811      	ldrh	r1, [r2, #0]
 800803a:	f3c1 0109 	ubfx	r1, r1, #0, #10
 800803e:	8011      	strh	r1, [r2, #0]
 8008040:	d80e      	bhi.n	8008060 <USB_EPStartXfer+0x44a>
 8008042:	b9eb      	cbnz	r3, 8008080 <USB_EPStartXfer+0x46a>
 8008044:	8813      	ldrh	r3, [r2, #0]
 8008046:	e014      	b.n	8008072 <USB_EPStartXfer+0x45c>
 8008048:	b90b      	cbnz	r3, 800804e <USB_EPStartXfer+0x438>
 800804a:	8811      	ldrh	r1, [r2, #0]
 800804c:	e7e4      	b.n	8008018 <USB_EPStartXfer+0x402>
 800804e:	8811      	ldrh	r1, [r2, #0]
 8008050:	0858      	lsrs	r0, r3, #1
 8008052:	07de      	lsls	r6, r3, #31
 8008054:	bf48      	it	mi
 8008056:	3001      	addmi	r0, #1
 8008058:	b289      	uxth	r1, r1
 800805a:	ea41 2180 	orr.w	r1, r1, r0, lsl #10
 800805e:	e7df      	b.n	8008020 <USB_EPStartXfer+0x40a>
 8008060:	0959      	lsrs	r1, r3, #5
 8008062:	06d8      	lsls	r0, r3, #27
 8008064:	8813      	ldrh	r3, [r2, #0]
 8008066:	bf08      	it	eq
 8008068:	f101 31ff 	addeq.w	r1, r1, #4294967295
 800806c:	b29b      	uxth	r3, r3
 800806e:	ea43 2381 	orr.w	r3, r3, r1, lsl #10
 8008072:	ea6f 4343 	mvn.w	r3, r3, lsl #17
 8008076:	ea6f 4353 	mvn.w	r3, r3, lsr #17
 800807a:	b29b      	uxth	r3, r3
 800807c:	8013      	strh	r3, [r2, #0]
 800807e:	e716      	b.n	8007eae <USB_EPStartXfer+0x298>
 8008080:	0859      	lsrs	r1, r3, #1
 8008082:	07db      	lsls	r3, r3, #31
 8008084:	8813      	ldrh	r3, [r2, #0]
 8008086:	bf48      	it	mi
 8008088:	3101      	addmi	r1, #1
 800808a:	b29b      	uxth	r3, r3
 800808c:	ea43 2381 	orr.w	r3, r3, r1, lsl #10
 8008090:	e7f3      	b.n	800807a <USB_EPStartXfer+0x464>
 8008092:	2001      	movs	r0, #1
 8008094:	e5f1      	b.n	8007c7a <USB_EPStartXfer+0x64>

08008096 <USB_ReadPMA>:
 8008096:	f502 6280 	add.w	r2, r2, #1024	; 0x400
 800809a:	b5f0      	push	{r4, r5, r6, r7, lr}
 800809c:	4410      	add	r0, r2
 800809e:	085d      	lsrs	r5, r3, #1
 80080a0:	460c      	mov	r4, r1
 80080a2:	462e      	mov	r6, r5
 80080a4:	1a47      	subs	r7, r0, r1
 80080a6:	193a      	adds	r2, r7, r4
 80080a8:	3402      	adds	r4, #2
 80080aa:	b936      	cbnz	r6, 80080ba <USB_ReadPMA+0x24>
 80080ac:	07db      	lsls	r3, r3, #31
 80080ae:	bf44      	itt	mi
 80080b0:	f830 3015 	ldrhmi.w	r3, [r0, r5, lsl #1]
 80080b4:	f801 3015 	strbmi.w	r3, [r1, r5, lsl #1]
 80080b8:	bdf0      	pop	{r4, r5, r6, r7, pc}
 80080ba:	8812      	ldrh	r2, [r2, #0]
 80080bc:	b292      	uxth	r2, r2
 80080be:	f804 2c02 	strb.w	r2, [r4, #-2]
 80080c2:	0a12      	lsrs	r2, r2, #8
 80080c4:	f804 2c01 	strb.w	r2, [r4, #-1]
 80080c8:	3e01      	subs	r6, #1
 80080ca:	e7ec      	b.n	80080a6 <USB_ReadPMA+0x10>

080080cc <MX_FATFS_Init>:
 80080cc:	b508      	push	{r3, lr}
 80080ce:	4903      	ldr	r1, [pc, #12]	; (80080dc <MX_FATFS_Init+0x10>)
 80080d0:	4803      	ldr	r0, [pc, #12]	; (80080e0 <MX_FATFS_Init+0x14>)
 80080d2:	f003 fa39 	bl	800b548 <FATFS_LinkDriver>
 80080d6:	4b03      	ldr	r3, [pc, #12]	; (80080e4 <MX_FATFS_Init+0x18>)
 80080d8:	7018      	strb	r0, [r3, #0]
 80080da:	bd08      	pop	{r3, pc}
 80080dc:	2000986c 	.word	0x2000986c
 80080e0:	20000010 	.word	0x20000010
 80080e4:	20009870 	.word	0x20009870

080080e8 <get_fattime>:
 80080e8:	2000      	movs	r0, #0
 80080ea:	4770      	bx	lr

080080ec <SD_ReadyWait>:
 80080ec:	b510      	push	{r4, lr}
 80080ee:	4c06      	ldr	r4, [pc, #24]	; (8008108 <SD_ReadyWait+0x1c>)
 80080f0:	2332      	movs	r3, #50	; 0x32
 80080f2:	7023      	strb	r3, [r4, #0]
 80080f4:	f003 fe7a 	bl	800bdec <SPI_RxByte>
 80080f8:	f003 fe78 	bl	800bdec <SPI_RxByte>
 80080fc:	28ff      	cmp	r0, #255	; 0xff
 80080fe:	d002      	beq.n	8008106 <SD_ReadyWait+0x1a>
 8008100:	7823      	ldrb	r3, [r4, #0]
 8008102:	2b00      	cmp	r3, #0
 8008104:	d1f8      	bne.n	80080f8 <SD_ReadyWait+0xc>
 8008106:	bd10      	pop	{r4, pc}
 8008108:	20009862 	.word	0x20009862

0800810c <SD_PowerOn>:
 800810c:	b537      	push	{r0, r1, r2, r4, r5, lr}
 800810e:	4819      	ldr	r0, [pc, #100]	; (8008174 <SD_PowerOn+0x68>)
 8008110:	2201      	movs	r2, #1
 8008112:	2108      	movs	r1, #8
 8008114:	f7fc f904 	bl	8004320 <HAL_GPIO_WritePin>
 8008118:	240a      	movs	r4, #10
 800811a:	20ff      	movs	r0, #255	; 0xff
 800811c:	f003 fe60 	bl	800bde0 <SPI_TxByte>
 8008120:	3c01      	subs	r4, #1
 8008122:	d1fa      	bne.n	800811a <SD_PowerOn+0xe>
 8008124:	4813      	ldr	r0, [pc, #76]	; (8008174 <SD_PowerOn+0x68>)
 8008126:	4622      	mov	r2, r4
 8008128:	2108      	movs	r1, #8
 800812a:	f7fc f8f9 	bl	8004320 <HAL_GPIO_WritePin>
 800812e:	2340      	movs	r3, #64	; 0x40
 8008130:	9300      	str	r3, [sp, #0]
 8008132:	f44f 4315 	mov.w	r3, #38144	; 0x9500
 8008136:	f8ad 3004 	strh.w	r3, [sp, #4]
 800813a:	466d      	mov	r5, sp
 800813c:	f815 0b01 	ldrb.w	r0, [r5], #1
 8008140:	3401      	adds	r4, #1
 8008142:	f003 fe4d 	bl	800bde0 <SPI_TxByte>
 8008146:	2c06      	cmp	r4, #6
 8008148:	d1f8      	bne.n	800813c <SD_PowerOn+0x30>
 800814a:	f44f 5400 	mov.w	r4, #8192	; 0x2000
 800814e:	f003 fe4d 	bl	800bdec <SPI_RxByte>
 8008152:	2801      	cmp	r0, #1
 8008154:	d001      	beq.n	800815a <SD_PowerOn+0x4e>
 8008156:	3c01      	subs	r4, #1
 8008158:	d1f9      	bne.n	800814e <SD_PowerOn+0x42>
 800815a:	2201      	movs	r2, #1
 800815c:	2108      	movs	r1, #8
 800815e:	4805      	ldr	r0, [pc, #20]	; (8008174 <SD_PowerOn+0x68>)
 8008160:	f7fc f8de 	bl	8004320 <HAL_GPIO_WritePin>
 8008164:	20ff      	movs	r0, #255	; 0xff
 8008166:	f003 fe3b 	bl	800bde0 <SPI_TxByte>
 800816a:	4b03      	ldr	r3, [pc, #12]	; (8008178 <SD_PowerOn+0x6c>)
 800816c:	2201      	movs	r2, #1
 800816e:	701a      	strb	r2, [r3, #0]
 8008170:	b003      	add	sp, #12
 8008172:	bd30      	pop	{r4, r5, pc}
 8008174:	48000800 	.word	0x48000800
 8008178:	20009871 	.word	0x20009871

0800817c <SD_RxDataBlock>:
 800817c:	b570      	push	{r4, r5, r6, lr}
 800817e:	4e11      	ldr	r6, [pc, #68]	; (80081c4 <SD_RxDataBlock+0x48>)
 8008180:	230a      	movs	r3, #10
 8008182:	4604      	mov	r4, r0
 8008184:	460d      	mov	r5, r1
 8008186:	7033      	strb	r3, [r6, #0]
 8008188:	f003 fe30 	bl	800bdec <SPI_RxByte>
 800818c:	28ff      	cmp	r0, #255	; 0xff
 800818e:	d103      	bne.n	8008198 <SD_RxDataBlock+0x1c>
 8008190:	7830      	ldrb	r0, [r6, #0]
 8008192:	2800      	cmp	r0, #0
 8008194:	d1f8      	bne.n	8008188 <SD_RxDataBlock+0xc>
 8008196:	bd70      	pop	{r4, r5, r6, pc}
 8008198:	28fe      	cmp	r0, #254	; 0xfe
 800819a:	d110      	bne.n	80081be <SD_RxDataBlock+0x42>
 800819c:	4425      	add	r5, r4
 800819e:	4620      	mov	r0, r4
 80081a0:	4626      	mov	r6, r4
 80081a2:	f003 fe29 	bl	800bdf8 <SPI_RxBytePtr>
 80081a6:	3402      	adds	r4, #2
 80081a8:	1c70      	adds	r0, r6, #1
 80081aa:	f003 fe25 	bl	800bdf8 <SPI_RxBytePtr>
 80081ae:	42a5      	cmp	r5, r4
 80081b0:	d1f5      	bne.n	800819e <SD_RxDataBlock+0x22>
 80081b2:	f003 fe1b 	bl	800bdec <SPI_RxByte>
 80081b6:	f003 fe19 	bl	800bdec <SPI_RxByte>
 80081ba:	2001      	movs	r0, #1
 80081bc:	e7eb      	b.n	8008196 <SD_RxDataBlock+0x1a>
 80081be:	2000      	movs	r0, #0
 80081c0:	e7e9      	b.n	8008196 <SD_RxDataBlock+0x1a>
 80081c2:	bf00      	nop
 80081c4:	20009861 	.word	0x20009861

080081c8 <SD_TxDataBlock>:
 80081c8:	b570      	push	{r4, r5, r6, lr}
 80081ca:	4605      	mov	r5, r0
 80081cc:	460e      	mov	r6, r1
 80081ce:	f7ff ff8d 	bl	80080ec <SD_ReadyWait>
 80081d2:	28ff      	cmp	r0, #255	; 0xff
 80081d4:	f04f 0400 	mov.w	r4, #0
 80081d8:	d12c      	bne.n	8008234 <SD_TxDataBlock+0x6c>
 80081da:	4630      	mov	r0, r6
 80081dc:	f003 fe00 	bl	800bde0 <SPI_TxByte>
 80081e0:	2efd      	cmp	r6, #253	; 0xfd
 80081e2:	d021      	beq.n	8008228 <SD_TxDataBlock+0x60>
 80081e4:	1cac      	adds	r4, r5, #2
 80081e6:	f205 2502 	addw	r5, r5, #514	; 0x202
 80081ea:	f814 0c02 	ldrb.w	r0, [r4, #-2]
 80081ee:	f003 fdf7 	bl	800bde0 <SPI_TxByte>
 80081f2:	3402      	adds	r4, #2
 80081f4:	f814 0c03 	ldrb.w	r0, [r4, #-3]
 80081f8:	f003 fdf2 	bl	800bde0 <SPI_TxByte>
 80081fc:	42ac      	cmp	r4, r5
 80081fe:	d1f4      	bne.n	80081ea <SD_TxDataBlock+0x22>
 8008200:	f003 fdf4 	bl	800bdec <SPI_RxByte>
 8008204:	f003 fdf2 	bl	800bdec <SPI_RxByte>
 8008208:	2541      	movs	r5, #65	; 0x41
 800820a:	f003 fdef 	bl	800bdec <SPI_RxByte>
 800820e:	f000 031f 	and.w	r3, r0, #31
 8008212:	2b05      	cmp	r3, #5
 8008214:	4604      	mov	r4, r0
 8008216:	d003      	beq.n	8008220 <SD_TxDataBlock+0x58>
 8008218:	3d01      	subs	r5, #1
 800821a:	f015 05ff 	ands.w	r5, r5, #255	; 0xff
 800821e:	d1f4      	bne.n	800820a <SD_TxDataBlock+0x42>
 8008220:	f003 fde4 	bl	800bdec <SPI_RxByte>
 8008224:	2800      	cmp	r0, #0
 8008226:	d0fb      	beq.n	8008220 <SD_TxDataBlock+0x58>
 8008228:	f004 041f 	and.w	r4, r4, #31
 800822c:	1f63      	subs	r3, r4, #5
 800822e:	4258      	negs	r0, r3
 8008230:	4158      	adcs	r0, r3
 8008232:	bd70      	pop	{r4, r5, r6, pc}
 8008234:	4620      	mov	r0, r4
 8008236:	e7fc      	b.n	8008232 <SD_TxDataBlock+0x6a>

08008238 <SD_SendCmd>:
 8008238:	b538      	push	{r3, r4, r5, lr}
 800823a:	4604      	mov	r4, r0
 800823c:	460d      	mov	r5, r1
 800823e:	f7ff ff55 	bl	80080ec <SD_ReadyWait>
 8008242:	28ff      	cmp	r0, #255	; 0xff
 8008244:	d128      	bne.n	8008298 <SD_SendCmd+0x60>
 8008246:	4620      	mov	r0, r4
 8008248:	f003 fdca 	bl	800bde0 <SPI_TxByte>
 800824c:	0e28      	lsrs	r0, r5, #24
 800824e:	f003 fdc7 	bl	800bde0 <SPI_TxByte>
 8008252:	f3c5 4007 	ubfx	r0, r5, #16, #8
 8008256:	f003 fdc3 	bl	800bde0 <SPI_TxByte>
 800825a:	f3c5 2007 	ubfx	r0, r5, #8, #8
 800825e:	f003 fdbf 	bl	800bde0 <SPI_TxByte>
 8008262:	b2e8      	uxtb	r0, r5
 8008264:	f003 fdbc 	bl	800bde0 <SPI_TxByte>
 8008268:	2c40      	cmp	r4, #64	; 0x40
 800826a:	d013      	beq.n	8008294 <SD_SendCmd+0x5c>
 800826c:	2c48      	cmp	r4, #72	; 0x48
 800826e:	bf14      	ite	ne
 8008270:	2000      	movne	r0, #0
 8008272:	2087      	moveq	r0, #135	; 0x87
 8008274:	f003 fdb4 	bl	800bde0 <SPI_TxByte>
 8008278:	2c4c      	cmp	r4, #76	; 0x4c
 800827a:	d101      	bne.n	8008280 <SD_SendCmd+0x48>
 800827c:	f003 fdb6 	bl	800bdec <SPI_RxByte>
 8008280:	240a      	movs	r4, #10
 8008282:	f003 fdb3 	bl	800bdec <SPI_RxByte>
 8008286:	0603      	lsls	r3, r0, #24
 8008288:	d503      	bpl.n	8008292 <SD_SendCmd+0x5a>
 800828a:	3c01      	subs	r4, #1
 800828c:	f014 04ff 	ands.w	r4, r4, #255	; 0xff
 8008290:	d1f7      	bne.n	8008282 <SD_SendCmd+0x4a>
 8008292:	bd38      	pop	{r3, r4, r5, pc}
 8008294:	2095      	movs	r0, #149	; 0x95
 8008296:	e7ed      	b.n	8008274 <SD_SendCmd+0x3c>
 8008298:	20ff      	movs	r0, #255	; 0xff
 800829a:	e7fa      	b.n	8008292 <SD_SendCmd+0x5a>

0800829c <SD_disk_read>:
 800829c:	b570      	push	{r4, r5, r6, lr}
 800829e:	460e      	mov	r6, r1
 80082a0:	4615      	mov	r5, r2
 80082a2:	461c      	mov	r4, r3
 80082a4:	2800      	cmp	r0, #0
 80082a6:	d13e      	bne.n	8008326 <SD_disk_read+0x8a>
 80082a8:	2b00      	cmp	r3, #0
 80082aa:	d03c      	beq.n	8008326 <SD_disk_read+0x8a>
 80082ac:	4b20      	ldr	r3, [pc, #128]	; (8008330 <SD_disk_read+0x94>)
 80082ae:	781b      	ldrb	r3, [r3, #0]
 80082b0:	07da      	lsls	r2, r3, #31
 80082b2:	d43a      	bmi.n	800832a <SD_disk_read+0x8e>
 80082b4:	4b1f      	ldr	r3, [pc, #124]	; (8008334 <SD_disk_read+0x98>)
 80082b6:	4820      	ldr	r0, [pc, #128]	; (8008338 <SD_disk_read+0x9c>)
 80082b8:	781b      	ldrb	r3, [r3, #0]
 80082ba:	2108      	movs	r1, #8
 80082bc:	071b      	lsls	r3, r3, #28
 80082be:	f04f 0200 	mov.w	r2, #0
 80082c2:	bf58      	it	pl
 80082c4:	026d      	lslpl	r5, r5, #9
 80082c6:	f7fc f82b 	bl	8004320 <HAL_GPIO_WritePin>
 80082ca:	2c01      	cmp	r4, #1
 80082cc:	4629      	mov	r1, r5
 80082ce:	d116      	bne.n	80082fe <SD_disk_read+0x62>
 80082d0:	2051      	movs	r0, #81	; 0x51
 80082d2:	f7ff ffb1 	bl	8008238 <SD_SendCmd>
 80082d6:	b938      	cbnz	r0, 80082e8 <SD_disk_read+0x4c>
 80082d8:	f44f 7100 	mov.w	r1, #512	; 0x200
 80082dc:	4630      	mov	r0, r6
 80082de:	f7ff ff4d 	bl	800817c <SD_RxDataBlock>
 80082e2:	fab0 f480 	clz	r4, r0
 80082e6:	0964      	lsrs	r4, r4, #5
 80082e8:	4813      	ldr	r0, [pc, #76]	; (8008338 <SD_disk_read+0x9c>)
 80082ea:	2201      	movs	r2, #1
 80082ec:	2108      	movs	r1, #8
 80082ee:	f7fc f817 	bl	8004320 <HAL_GPIO_WritePin>
 80082f2:	f003 fd7b 	bl	800bdec <SPI_RxByte>
 80082f6:	1e20      	subs	r0, r4, #0
 80082f8:	bf18      	it	ne
 80082fa:	2001      	movne	r0, #1
 80082fc:	bd70      	pop	{r4, r5, r6, pc}
 80082fe:	2052      	movs	r0, #82	; 0x52
 8008300:	f7ff ff9a 	bl	8008238 <SD_SendCmd>
 8008304:	2800      	cmp	r0, #0
 8008306:	d1ef      	bne.n	80082e8 <SD_disk_read+0x4c>
 8008308:	f44f 7100 	mov.w	r1, #512	; 0x200
 800830c:	4630      	mov	r0, r6
 800830e:	f7ff ff35 	bl	800817c <SD_RxDataBlock>
 8008312:	b118      	cbz	r0, 800831c <SD_disk_read+0x80>
 8008314:	3c01      	subs	r4, #1
 8008316:	f506 7600 	add.w	r6, r6, #512	; 0x200
 800831a:	d1f5      	bne.n	8008308 <SD_disk_read+0x6c>
 800831c:	2100      	movs	r1, #0
 800831e:	204c      	movs	r0, #76	; 0x4c
 8008320:	f7ff ff8a 	bl	8008238 <SD_SendCmd>
 8008324:	e7e0      	b.n	80082e8 <SD_disk_read+0x4c>
 8008326:	2004      	movs	r0, #4
 8008328:	e7e8      	b.n	80082fc <SD_disk_read+0x60>
 800832a:	2003      	movs	r0, #3
 800832c:	e7e6      	b.n	80082fc <SD_disk_read+0x60>
 800832e:	bf00      	nop
 8008330:	20000024 	.word	0x20000024
 8008334:	20009872 	.word	0x20009872
 8008338:	48000800 	.word	0x48000800

0800833c <SD_disk_write>:
 800833c:	b5f8      	push	{r3, r4, r5, r6, r7, lr}
 800833e:	460d      	mov	r5, r1
 8008340:	4616      	mov	r6, r2
 8008342:	461c      	mov	r4, r3
 8008344:	2800      	cmp	r0, #0
 8008346:	d14d      	bne.n	80083e4 <SD_disk_write+0xa8>
 8008348:	2b00      	cmp	r3, #0
 800834a:	d04b      	beq.n	80083e4 <SD_disk_write+0xa8>
 800834c:	4b28      	ldr	r3, [pc, #160]	; (80083f0 <SD_disk_write+0xb4>)
 800834e:	781b      	ldrb	r3, [r3, #0]
 8008350:	07d8      	lsls	r0, r3, #31
 8008352:	d449      	bmi.n	80083e8 <SD_disk_write+0xac>
 8008354:	0759      	lsls	r1, r3, #29
 8008356:	d449      	bmi.n	80083ec <SD_disk_write+0xb0>
 8008358:	4f26      	ldr	r7, [pc, #152]	; (80083f4 <SD_disk_write+0xb8>)
 800835a:	4827      	ldr	r0, [pc, #156]	; (80083f8 <SD_disk_write+0xbc>)
 800835c:	783b      	ldrb	r3, [r7, #0]
 800835e:	2108      	movs	r1, #8
 8008360:	075a      	lsls	r2, r3, #29
 8008362:	f04f 0200 	mov.w	r2, #0
 8008366:	bf58      	it	pl
 8008368:	0276      	lslpl	r6, r6, #9
 800836a:	f7fb ffd9 	bl	8004320 <HAL_GPIO_WritePin>
 800836e:	2c01      	cmp	r4, #1
 8008370:	d116      	bne.n	80083a0 <SD_disk_write+0x64>
 8008372:	4631      	mov	r1, r6
 8008374:	2058      	movs	r0, #88	; 0x58
 8008376:	f7ff ff5f 	bl	8008238 <SD_SendCmd>
 800837a:	bb88      	cbnz	r0, 80083e0 <SD_disk_write+0xa4>
 800837c:	21fe      	movs	r1, #254	; 0xfe
 800837e:	4628      	mov	r0, r5
 8008380:	f7ff ff22 	bl	80081c8 <SD_TxDataBlock>
 8008384:	fab0 f480 	clz	r4, r0
 8008388:	0964      	lsrs	r4, r4, #5
 800838a:	481b      	ldr	r0, [pc, #108]	; (80083f8 <SD_disk_write+0xbc>)
 800838c:	2201      	movs	r2, #1
 800838e:	2108      	movs	r1, #8
 8008390:	f7fb ffc6 	bl	8004320 <HAL_GPIO_WritePin>
 8008394:	f003 fd2a 	bl	800bdec <SPI_RxByte>
 8008398:	1e20      	subs	r0, r4, #0
 800839a:	bf18      	it	ne
 800839c:	2001      	movne	r0, #1
 800839e:	bdf8      	pop	{r3, r4, r5, r6, r7, pc}
 80083a0:	783b      	ldrb	r3, [r7, #0]
 80083a2:	079b      	lsls	r3, r3, #30
 80083a4:	d507      	bpl.n	80083b6 <SD_disk_write+0x7a>
 80083a6:	2100      	movs	r1, #0
 80083a8:	2077      	movs	r0, #119	; 0x77
 80083aa:	f7ff ff45 	bl	8008238 <SD_SendCmd>
 80083ae:	4621      	mov	r1, r4
 80083b0:	2057      	movs	r0, #87	; 0x57
 80083b2:	f7ff ff41 	bl	8008238 <SD_SendCmd>
 80083b6:	4631      	mov	r1, r6
 80083b8:	2059      	movs	r0, #89	; 0x59
 80083ba:	f7ff ff3d 	bl	8008238 <SD_SendCmd>
 80083be:	2800      	cmp	r0, #0
 80083c0:	d1e3      	bne.n	800838a <SD_disk_write+0x4e>
 80083c2:	21fc      	movs	r1, #252	; 0xfc
 80083c4:	4628      	mov	r0, r5
 80083c6:	f7ff feff 	bl	80081c8 <SD_TxDataBlock>
 80083ca:	b118      	cbz	r0, 80083d4 <SD_disk_write+0x98>
 80083cc:	3c01      	subs	r4, #1
 80083ce:	f505 7500 	add.w	r5, r5, #512	; 0x200
 80083d2:	d1f6      	bne.n	80083c2 <SD_disk_write+0x86>
 80083d4:	21fd      	movs	r1, #253	; 0xfd
 80083d6:	2000      	movs	r0, #0
 80083d8:	f7ff fef6 	bl	80081c8 <SD_TxDataBlock>
 80083dc:	2800      	cmp	r0, #0
 80083de:	d1d4      	bne.n	800838a <SD_disk_write+0x4e>
 80083e0:	2401      	movs	r4, #1
 80083e2:	e7d2      	b.n	800838a <SD_disk_write+0x4e>
 80083e4:	2004      	movs	r0, #4
 80083e6:	e7da      	b.n	800839e <SD_disk_write+0x62>
 80083e8:	2003      	movs	r0, #3
 80083ea:	e7d8      	b.n	800839e <SD_disk_write+0x62>
 80083ec:	2002      	movs	r0, #2
 80083ee:	e7d6      	b.n	800839e <SD_disk_write+0x62>
 80083f0:	20000024 	.word	0x20000024
 80083f4:	20009872 	.word	0x20009872
 80083f8:	48000800 	.word	0x48000800

080083fc <SD_disk_ioctl>:
 80083fc:	b57f      	push	{r0, r1, r2, r3, r4, r5, r6, lr}
 80083fe:	460e      	mov	r6, r1
 8008400:	4615      	mov	r5, r2
 8008402:	4604      	mov	r4, r0
 8008404:	2800      	cmp	r0, #0
 8008406:	f040 809a 	bne.w	800853e <SD_disk_ioctl+0x142>
 800840a:	2905      	cmp	r1, #5
 800840c:	d116      	bne.n	800843c <SD_disk_ioctl+0x40>
 800840e:	7813      	ldrb	r3, [r2, #0]
 8008410:	2b01      	cmp	r3, #1
 8008412:	d00c      	beq.n	800842e <SD_disk_ioctl+0x32>
 8008414:	2b02      	cmp	r3, #2
 8008416:	d00d      	beq.n	8008434 <SD_disk_ioctl+0x38>
 8008418:	2b00      	cmp	r3, #0
 800841a:	f040 8090 	bne.w	800853e <SD_disk_ioctl+0x142>
 800841e:	4a4a      	ldr	r2, [pc, #296]	; (8008548 <SD_disk_ioctl+0x14c>)
 8008420:	7814      	ldrb	r4, [r2, #0]
 8008422:	b10c      	cbz	r4, 8008428 <SD_disk_ioctl+0x2c>
 8008424:	7013      	strb	r3, [r2, #0]
 8008426:	461c      	mov	r4, r3
 8008428:	4620      	mov	r0, r4
 800842a:	b004      	add	sp, #16
 800842c:	bd70      	pop	{r4, r5, r6, pc}
 800842e:	f7ff fe6d 	bl	800810c <SD_PowerOn>
 8008432:	e7f9      	b.n	8008428 <SD_disk_ioctl+0x2c>
 8008434:	4b44      	ldr	r3, [pc, #272]	; (8008548 <SD_disk_ioctl+0x14c>)
 8008436:	781b      	ldrb	r3, [r3, #0]
 8008438:	7053      	strb	r3, [r2, #1]
 800843a:	e7f5      	b.n	8008428 <SD_disk_ioctl+0x2c>
 800843c:	4b43      	ldr	r3, [pc, #268]	; (800854c <SD_disk_ioctl+0x150>)
 800843e:	781c      	ldrb	r4, [r3, #0]
 8008440:	f014 0401 	ands.w	r4, r4, #1
 8008444:	d17d      	bne.n	8008542 <SD_disk_ioctl+0x146>
 8008446:	4842      	ldr	r0, [pc, #264]	; (8008550 <SD_disk_ioctl+0x154>)
 8008448:	4622      	mov	r2, r4
 800844a:	2108      	movs	r1, #8
 800844c:	f7fb ff68 	bl	8004320 <HAL_GPIO_WritePin>
 8008450:	2e0d      	cmp	r6, #13
 8008452:	d86a      	bhi.n	800852a <SD_disk_ioctl+0x12e>
 8008454:	e8df f006 	tbb	[pc, r6]
 8008458:	6948074c 	.word	0x6948074c
 800845c:	69696969 	.word	0x69696969
 8008460:	53696969 	.word	0x53696969
 8008464:	6461      	.short	0x6461
 8008466:	2100      	movs	r1, #0
 8008468:	2049      	movs	r0, #73	; 0x49
 800846a:	f7ff fee5 	bl	8008238 <SD_SendCmd>
 800846e:	4604      	mov	r4, r0
 8008470:	b140      	cbz	r0, 8008484 <SD_disk_ioctl+0x88>
 8008472:	2401      	movs	r4, #1
 8008474:	2201      	movs	r2, #1
 8008476:	2108      	movs	r1, #8
 8008478:	4835      	ldr	r0, [pc, #212]	; (8008550 <SD_disk_ioctl+0x154>)
 800847a:	f7fb ff51 	bl	8004320 <HAL_GPIO_WritePin>
 800847e:	f003 fcb5 	bl	800bdec <SPI_RxByte>
 8008482:	e7d1      	b.n	8008428 <SD_disk_ioctl+0x2c>
 8008484:	2110      	movs	r1, #16
 8008486:	4668      	mov	r0, sp
 8008488:	f7ff fe78 	bl	800817c <SD_RxDataBlock>
 800848c:	2800      	cmp	r0, #0
 800848e:	d0f0      	beq.n	8008472 <SD_disk_ioctl+0x76>
 8008490:	f89d 1000 	ldrb.w	r1, [sp]
 8008494:	f89d 3009 	ldrb.w	r3, [sp, #9]
 8008498:	f89d 2008 	ldrb.w	r2, [sp, #8]
 800849c:	0989      	lsrs	r1, r1, #6
 800849e:	2901      	cmp	r1, #1
 80084a0:	d106      	bne.n	80084b0 <SD_disk_ioctl+0xb4>
 80084a2:	3301      	adds	r3, #1
 80084a4:	eb03 2302 	add.w	r3, r3, r2, lsl #8
 80084a8:	b29b      	uxth	r3, r3
 80084aa:	029b      	lsls	r3, r3, #10
 80084ac:	602b      	str	r3, [r5, #0]
 80084ae:	e7e1      	b.n	8008474 <SD_disk_ioctl+0x78>
 80084b0:	f89d 1007 	ldrb.w	r1, [sp, #7]
 80084b4:	f89d 000a 	ldrb.w	r0, [sp, #10]
 80084b8:	0992      	lsrs	r2, r2, #6
 80084ba:	eb02 0281 	add.w	r2, r2, r1, lsl #2
 80084be:	f89d 1006 	ldrb.w	r1, [sp, #6]
 80084c2:	0289      	lsls	r1, r1, #10
 80084c4:	f401 6140 	and.w	r1, r1, #3072	; 0xc00
 80084c8:	3201      	adds	r2, #1
 80084ca:	440a      	add	r2, r1
 80084cc:	f89d 1005 	ldrb.w	r1, [sp, #5]
 80084d0:	005b      	lsls	r3, r3, #1
 80084d2:	f001 010f 	and.w	r1, r1, #15
 80084d6:	eb01 11d0 	add.w	r1, r1, r0, lsr #7
 80084da:	f003 0306 	and.w	r3, r3, #6
 80084de:	440b      	add	r3, r1
 80084e0:	3b07      	subs	r3, #7
 80084e2:	fa02 f303 	lsl.w	r3, r2, r3
 80084e6:	e7e1      	b.n	80084ac <SD_disk_ioctl+0xb0>
 80084e8:	f44f 7300 	mov.w	r3, #512	; 0x200
 80084ec:	802b      	strh	r3, [r5, #0]
 80084ee:	e7c1      	b.n	8008474 <SD_disk_ioctl+0x78>
 80084f0:	f7ff fdfc 	bl	80080ec <SD_ReadyWait>
 80084f4:	f1b0 04ff 	subs.w	r4, r0, #255	; 0xff
 80084f8:	bf18      	it	ne
 80084fa:	2401      	movne	r4, #1
 80084fc:	e7ba      	b.n	8008474 <SD_disk_ioctl+0x78>
 80084fe:	2100      	movs	r1, #0
 8008500:	2049      	movs	r0, #73	; 0x49
 8008502:	f7ff fe99 	bl	8008238 <SD_SendCmd>
 8008506:	2800      	cmp	r0, #0
 8008508:	d1b3      	bne.n	8008472 <SD_disk_ioctl+0x76>
 800850a:	2110      	movs	r1, #16
 800850c:	4628      	mov	r0, r5
 800850e:	f7ff fe35 	bl	800817c <SD_RxDataBlock>
 8008512:	fab0 f480 	clz	r4, r0
 8008516:	0964      	lsrs	r4, r4, #5
 8008518:	e7ac      	b.n	8008474 <SD_disk_ioctl+0x78>
 800851a:	2100      	movs	r1, #0
 800851c:	204a      	movs	r0, #74	; 0x4a
 800851e:	e7f0      	b.n	8008502 <SD_disk_ioctl+0x106>
 8008520:	2100      	movs	r1, #0
 8008522:	207a      	movs	r0, #122	; 0x7a
 8008524:	f7ff fe88 	bl	8008238 <SD_SendCmd>
 8008528:	b108      	cbz	r0, 800852e <SD_disk_ioctl+0x132>
 800852a:	2404      	movs	r4, #4
 800852c:	e7a2      	b.n	8008474 <SD_disk_ioctl+0x78>
 800852e:	1d2c      	adds	r4, r5, #4
 8008530:	f003 fc5c 	bl	800bdec <SPI_RxByte>
 8008534:	f805 0b01 	strb.w	r0, [r5], #1
 8008538:	42ac      	cmp	r4, r5
 800853a:	d1f9      	bne.n	8008530 <SD_disk_ioctl+0x134>
 800853c:	e7f5      	b.n	800852a <SD_disk_ioctl+0x12e>
 800853e:	2404      	movs	r4, #4
 8008540:	e772      	b.n	8008428 <SD_disk_ioctl+0x2c>
 8008542:	2403      	movs	r4, #3
 8008544:	e770      	b.n	8008428 <SD_disk_ioctl+0x2c>
 8008546:	bf00      	nop
 8008548:	20009871 	.word	0x20009871
 800854c:	20000024 	.word	0x20000024
 8008550:	48000800 	.word	0x48000800

08008554 <USER_initialize>:
 8008554:	f000 b8ba 	b.w	80086cc <USER_SPI_initialize>

08008558 <USER_status>:
 8008558:	f000 b95a 	b.w	8008810 <USER_SPI_status>

0800855c <USER_read>:
 800855c:	f7ff be9e 	b.w	800829c <SD_disk_read>

08008560 <USER_write>:
 8008560:	f7ff beec 	b.w	800833c <SD_disk_write>

08008564 <USER_ioctl>:
 8008564:	f7ff bf4a 	b.w	80083fc <SD_disk_ioctl>

08008568 <SPI_Timer_On>:
 8008568:	b510      	push	{r4, lr}
 800856a:	4604      	mov	r4, r0
 800856c:	f7fa fe9a 	bl	80032a4 <HAL_GetTick>
 8008570:	4b02      	ldr	r3, [pc, #8]	; (800857c <SPI_Timer_On+0x14>)
 8008572:	6018      	str	r0, [r3, #0]
 8008574:	4b02      	ldr	r3, [pc, #8]	; (8008580 <SPI_Timer_On+0x18>)
 8008576:	601c      	str	r4, [r3, #0]
 8008578:	bd10      	pop	{r4, pc}
 800857a:	bf00      	nop
 800857c:	20009878 	.word	0x20009878
 8008580:	20009874 	.word	0x20009874

08008584 <SPI_Timer_Status>:
 8008584:	b508      	push	{r3, lr}
 8008586:	f7fa fe8d 	bl	80032a4 <HAL_GetTick>
 800858a:	4b05      	ldr	r3, [pc, #20]	; (80085a0 <SPI_Timer_Status+0x1c>)
 800858c:	681b      	ldr	r3, [r3, #0]
 800858e:	1ac0      	subs	r0, r0, r3
 8008590:	4b04      	ldr	r3, [pc, #16]	; (80085a4 <SPI_Timer_Status+0x20>)
 8008592:	681b      	ldr	r3, [r3, #0]
 8008594:	4298      	cmp	r0, r3
 8008596:	bf2c      	ite	cs
 8008598:	2000      	movcs	r0, #0
 800859a:	2001      	movcc	r0, #1
 800859c:	bd08      	pop	{r3, pc}
 800859e:	bf00      	nop
 80085a0:	20009878 	.word	0x20009878
 80085a4:	20009874 	.word	0x20009874

080085a8 <xchg_spi>:
 80085a8:	b57f      	push	{r0, r1, r2, r3, r4, r5, r6, lr}
 80085aa:	2332      	movs	r3, #50	; 0x32
 80085ac:	f88d 000f 	strb.w	r0, [sp, #15]
 80085b0:	9300      	str	r3, [sp, #0]
 80085b2:	f10d 0217 	add.w	r2, sp, #23
 80085b6:	2301      	movs	r3, #1
 80085b8:	f10d 010f 	add.w	r1, sp, #15
 80085bc:	4803      	ldr	r0, [pc, #12]	; (80085cc <xchg_spi+0x24>)
 80085be:	f7fd fbd6 	bl	8005d6e <HAL_SPI_TransmitReceive>
 80085c2:	f89d 0017 	ldrb.w	r0, [sp, #23]
 80085c6:	b007      	add	sp, #28
 80085c8:	f85d fb04 	ldr.w	pc, [sp], #4
 80085cc:	200093c0 	.word	0x200093c0

080085d0 <wait_ready>:
 80085d0:	b570      	push	{r4, r5, r6, lr}
 80085d2:	4605      	mov	r5, r0
 80085d4:	f7fa fe66 	bl	80032a4 <HAL_GetTick>
 80085d8:	4606      	mov	r6, r0
 80085da:	20ff      	movs	r0, #255	; 0xff
 80085dc:	f7ff ffe4 	bl	80085a8 <xchg_spi>
 80085e0:	28ff      	cmp	r0, #255	; 0xff
 80085e2:	4604      	mov	r4, r0
 80085e4:	d004      	beq.n	80085f0 <wait_ready+0x20>
 80085e6:	f7fa fe5d 	bl	80032a4 <HAL_GetTick>
 80085ea:	1b83      	subs	r3, r0, r6
 80085ec:	42ab      	cmp	r3, r5
 80085ee:	d3f4      	bcc.n	80085da <wait_ready+0xa>
 80085f0:	f1a4 03ff 	sub.w	r3, r4, #255	; 0xff
 80085f4:	4258      	negs	r0, r3
 80085f6:	4158      	adcs	r0, r3
 80085f8:	bd70      	pop	{r4, r5, r6, pc}
	...

080085fc <despiselect>:
 80085fc:	b508      	push	{r3, lr}
 80085fe:	4805      	ldr	r0, [pc, #20]	; (8008614 <despiselect+0x18>)
 8008600:	2201      	movs	r2, #1
 8008602:	2108      	movs	r1, #8
 8008604:	f7fb fe8c 	bl	8004320 <HAL_GPIO_WritePin>
 8008608:	e8bd 4008 	ldmia.w	sp!, {r3, lr}
 800860c:	20ff      	movs	r0, #255	; 0xff
 800860e:	f7ff bfcb 	b.w	80085a8 <xchg_spi>
 8008612:	bf00      	nop
 8008614:	48000800 	.word	0x48000800

08008618 <spiselect>:
 8008618:	b510      	push	{r4, lr}
 800861a:	2200      	movs	r2, #0
 800861c:	2108      	movs	r1, #8
 800861e:	4809      	ldr	r0, [pc, #36]	; (8008644 <spiselect+0x2c>)
 8008620:	f7fb fe7e 	bl	8004320 <HAL_GPIO_WritePin>
 8008624:	20ff      	movs	r0, #255	; 0xff
 8008626:	f7ff ffbf 	bl	80085a8 <xchg_spi>
 800862a:	f44f 70fa 	mov.w	r0, #500	; 0x1f4
 800862e:	f7ff ffcf 	bl	80085d0 <wait_ready>
 8008632:	4604      	mov	r4, r0
 8008634:	b918      	cbnz	r0, 800863e <spiselect+0x26>
 8008636:	f7ff ffe1 	bl	80085fc <despiselect>
 800863a:	4620      	mov	r0, r4
 800863c:	bd10      	pop	{r4, pc}
 800863e:	2401      	movs	r4, #1
 8008640:	e7fb      	b.n	800863a <spiselect+0x22>
 8008642:	bf00      	nop
 8008644:	48000800 	.word	0x48000800

08008648 <send_cmd>:
 8008648:	0602      	lsls	r2, r0, #24
 800864a:	b538      	push	{r3, r4, r5, lr}
 800864c:	4604      	mov	r4, r0
 800864e:	460d      	mov	r5, r1
 8008650:	d507      	bpl.n	8008662 <send_cmd+0x1a>
 8008652:	2100      	movs	r1, #0
 8008654:	2037      	movs	r0, #55	; 0x37
 8008656:	f7ff fff7 	bl	8008648 <send_cmd>
 800865a:	2801      	cmp	r0, #1
 800865c:	d82b      	bhi.n	80086b6 <send_cmd+0x6e>
 800865e:	f004 047f 	and.w	r4, r4, #127	; 0x7f
 8008662:	2c0c      	cmp	r4, #12
 8008664:	d128      	bne.n	80086b8 <send_cmd+0x70>
 8008666:	f044 0040 	orr.w	r0, r4, #64	; 0x40
 800866a:	f7ff ff9d 	bl	80085a8 <xchg_spi>
 800866e:	0e28      	lsrs	r0, r5, #24
 8008670:	f7ff ff9a 	bl	80085a8 <xchg_spi>
 8008674:	f3c5 4007 	ubfx	r0, r5, #16, #8
 8008678:	f7ff ff96 	bl	80085a8 <xchg_spi>
 800867c:	f3c5 2007 	ubfx	r0, r5, #8, #8
 8008680:	f7ff ff92 	bl	80085a8 <xchg_spi>
 8008684:	b2e8      	uxtb	r0, r5
 8008686:	f7ff ff8f 	bl	80085a8 <xchg_spi>
 800868a:	b1ec      	cbz	r4, 80086c8 <send_cmd+0x80>
 800868c:	2c08      	cmp	r4, #8
 800868e:	bf14      	ite	ne
 8008690:	2001      	movne	r0, #1
 8008692:	2087      	moveq	r0, #135	; 0x87
 8008694:	f7ff ff88 	bl	80085a8 <xchg_spi>
 8008698:	2c0c      	cmp	r4, #12
 800869a:	d102      	bne.n	80086a2 <send_cmd+0x5a>
 800869c:	20ff      	movs	r0, #255	; 0xff
 800869e:	f7ff ff83 	bl	80085a8 <xchg_spi>
 80086a2:	240a      	movs	r4, #10
 80086a4:	20ff      	movs	r0, #255	; 0xff
 80086a6:	f7ff ff7f 	bl	80085a8 <xchg_spi>
 80086aa:	0603      	lsls	r3, r0, #24
 80086ac:	d503      	bpl.n	80086b6 <send_cmd+0x6e>
 80086ae:	3c01      	subs	r4, #1
 80086b0:	f014 04ff 	ands.w	r4, r4, #255	; 0xff
 80086b4:	d1f6      	bne.n	80086a4 <send_cmd+0x5c>
 80086b6:	bd38      	pop	{r3, r4, r5, pc}
 80086b8:	f7ff ffa0 	bl	80085fc <despiselect>
 80086bc:	f7ff ffac 	bl	8008618 <spiselect>
 80086c0:	2800      	cmp	r0, #0
 80086c2:	d1d0      	bne.n	8008666 <send_cmd+0x1e>
 80086c4:	20ff      	movs	r0, #255	; 0xff
 80086c6:	e7f6      	b.n	80086b6 <send_cmd+0x6e>
 80086c8:	2095      	movs	r0, #149	; 0x95
 80086ca:	e7e3      	b.n	8008694 <send_cmd+0x4c>

080086cc <USER_SPI_initialize>:
 80086cc:	e92d 41f3 	stmdb	sp!, {r0, r1, r4, r5, r6, r7, r8, lr}
 80086d0:	2800      	cmp	r0, #0
 80086d2:	f040 8093 	bne.w	80087fc <USER_SPI_initialize+0x130>
 80086d6:	4e4a      	ldr	r6, [pc, #296]	; (8008800 <USER_SPI_initialize+0x134>)
 80086d8:	7830      	ldrb	r0, [r6, #0]
 80086da:	0783      	lsls	r3, r0, #30
 80086dc:	d46b      	bmi.n	80087b6 <USER_SPI_initialize+0xea>
 80086de:	4f49      	ldr	r7, [pc, #292]	; (8008804 <USER_SPI_initialize+0x138>)
 80086e0:	683a      	ldr	r2, [r7, #0]
 80086e2:	6813      	ldr	r3, [r2, #0]
 80086e4:	f023 0338 	bic.w	r3, r3, #56	; 0x38
 80086e8:	f043 0330 	orr.w	r3, r3, #48	; 0x30
 80086ec:	6013      	str	r3, [r2, #0]
 80086ee:	240a      	movs	r4, #10
 80086f0:	20ff      	movs	r0, #255	; 0xff
 80086f2:	3c01      	subs	r4, #1
 80086f4:	f7ff ff58 	bl	80085a8 <xchg_spi>
 80086f8:	f014 04ff 	ands.w	r4, r4, #255	; 0xff
 80086fc:	d1f8      	bne.n	80086f0 <USER_SPI_initialize+0x24>
 80086fe:	4621      	mov	r1, r4
 8008700:	4620      	mov	r0, r4
 8008702:	f7ff ffa1 	bl	8008648 <send_cmd>
 8008706:	2801      	cmp	r0, #1
 8008708:	4605      	mov	r5, r0
 800870a:	d173      	bne.n	80087f4 <USER_SPI_initialize+0x128>
 800870c:	f44f 707a 	mov.w	r0, #1000	; 0x3e8
 8008710:	f7ff ff2a 	bl	8008568 <SPI_Timer_On>
 8008714:	f44f 71d5 	mov.w	r1, #426	; 0x1aa
 8008718:	2008      	movs	r0, #8
 800871a:	f7ff ff95 	bl	8008648 <send_cmd>
 800871e:	2801      	cmp	r0, #1
 8008720:	d14c      	bne.n	80087bc <USER_SPI_initialize+0xf0>
 8008722:	ad01      	add	r5, sp, #4
 8008724:	46a8      	mov	r8, r5
 8008726:	2404      	movs	r4, #4
 8008728:	20ff      	movs	r0, #255	; 0xff
 800872a:	f7ff ff3d 	bl	80085a8 <xchg_spi>
 800872e:	3c01      	subs	r4, #1
 8008730:	f014 04ff 	ands.w	r4, r4, #255	; 0xff
 8008734:	f808 0b01 	strb.w	r0, [r8], #1
 8008738:	d1f6      	bne.n	8008728 <USER_SPI_initialize+0x5c>
 800873a:	f89d 3006 	ldrb.w	r3, [sp, #6]
 800873e:	2b01      	cmp	r3, #1
 8008740:	d158      	bne.n	80087f4 <USER_SPI_initialize+0x128>
 8008742:	f89d 3007 	ldrb.w	r3, [sp, #7]
 8008746:	2baa      	cmp	r3, #170	; 0xaa
 8008748:	d154      	bne.n	80087f4 <USER_SPI_initialize+0x128>
 800874a:	f7ff ff1b 	bl	8008584 <SPI_Timer_Status>
 800874e:	b130      	cbz	r0, 800875e <USER_SPI_initialize+0x92>
 8008750:	f04f 4180 	mov.w	r1, #1073741824	; 0x40000000
 8008754:	20a9      	movs	r0, #169	; 0xa9
 8008756:	f7ff ff77 	bl	8008648 <send_cmd>
 800875a:	2800      	cmp	r0, #0
 800875c:	d1f5      	bne.n	800874a <USER_SPI_initialize+0x7e>
 800875e:	f7ff ff11 	bl	8008584 <SPI_Timer_Status>
 8008762:	2800      	cmp	r0, #0
 8008764:	d046      	beq.n	80087f4 <USER_SPI_initialize+0x128>
 8008766:	2100      	movs	r1, #0
 8008768:	203a      	movs	r0, #58	; 0x3a
 800876a:	f7ff ff6d 	bl	8008648 <send_cmd>
 800876e:	2800      	cmp	r0, #0
 8008770:	d140      	bne.n	80087f4 <USER_SPI_initialize+0x128>
 8008772:	2404      	movs	r4, #4
 8008774:	20ff      	movs	r0, #255	; 0xff
 8008776:	f7ff ff17 	bl	80085a8 <xchg_spi>
 800877a:	3c01      	subs	r4, #1
 800877c:	f014 04ff 	ands.w	r4, r4, #255	; 0xff
 8008780:	f805 0b01 	strb.w	r0, [r5], #1
 8008784:	d1f6      	bne.n	8008774 <USER_SPI_initialize+0xa8>
 8008786:	f89d 3004 	ldrb.w	r3, [sp, #4]
 800878a:	f013 0f40 	tst.w	r3, #64	; 0x40
 800878e:	bf14      	ite	ne
 8008790:	240c      	movne	r4, #12
 8008792:	2404      	moveq	r4, #4
 8008794:	4b1c      	ldr	r3, [pc, #112]	; (8008808 <USER_SPI_initialize+0x13c>)
 8008796:	481d      	ldr	r0, [pc, #116]	; (800880c <USER_SPI_initialize+0x140>)
 8008798:	701c      	strb	r4, [r3, #0]
 800879a:	2201      	movs	r2, #1
 800879c:	2108      	movs	r1, #8
 800879e:	f7fb fdbf 	bl	8004320 <HAL_GPIO_WritePin>
 80087a2:	b34c      	cbz	r4, 80087f8 <USER_SPI_initialize+0x12c>
 80087a4:	683a      	ldr	r2, [r7, #0]
 80087a6:	6813      	ldr	r3, [r2, #0]
 80087a8:	f023 0338 	bic.w	r3, r3, #56	; 0x38
 80087ac:	6013      	str	r3, [r2, #0]
 80087ae:	7830      	ldrb	r0, [r6, #0]
 80087b0:	f000 00fe 	and.w	r0, r0, #254	; 0xfe
 80087b4:	7030      	strb	r0, [r6, #0]
 80087b6:	b002      	add	sp, #8
 80087b8:	e8bd 81f0 	ldmia.w	sp!, {r4, r5, r6, r7, r8, pc}
 80087bc:	4621      	mov	r1, r4
 80087be:	20a9      	movs	r0, #169	; 0xa9
 80087c0:	f7ff ff42 	bl	8008648 <send_cmd>
 80087c4:	2802      	cmp	r0, #2
 80087c6:	bf36      	itet	cc
 80087c8:	2402      	movcc	r4, #2
 80087ca:	2401      	movcs	r4, #1
 80087cc:	25a9      	movcc	r5, #169	; 0xa9
 80087ce:	f7ff fed9 	bl	8008584 <SPI_Timer_Status>
 80087d2:	b128      	cbz	r0, 80087e0 <USER_SPI_initialize+0x114>
 80087d4:	2100      	movs	r1, #0
 80087d6:	4628      	mov	r0, r5
 80087d8:	f7ff ff36 	bl	8008648 <send_cmd>
 80087dc:	2800      	cmp	r0, #0
 80087de:	d1f6      	bne.n	80087ce <USER_SPI_initialize+0x102>
 80087e0:	f7ff fed0 	bl	8008584 <SPI_Timer_Status>
 80087e4:	b130      	cbz	r0, 80087f4 <USER_SPI_initialize+0x128>
 80087e6:	f44f 7100 	mov.w	r1, #512	; 0x200
 80087ea:	2010      	movs	r0, #16
 80087ec:	f7ff ff2c 	bl	8008648 <send_cmd>
 80087f0:	2800      	cmp	r0, #0
 80087f2:	d0cf      	beq.n	8008794 <USER_SPI_initialize+0xc8>
 80087f4:	2400      	movs	r4, #0
 80087f6:	e7cd      	b.n	8008794 <USER_SPI_initialize+0xc8>
 80087f8:	2001      	movs	r0, #1
 80087fa:	e7db      	b.n	80087b4 <USER_SPI_initialize+0xe8>
 80087fc:	2001      	movs	r0, #1
 80087fe:	e7da      	b.n	80087b6 <USER_SPI_initialize+0xea>
 8008800:	20000024 	.word	0x20000024
 8008804:	200093c0 	.word	0x200093c0
 8008808:	20009872 	.word	0x20009872
 800880c:	48000800 	.word	0x48000800

08008810 <USER_SPI_status>:
 8008810:	b910      	cbnz	r0, 8008818 <USER_SPI_status+0x8>
 8008812:	4b02      	ldr	r3, [pc, #8]	; (800881c <USER_SPI_status+0xc>)
 8008814:	7818      	ldrb	r0, [r3, #0]
 8008816:	4770      	bx	lr
 8008818:	2001      	movs	r0, #1
 800881a:	4770      	bx	lr
 800881c:	20000024 	.word	0x20000024

08008820 <ILI9341_SPI_Send>:
 8008820:	b507      	push	{r0, r1, r2, lr}
 8008822:	2301      	movs	r3, #1
 8008824:	f88d 0007 	strb.w	r0, [sp, #7]
 8008828:	461a      	mov	r2, r3
 800882a:	f10d 0107 	add.w	r1, sp, #7
 800882e:	4803      	ldr	r0, [pc, #12]	; (800883c <ILI9341_SPI_Send+0x1c>)
 8008830:	f7fd f9d3 	bl	8005bda <HAL_SPI_Transmit>
 8008834:	b003      	add	sp, #12
 8008836:	f85d fb04 	ldr.w	pc, [sp], #4
 800883a:	bf00      	nop
 800883c:	20009880 	.word	0x20009880

08008840 <ILI9341_Send_Command>:
 8008840:	b510      	push	{r4, lr}
 8008842:	2201      	movs	r2, #1
 8008844:	4604      	mov	r4, r0
 8008846:	2108      	movs	r1, #8
 8008848:	4810      	ldr	r0, [pc, #64]	; (800888c <ILI9341_Send_Command+0x4c>)
 800884a:	f7fb fd69 	bl	8004320 <HAL_GPIO_WritePin>
 800884e:	480f      	ldr	r0, [pc, #60]	; (800888c <ILI9341_Send_Command+0x4c>)
 8008850:	2200      	movs	r2, #0
 8008852:	2180      	movs	r1, #128	; 0x80
 8008854:	f7fb fd64 	bl	8004320 <HAL_GPIO_WritePin>
 8008858:	480c      	ldr	r0, [pc, #48]	; (800888c <ILI9341_Send_Command+0x4c>)
 800885a:	2201      	movs	r2, #1
 800885c:	2108      	movs	r1, #8
 800885e:	f7fb fd5f 	bl	8004320 <HAL_GPIO_WritePin>
 8008862:	480a      	ldr	r0, [pc, #40]	; (800888c <ILI9341_Send_Command+0x4c>)
 8008864:	2200      	movs	r2, #0
 8008866:	2180      	movs	r1, #128	; 0x80
 8008868:	f7fb fd5a 	bl	8004320 <HAL_GPIO_WritePin>
 800886c:	4807      	ldr	r0, [pc, #28]	; (800888c <ILI9341_Send_Command+0x4c>)
 800886e:	2200      	movs	r2, #0
 8008870:	f44f 7100 	mov.w	r1, #512	; 0x200
 8008874:	f7fb fd54 	bl	8004320 <HAL_GPIO_WritePin>
 8008878:	4804      	ldr	r0, [pc, #16]	; (800888c <ILI9341_Send_Command+0x4c>)
 800887a:	2200      	movs	r2, #0
 800887c:	2180      	movs	r1, #128	; 0x80
 800887e:	f7fb fd4f 	bl	8004320 <HAL_GPIO_WritePin>
 8008882:	4620      	mov	r0, r4
 8008884:	e8bd 4010 	ldmia.w	sp!, {r4, lr}
 8008888:	f7ff bfca 	b.w	8008820 <ILI9341_SPI_Send>
 800888c:	48000800 	.word	0x48000800

08008890 <ILI9341_Send_Data>:
 8008890:	b510      	push	{r4, lr}
 8008892:	2201      	movs	r2, #1
 8008894:	4604      	mov	r4, r0
 8008896:	2108      	movs	r1, #8
 8008898:	4810      	ldr	r0, [pc, #64]	; (80088dc <ILI9341_Send_Data+0x4c>)
 800889a:	f7fb fd41 	bl	8004320 <HAL_GPIO_WritePin>
 800889e:	480f      	ldr	r0, [pc, #60]	; (80088dc <ILI9341_Send_Data+0x4c>)
 80088a0:	2200      	movs	r2, #0
 80088a2:	2180      	movs	r1, #128	; 0x80
 80088a4:	f7fb fd3c 	bl	8004320 <HAL_GPIO_WritePin>
 80088a8:	480c      	ldr	r0, [pc, #48]	; (80088dc <ILI9341_Send_Data+0x4c>)
 80088aa:	2201      	movs	r2, #1
 80088ac:	2108      	movs	r1, #8
 80088ae:	f7fb fd37 	bl	8004320 <HAL_GPIO_WritePin>
 80088b2:	480a      	ldr	r0, [pc, #40]	; (80088dc <ILI9341_Send_Data+0x4c>)
 80088b4:	2200      	movs	r2, #0
 80088b6:	2180      	movs	r1, #128	; 0x80
 80088b8:	f7fb fd32 	bl	8004320 <HAL_GPIO_WritePin>
 80088bc:	4807      	ldr	r0, [pc, #28]	; (80088dc <ILI9341_Send_Data+0x4c>)
 80088be:	2201      	movs	r2, #1
 80088c0:	f44f 7100 	mov.w	r1, #512	; 0x200
 80088c4:	f7fb fd2c 	bl	8004320 <HAL_GPIO_WritePin>
 80088c8:	4804      	ldr	r0, [pc, #16]	; (80088dc <ILI9341_Send_Data+0x4c>)
 80088ca:	2200      	movs	r2, #0
 80088cc:	2180      	movs	r1, #128	; 0x80
 80088ce:	f7fb fd27 	bl	8004320 <HAL_GPIO_WritePin>
 80088d2:	4620      	mov	r0, r4
 80088d4:	e8bd 4010 	ldmia.w	sp!, {r4, lr}
 80088d8:	f7ff bfa2 	b.w	8008820 <ILI9341_SPI_Send>
 80088dc:	48000800 	.word	0x48000800

080088e0 <ILI9341_Reset>:
 80088e0:	b510      	push	{r4, lr}
 80088e2:	4c13      	ldr	r4, [pc, #76]	; (8008930 <ILI9341_Reset+0x50>)
 80088e4:	2201      	movs	r2, #1
 80088e6:	4620      	mov	r0, r4
 80088e8:	2108      	movs	r1, #8
 80088ea:	f7fb fd19 	bl	8004320 <HAL_GPIO_WritePin>
 80088ee:	2200      	movs	r2, #0
 80088f0:	f44f 7180 	mov.w	r1, #256	; 0x100
 80088f4:	4620      	mov	r0, r4
 80088f6:	f7fb fd13 	bl	8004320 <HAL_GPIO_WritePin>
 80088fa:	2032      	movs	r0, #50	; 0x32
 80088fc:	f7fa fcd8 	bl	80032b0 <HAL_Delay>
 8008900:	4620      	mov	r0, r4
 8008902:	2201      	movs	r2, #1
 8008904:	f44f 7180 	mov.w	r1, #256	; 0x100
 8008908:	f7fb fd0a 	bl	8004320 <HAL_GPIO_WritePin>
 800890c:	2200      	movs	r2, #0
 800890e:	2180      	movs	r1, #128	; 0x80
 8008910:	4620      	mov	r0, r4
 8008912:	f7fb fd05 	bl	8004320 <HAL_GPIO_WritePin>
 8008916:	2032      	movs	r0, #50	; 0x32
 8008918:	f7fa fcca 	bl	80032b0 <HAL_Delay>
 800891c:	2001      	movs	r0, #1
 800891e:	f7ff ff8f 	bl	8008840 <ILI9341_Send_Command>
 8008922:	4620      	mov	r0, r4
 8008924:	2201      	movs	r2, #1
 8008926:	e8bd 4010 	ldmia.w	sp!, {r4, lr}
 800892a:	2180      	movs	r1, #128	; 0x80
 800892c:	f7fb bcf8 	b.w	8004320 <HAL_GPIO_WritePin>
 8008930:	48000800 	.word	0x48000800

08008934 <ILI9341_Init>:
 8008934:	b508      	push	{r3, lr}
 8008936:	4892      	ldr	r0, [pc, #584]	; (8008b80 <ILI9341_Init+0x24c>)
 8008938:	2201      	movs	r2, #1
 800893a:	2108      	movs	r1, #8
 800893c:	f7fb fcf0 	bl	8004320 <HAL_GPIO_WritePin>
 8008940:	488f      	ldr	r0, [pc, #572]	; (8008b80 <ILI9341_Init+0x24c>)
 8008942:	2200      	movs	r2, #0
 8008944:	2180      	movs	r1, #128	; 0x80
 8008946:	f7fb fceb 	bl	8004320 <HAL_GPIO_WritePin>
 800894a:	488e      	ldr	r0, [pc, #568]	; (8008b84 <ILI9341_Init+0x250>)
 800894c:	4a8e      	ldr	r2, [pc, #568]	; (8008b88 <ILI9341_Init+0x254>)
 800894e:	f44f 7382 	mov.w	r3, #260	; 0x104
 8008952:	e9c0 2300 	strd	r2, r3, [r0]
 8008956:	2300      	movs	r3, #0
 8008958:	f44f 62e0 	mov.w	r2, #1792	; 0x700
 800895c:	e9c0 3202 	strd	r3, r2, [r0, #8]
 8008960:	f44f 7200 	mov.w	r2, #512	; 0x200
 8008964:	e9c0 3304 	strd	r3, r3, [r0, #16]
 8008968:	e9c0 2306 	strd	r2, r3, [r0, #24]
 800896c:	e9c0 3308 	strd	r3, r3, [r0, #32]
 8008970:	6283      	str	r3, [r0, #40]	; 0x28
 8008972:	230a      	movs	r3, #10
 8008974:	62c3      	str	r3, [r0, #44]	; 0x2c
 8008976:	f7fd f8c2 	bl	8005afe <HAL_SPI_Init>
 800897a:	b108      	cbz	r0, 8008980 <ILI9341_Init+0x4c>
 800897c:	f7fa f886 	bl	8002a8c <Error_Handler>
 8008980:	f7ff ffae 	bl	80088e0 <ILI9341_Reset>
 8008984:	2001      	movs	r0, #1
 8008986:	f7ff ff5b 	bl	8008840 <ILI9341_Send_Command>
 800898a:	20cb      	movs	r0, #203	; 0xcb
 800898c:	f7ff ff58 	bl	8008840 <ILI9341_Send_Command>
 8008990:	2039      	movs	r0, #57	; 0x39
 8008992:	f7ff ff7d 	bl	8008890 <ILI9341_Send_Data>
 8008996:	202c      	movs	r0, #44	; 0x2c
 8008998:	f7ff ff7a 	bl	8008890 <ILI9341_Send_Data>
 800899c:	2000      	movs	r0, #0
 800899e:	f7ff ff77 	bl	8008890 <ILI9341_Send_Data>
 80089a2:	2034      	movs	r0, #52	; 0x34
 80089a4:	f7ff ff74 	bl	8008890 <ILI9341_Send_Data>
 80089a8:	2002      	movs	r0, #2
 80089aa:	f7ff ff71 	bl	8008890 <ILI9341_Send_Data>
 80089ae:	20cf      	movs	r0, #207	; 0xcf
 80089b0:	f7ff ff46 	bl	8008840 <ILI9341_Send_Command>
 80089b4:	2000      	movs	r0, #0
 80089b6:	f7ff ff6b 	bl	8008890 <ILI9341_Send_Data>
 80089ba:	20c1      	movs	r0, #193	; 0xc1
 80089bc:	f7ff ff68 	bl	8008890 <ILI9341_Send_Data>
 80089c0:	2030      	movs	r0, #48	; 0x30
 80089c2:	f7ff ff65 	bl	8008890 <ILI9341_Send_Data>
 80089c6:	20e8      	movs	r0, #232	; 0xe8
 80089c8:	f7ff ff3a 	bl	8008840 <ILI9341_Send_Command>
 80089cc:	2085      	movs	r0, #133	; 0x85
 80089ce:	f7ff ff5f 	bl	8008890 <ILI9341_Send_Data>
 80089d2:	2000      	movs	r0, #0
 80089d4:	f7ff ff5c 	bl	8008890 <ILI9341_Send_Data>
 80089d8:	2078      	movs	r0, #120	; 0x78
 80089da:	f7ff ff59 	bl	8008890 <ILI9341_Send_Data>
 80089de:	20ea      	movs	r0, #234	; 0xea
 80089e0:	f7ff ff2e 	bl	8008840 <ILI9341_Send_Command>
 80089e4:	2000      	movs	r0, #0
 80089e6:	f7ff ff53 	bl	8008890 <ILI9341_Send_Data>
 80089ea:	2000      	movs	r0, #0
 80089ec:	f7ff ff50 	bl	8008890 <ILI9341_Send_Data>
 80089f0:	20ed      	movs	r0, #237	; 0xed
 80089f2:	f7ff ff25 	bl	8008840 <ILI9341_Send_Command>
 80089f6:	2064      	movs	r0, #100	; 0x64
 80089f8:	f7ff ff4a 	bl	8008890 <ILI9341_Send_Data>
 80089fc:	2003      	movs	r0, #3
 80089fe:	f7ff ff47 	bl	8008890 <ILI9341_Send_Data>
 8008a02:	2012      	movs	r0, #18
 8008a04:	f7ff ff44 	bl	8008890 <ILI9341_Send_Data>
 8008a08:	2081      	movs	r0, #129	; 0x81
 8008a0a:	f7ff ff41 	bl	8008890 <ILI9341_Send_Data>
 8008a0e:	20f7      	movs	r0, #247	; 0xf7
 8008a10:	f7ff ff16 	bl	8008840 <ILI9341_Send_Command>
 8008a14:	2020      	movs	r0, #32
 8008a16:	f7ff ff3b 	bl	8008890 <ILI9341_Send_Data>
 8008a1a:	20c0      	movs	r0, #192	; 0xc0
 8008a1c:	f7ff ff10 	bl	8008840 <ILI9341_Send_Command>
 8008a20:	2010      	movs	r0, #16
 8008a22:	f7ff ff35 	bl	8008890 <ILI9341_Send_Data>
 8008a26:	20c1      	movs	r0, #193	; 0xc1
 8008a28:	f7ff ff0a 	bl	8008840 <ILI9341_Send_Command>
 8008a2c:	2010      	movs	r0, #16
 8008a2e:	f7ff ff2f 	bl	8008890 <ILI9341_Send_Data>
 8008a32:	20c5      	movs	r0, #197	; 0xc5
 8008a34:	f7ff ff04 	bl	8008840 <ILI9341_Send_Command>
 8008a38:	203e      	movs	r0, #62	; 0x3e
 8008a3a:	f7ff ff29 	bl	8008890 <ILI9341_Send_Data>
 8008a3e:	2028      	movs	r0, #40	; 0x28
 8008a40:	f7ff ff26 	bl	8008890 <ILI9341_Send_Data>
 8008a44:	20c7      	movs	r0, #199	; 0xc7
 8008a46:	f7ff fefb 	bl	8008840 <ILI9341_Send_Command>
 8008a4a:	2086      	movs	r0, #134	; 0x86
 8008a4c:	f7ff ff20 	bl	8008890 <ILI9341_Send_Data>
 8008a50:	2036      	movs	r0, #54	; 0x36
 8008a52:	f7ff fef5 	bl	8008840 <ILI9341_Send_Command>
 8008a56:	2048      	movs	r0, #72	; 0x48
 8008a58:	f7ff ff1a 	bl	8008890 <ILI9341_Send_Data>
 8008a5c:	203a      	movs	r0, #58	; 0x3a
 8008a5e:	f7ff feef 	bl	8008840 <ILI9341_Send_Command>
 8008a62:	2055      	movs	r0, #85	; 0x55
 8008a64:	f7ff ff14 	bl	8008890 <ILI9341_Send_Data>
 8008a68:	20b1      	movs	r0, #177	; 0xb1
 8008a6a:	f7ff fee9 	bl	8008840 <ILI9341_Send_Command>
 8008a6e:	2000      	movs	r0, #0
 8008a70:	f7ff ff0e 	bl	8008890 <ILI9341_Send_Data>
 8008a74:	2018      	movs	r0, #24
 8008a76:	f7ff ff0b 	bl	8008890 <ILI9341_Send_Data>
 8008a7a:	20b6      	movs	r0, #182	; 0xb6
 8008a7c:	f7ff fee0 	bl	8008840 <ILI9341_Send_Command>
 8008a80:	2008      	movs	r0, #8
 8008a82:	f7ff ff05 	bl	8008890 <ILI9341_Send_Data>
 8008a86:	2082      	movs	r0, #130	; 0x82
 8008a88:	f7ff ff02 	bl	8008890 <ILI9341_Send_Data>
 8008a8c:	2027      	movs	r0, #39	; 0x27
 8008a8e:	f7ff feff 	bl	8008890 <ILI9341_Send_Data>
 8008a92:	20f2      	movs	r0, #242	; 0xf2
 8008a94:	f7ff fed4 	bl	8008840 <ILI9341_Send_Command>
 8008a98:	2000      	movs	r0, #0
 8008a9a:	f7ff fef9 	bl	8008890 <ILI9341_Send_Data>
 8008a9e:	2026      	movs	r0, #38	; 0x26
 8008aa0:	f7ff fece 	bl	8008840 <ILI9341_Send_Command>
 8008aa4:	2001      	movs	r0, #1
 8008aa6:	f7ff fef3 	bl	8008890 <ILI9341_Send_Data>
 8008aaa:	20e0      	movs	r0, #224	; 0xe0
 8008aac:	f7ff fec8 	bl	8008840 <ILI9341_Send_Command>
 8008ab0:	200f      	movs	r0, #15
 8008ab2:	f7ff feed 	bl	8008890 <ILI9341_Send_Data>
 8008ab6:	2031      	movs	r0, #49	; 0x31
 8008ab8:	f7ff feea 	bl	8008890 <ILI9341_Send_Data>
 8008abc:	202b      	movs	r0, #43	; 0x2b
 8008abe:	f7ff fee7 	bl	8008890 <ILI9341_Send_Data>
 8008ac2:	200c      	movs	r0, #12
 8008ac4:	f7ff fee4 	bl	8008890 <ILI9341_Send_Data>
 8008ac8:	200e      	movs	r0, #14
 8008aca:	f7ff fee1 	bl	8008890 <ILI9341_Send_Data>
 8008ace:	2008      	movs	r0, #8
 8008ad0:	f7ff fede 	bl	8008890 <ILI9341_Send_Data>
 8008ad4:	204e      	movs	r0, #78	; 0x4e
 8008ad6:	f7ff fedb 	bl	8008890 <ILI9341_Send_Data>
 8008ada:	20f1      	movs	r0, #241	; 0xf1
 8008adc:	f7ff fed8 	bl	8008890 <ILI9341_Send_Data>
 8008ae0:	2037      	movs	r0, #55	; 0x37
 8008ae2:	f7ff fed5 	bl	8008890 <ILI9341_Send_Data>
 8008ae6:	2007      	movs	r0, #7
 8008ae8:	f7ff fed2 	bl	8008890 <ILI9341_Send_Data>
 8008aec:	2010      	movs	r0, #16
 8008aee:	f7ff fecf 	bl	8008890 <ILI9341_Send_Data>
 8008af2:	2003      	movs	r0, #3
 8008af4:	f7ff fecc 	bl	8008890 <ILI9341_Send_Data>
 8008af8:	200e      	movs	r0, #14
 8008afa:	f7ff fec9 	bl	8008890 <ILI9341_Send_Data>
 8008afe:	2009      	movs	r0, #9
 8008b00:	f7ff fec6 	bl	8008890 <ILI9341_Send_Data>
 8008b04:	2000      	movs	r0, #0
 8008b06:	f7ff fec3 	bl	8008890 <ILI9341_Send_Data>
 8008b0a:	20e1      	movs	r0, #225	; 0xe1
 8008b0c:	f7ff fe98 	bl	8008840 <ILI9341_Send_Command>
 8008b10:	2000      	movs	r0, #0
 8008b12:	f7ff febd 	bl	8008890 <ILI9341_Send_Data>
 8008b16:	200e      	movs	r0, #14
 8008b18:	f7ff feba 	bl	8008890 <ILI9341_Send_Data>
 8008b1c:	2014      	movs	r0, #20
 8008b1e:	f7ff feb7 	bl	8008890 <ILI9341_Send_Data>
 8008b22:	2003      	movs	r0, #3
 8008b24:	f7ff feb4 	bl	8008890 <ILI9341_Send_Data>
 8008b28:	2011      	movs	r0, #17
 8008b2a:	f7ff feb1 	bl	8008890 <ILI9341_Send_Data>
 8008b2e:	2007      	movs	r0, #7
 8008b30:	f7ff feae 	bl	8008890 <ILI9341_Send_Data>
 8008b34:	2031      	movs	r0, #49	; 0x31
 8008b36:	f7ff feab 	bl	8008890 <ILI9341_Send_Data>
 8008b3a:	20c1      	movs	r0, #193	; 0xc1
 8008b3c:	f7ff fea8 	bl	8008890 <ILI9341_Send_Data>
 8008b40:	2048      	movs	r0, #72	; 0x48
 8008b42:	f7ff fea5 	bl	8008890 <ILI9341_Send_Data>
 8008b46:	2008      	movs	r0, #8
 8008b48:	f7ff fea2 	bl	8008890 <ILI9341_Send_Data>
 8008b4c:	200f      	movs	r0, #15
 8008b4e:	f7ff fe9f 	bl	8008890 <ILI9341_Send_Data>
 8008b52:	200c      	movs	r0, #12
 8008b54:	f7ff fe9c 	bl	8008890 <ILI9341_Send_Data>
 8008b58:	2031      	movs	r0, #49	; 0x31
 8008b5a:	f7ff fe99 	bl	8008890 <ILI9341_Send_Data>
 8008b5e:	2036      	movs	r0, #54	; 0x36
 8008b60:	f7ff fe96 	bl	8008890 <ILI9341_Send_Data>
 8008b64:	200f      	movs	r0, #15
 8008b66:	f7ff fe93 	bl	8008890 <ILI9341_Send_Data>
 8008b6a:	2011      	movs	r0, #17
 8008b6c:	f7ff fe68 	bl	8008840 <ILI9341_Send_Command>
 8008b70:	2029      	movs	r0, #41	; 0x29
 8008b72:	f7ff fe65 	bl	8008840 <ILI9341_Send_Command>
 8008b76:	e8bd 4008 	ldmia.w	sp!, {r3, lr}
 8008b7a:	202c      	movs	r0, #44	; 0x2c
 8008b7c:	f7ff be88 	b.w	8008890 <ILI9341_Send_Data>
 8008b80:	48000800 	.word	0x48000800
 8008b84:	20009880 	.word	0x20009880
 8008b88:	40003c00 	.word	0x40003c00

08008b8c <ILI9341_Set_Rotation>:
 8008b8c:	b510      	push	{r4, lr}
 8008b8e:	2201      	movs	r2, #1
 8008b90:	4604      	mov	r4, r0
 8008b92:	2108      	movs	r1, #8
 8008b94:	4818      	ldr	r0, [pc, #96]	; (8008bf8 <ILI9341_Set_Rotation+0x6c>)
 8008b96:	f7fb fbc3 	bl	8004320 <HAL_GPIO_WritePin>
 8008b9a:	4817      	ldr	r0, [pc, #92]	; (8008bf8 <ILI9341_Set_Rotation+0x6c>)
 8008b9c:	2200      	movs	r2, #0
 8008b9e:	2180      	movs	r1, #128	; 0x80
 8008ba0:	f7fb fbbe 	bl	8004320 <HAL_GPIO_WritePin>
 8008ba4:	4b15      	ldr	r3, [pc, #84]	; (8008bfc <ILI9341_Set_Rotation+0x70>)
 8008ba6:	2036      	movs	r0, #54	; 0x36
 8008ba8:	701c      	strb	r4, [r3, #0]
 8008baa:	f7ff fe49 	bl	8008840 <ILI9341_Send_Command>
 8008bae:	2c06      	cmp	r4, #6
 8008bb0:	d819      	bhi.n	8008be6 <ILI9341_Set_Rotation+0x5a>
 8008bb2:	e8df f004 	tbb	[pc, r4]
 8008bb6:	0e04      	.short	0x0e04
 8008bb8:	1d1b1904 	.word	0x1d1b1904
 8008bbc:	1f          	.byte	0x1f
 8008bbd:	00          	.byte	0x00
 8008bbe:	2088      	movs	r0, #136	; 0x88
 8008bc0:	f7ff fe66 	bl	8008890 <ILI9341_Send_Data>
 8008bc4:	4b0e      	ldr	r3, [pc, #56]	; (8008c00 <ILI9341_Set_Rotation+0x74>)
 8008bc6:	22f0      	movs	r2, #240	; 0xf0
 8008bc8:	601a      	str	r2, [r3, #0]
 8008bca:	4b0e      	ldr	r3, [pc, #56]	; (8008c04 <ILI9341_Set_Rotation+0x78>)
 8008bcc:	f44f 72a0 	mov.w	r2, #320	; 0x140
 8008bd0:	e008      	b.n	8008be4 <ILI9341_Set_Rotation+0x58>
 8008bd2:	2028      	movs	r0, #40	; 0x28
 8008bd4:	f7ff fe5c 	bl	8008890 <ILI9341_Send_Data>
 8008bd8:	4b09      	ldr	r3, [pc, #36]	; (8008c00 <ILI9341_Set_Rotation+0x74>)
 8008bda:	f44f 72a0 	mov.w	r2, #320	; 0x140
 8008bde:	601a      	str	r2, [r3, #0]
 8008be0:	4b08      	ldr	r3, [pc, #32]	; (8008c04 <ILI9341_Set_Rotation+0x78>)
 8008be2:	22f0      	movs	r2, #240	; 0xf0
 8008be4:	601a      	str	r2, [r3, #0]
 8008be6:	bd10      	pop	{r4, pc}
 8008be8:	20e8      	movs	r0, #232	; 0xe8
 8008bea:	e7f3      	b.n	8008bd4 <ILI9341_Set_Rotation+0x48>
 8008bec:	20b8      	movs	r0, #184	; 0xb8
 8008bee:	e7f1      	b.n	8008bd4 <ILI9341_Set_Rotation+0x48>
 8008bf0:	206c      	movs	r0, #108	; 0x6c
 8008bf2:	e7ef      	b.n	8008bd4 <ILI9341_Set_Rotation+0x48>
 8008bf4:	2008      	movs	r0, #8
 8008bf6:	e7e3      	b.n	8008bc0 <ILI9341_Set_Rotation+0x34>
 8008bf8:	48000800 	.word	0x48000800
 8008bfc:	200098e4 	.word	0x200098e4
 8008c00:	20000028 	.word	0x20000028
 8008c04:	2000002c 	.word	0x2000002c

08008c08 <ILI9341_Set_Address>:
 8008c08:	e92d 43f7 	stmdb	sp!, {r0, r1, r2, r4, r5, r6, r7, r8, r9, lr}
 8008c0c:	4c2c      	ldr	r4, [pc, #176]	; (8008cc0 <ILI9341_Set_Address+0xb8>)
 8008c0e:	f8df 90b4 	ldr.w	r9, [pc, #180]	; 8008cc4 <ILI9341_Set_Address+0xbc>
 8008c12:	4680      	mov	r8, r0
 8008c14:	460e      	mov	r6, r1
 8008c16:	4620      	mov	r0, r4
 8008c18:	4617      	mov	r7, r2
 8008c1a:	2108      	movs	r1, #8
 8008c1c:	2201      	movs	r2, #1
 8008c1e:	461d      	mov	r5, r3
 8008c20:	f7fb fb7e 	bl	8004320 <HAL_GPIO_WritePin>
 8008c24:	4620      	mov	r0, r4
 8008c26:	2200      	movs	r2, #0
 8008c28:	2180      	movs	r1, #128	; 0x80
 8008c2a:	f7fb fb79 	bl	8004320 <HAL_GPIO_WritePin>
 8008c2e:	4620      	mov	r0, r4
 8008c30:	2200      	movs	r2, #0
 8008c32:	f44f 7100 	mov.w	r1, #512	; 0x200
 8008c36:	f7fb fb73 	bl	8004320 <HAL_GPIO_WritePin>
 8008c3a:	232a      	movs	r3, #42	; 0x2a
 8008c3c:	f88d 3004 	strb.w	r3, [sp, #4]
 8008c40:	a901      	add	r1, sp, #4
 8008c42:	2305      	movs	r3, #5
 8008c44:	2201      	movs	r2, #1
 8008c46:	4648      	mov	r0, r9
 8008c48:	f7fc ffc7 	bl	8005bda <HAL_SPI_Transmit>
 8008c4c:	4620      	mov	r0, r4
 8008c4e:	2201      	movs	r2, #1
 8008c50:	f44f 7100 	mov.w	r1, #512	; 0x200
 8008c54:	f7fb fb64 	bl	8004320 <HAL_GPIO_WritePin>
 8008c58:	2204      	movs	r2, #4
 8008c5a:	eb0d 0102 	add.w	r1, sp, r2
 8008c5e:	2305      	movs	r3, #5
 8008c60:	fa98 f898 	rev16.w	r8, r8
 8008c64:	ba7f      	rev16	r7, r7
 8008c66:	4648      	mov	r0, r9
 8008c68:	f8ad 8004 	strh.w	r8, [sp, #4]
 8008c6c:	f8ad 7006 	strh.w	r7, [sp, #6]
 8008c70:	f7fc ffb3 	bl	8005bda <HAL_SPI_Transmit>
 8008c74:	4620      	mov	r0, r4
 8008c76:	2200      	movs	r2, #0
 8008c78:	f44f 7100 	mov.w	r1, #512	; 0x200
 8008c7c:	f7fb fb50 	bl	8004320 <HAL_GPIO_WritePin>
 8008c80:	232b      	movs	r3, #43	; 0x2b
 8008c82:	f88d 3004 	strb.w	r3, [sp, #4]
 8008c86:	2301      	movs	r3, #1
 8008c88:	461a      	mov	r2, r3
 8008c8a:	a901      	add	r1, sp, #4
 8008c8c:	4648      	mov	r0, r9
 8008c8e:	f7fc ffa4 	bl	8005bda <HAL_SPI_Transmit>
 8008c92:	4620      	mov	r0, r4
 8008c94:	2201      	movs	r2, #1
 8008c96:	f44f 7100 	mov.w	r1, #512	; 0x200
 8008c9a:	f7fb fb41 	bl	8004320 <HAL_GPIO_WritePin>
 8008c9e:	2204      	movs	r2, #4
 8008ca0:	ba76      	rev16	r6, r6
 8008ca2:	ba6d      	rev16	r5, r5
 8008ca4:	2305      	movs	r3, #5
 8008ca6:	eb0d 0102 	add.w	r1, sp, r2
 8008caa:	4648      	mov	r0, r9
 8008cac:	f8ad 6004 	strh.w	r6, [sp, #4]
 8008cb0:	f8ad 5006 	strh.w	r5, [sp, #6]
 8008cb4:	f7fc ff91 	bl	8005bda <HAL_SPI_Transmit>
 8008cb8:	b003      	add	sp, #12
 8008cba:	e8bd 83f0 	ldmia.w	sp!, {r4, r5, r6, r7, r8, r9, pc}
 8008cbe:	bf00      	nop
 8008cc0:	48000800 	.word	0x48000800
 8008cc4:	20009880 	.word	0x20009880

08008cc8 <ILI9341_Draw_Pixel>:
 8008cc8:	b5f8      	push	{r3, r4, r5, r6, r7, lr}
 8008cca:	4d18      	ldr	r5, [pc, #96]	; (8008d2c <ILI9341_Draw_Pixel+0x64>)
 8008ccc:	4614      	mov	r4, r2
 8008cce:	4606      	mov	r6, r0
 8008cd0:	460f      	mov	r7, r1
 8008cd2:	4628      	mov	r0, r5
 8008cd4:	2201      	movs	r2, #1
 8008cd6:	2108      	movs	r1, #8
 8008cd8:	f7fb fb22 	bl	8004320 <HAL_GPIO_WritePin>
 8008cdc:	4628      	mov	r0, r5
 8008cde:	2200      	movs	r2, #0
 8008ce0:	2180      	movs	r1, #128	; 0x80
 8008ce2:	f7fb fb1d 	bl	8004320 <HAL_GPIO_WritePin>
 8008ce6:	4b12      	ldr	r3, [pc, #72]	; (8008d30 <ILI9341_Draw_Pixel+0x68>)
 8008ce8:	4a12      	ldr	r2, [pc, #72]	; (8008d34 <ILI9341_Draw_Pixel+0x6c>)
 8008cea:	681b      	ldr	r3, [r3, #0]
 8008cec:	6812      	ldr	r2, [r2, #0]
 8008cee:	3b01      	subs	r3, #1
 8008cf0:	f1c7 01ef 	rsb	r1, r7, #239	; 0xef
 8008cf4:	4630      	mov	r0, r6
 8008cf6:	3a01      	subs	r2, #1
 8008cf8:	f7ff ff86 	bl	8008c08 <ILI9341_Set_Address>
 8008cfc:	2200      	movs	r2, #0
 8008cfe:	f44f 7100 	mov.w	r1, #512	; 0x200
 8008d02:	4628      	mov	r0, r5
 8008d04:	f7fb fb0c 	bl	8004320 <HAL_GPIO_WritePin>
 8008d08:	202c      	movs	r0, #44	; 0x2c
 8008d0a:	f7ff fd89 	bl	8008820 <ILI9341_SPI_Send>
 8008d0e:	4628      	mov	r0, r5
 8008d10:	2201      	movs	r2, #1
 8008d12:	f44f 7100 	mov.w	r1, #512	; 0x200
 8008d16:	f7fb fb03 	bl	8004320 <HAL_GPIO_WritePin>
 8008d1a:	f3c4 2007 	ubfx	r0, r4, #8, #8
 8008d1e:	f7ff fd7f 	bl	8008820 <ILI9341_SPI_Send>
 8008d22:	b2e0      	uxtb	r0, r4
 8008d24:	e8bd 40f8 	ldmia.w	sp!, {r3, r4, r5, r6, r7, lr}
 8008d28:	f7ff bd7a 	b.w	8008820 <ILI9341_SPI_Send>
 8008d2c:	48000800 	.word	0x48000800
 8008d30:	2000002c 	.word	0x2000002c
 8008d34:	20000028 	.word	0x20000028

08008d38 <ILI9341_Draw_Circle>:
 8008d38:	e92d 4ff0 	stmdb	sp!, {r4, r5, r6, r7, r8, r9, sl, fp, lr}
 8008d3c:	ed2d 8b02 	vpush	{d8}
 8008d40:	b087      	sub	sp, #28
 8008d42:	4614      	mov	r4, r2
 8008d44:	4607      	mov	r7, r0
 8008d46:	460e      	mov	r6, r1
 8008d48:	48b8      	ldr	r0, [pc, #736]	; (800902c <ILI9341_Draw_Circle+0x2f4>)
 8008d4a:	461d      	mov	r5, r3
 8008d4c:	2201      	movs	r2, #1
 8008d4e:	f89d 3048 	ldrb.w	r3, [sp, #72]	; 0x48
 8008d52:	9302      	str	r3, [sp, #8]
 8008d54:	2108      	movs	r1, #8
 8008d56:	f7fb fae3 	bl	8004320 <HAL_GPIO_WritePin>
 8008d5a:	48b4      	ldr	r0, [pc, #720]	; (800902c <ILI9341_Draw_Circle+0x2f4>)
 8008d5c:	2200      	movs	r2, #0
 8008d5e:	2180      	movs	r1, #128	; 0x80
 8008d60:	f7fb fade 	bl	8004320 <HAL_GPIO_WritePin>
 8008d64:	f06f 0301 	mvn.w	r3, #1
 8008d68:	4363      	muls	r3, r4
 8008d6a:	9301      	str	r3, [sp, #4]
 8008d6c:	9b02      	ldr	r3, [sp, #8]
 8008d6e:	f1c6 06f0 	rsb	r6, r6, #240	; 0xf0
 8008d72:	f1c4 0801 	rsb	r8, r4, #1
 8008d76:	1931      	adds	r1, r6, r4
 8008d78:	eba6 0904 	sub.w	r9, r6, r4
 8008d7c:	eba7 0a04 	sub.w	sl, r7, r4
 8008d80:	eb07 0b04 	add.w	fp, r7, r4
 8008d84:	462a      	mov	r2, r5
 8008d86:	4638      	mov	r0, r7
 8008d88:	2b00      	cmp	r3, #0
 8008d8a:	d15e      	bne.n	8008e4a <ILI9341_Draw_Circle+0x112>
 8008d8c:	f7ff ff9c 	bl	8008cc8 <ILI9341_Draw_Pixel>
 8008d90:	4649      	mov	r1, r9
 8008d92:	462a      	mov	r2, r5
 8008d94:	4638      	mov	r0, r7
 8008d96:	f7ff ff97 	bl	8008cc8 <ILI9341_Draw_Pixel>
 8008d9a:	462a      	mov	r2, r5
 8008d9c:	4631      	mov	r1, r6
 8008d9e:	4658      	mov	r0, fp
 8008da0:	f7ff ff92 	bl	8008cc8 <ILI9341_Draw_Pixel>
 8008da4:	462a      	mov	r2, r5
 8008da6:	4631      	mov	r1, r6
 8008da8:	4650      	mov	r0, sl
 8008daa:	f7ff ff8d 	bl	8008cc8 <ILI9341_Draw_Pixel>
 8008dae:	f8dd 9008 	ldr.w	r9, [sp, #8]
 8008db2:	45a1      	cmp	r9, r4
 8008db4:	db04      	blt.n	8008dc0 <ILI9341_Draw_Circle+0x88>
 8008db6:	b007      	add	sp, #28
 8008db8:	ecbd 8b02 	vpop	{d8}
 8008dbc:	e8bd 8ff0 	ldmia.w	sp!, {r4, r5, r6, r7, r8, r9, sl, fp, pc}
 8008dc0:	f1b8 0f00 	cmp.w	r8, #0
 8008dc4:	db04      	blt.n	8008dd0 <ILI9341_Draw_Circle+0x98>
 8008dc6:	9b01      	ldr	r3, [sp, #4]
 8008dc8:	3302      	adds	r3, #2
 8008dca:	3c01      	subs	r4, #1
 8008dcc:	9301      	str	r3, [sp, #4]
 8008dce:	4498      	add	r8, r3
 8008dd0:	f109 0901 	add.w	r9, r9, #1
 8008dd4:	eb07 0b09 	add.w	fp, r7, r9
 8008dd8:	19a1      	adds	r1, r4, r6
 8008dda:	eba7 0a09 	sub.w	sl, r7, r9
 8008dde:	462a      	mov	r2, r5
 8008de0:	4658      	mov	r0, fp
 8008de2:	9102      	str	r1, [sp, #8]
 8008de4:	f7ff ff70 	bl	8008cc8 <ILI9341_Draw_Pixel>
 8008de8:	9902      	ldr	r1, [sp, #8]
 8008dea:	462a      	mov	r2, r5
 8008dec:	4650      	mov	r0, sl
 8008dee:	f7ff ff6b 	bl	8008cc8 <ILI9341_Draw_Pixel>
 8008df2:	1b31      	subs	r1, r6, r4
 8008df4:	462a      	mov	r2, r5
 8008df6:	4658      	mov	r0, fp
 8008df8:	9102      	str	r1, [sp, #8]
 8008dfa:	eb04 0b07 	add.w	fp, r4, r7
 8008dfe:	f7ff ff63 	bl	8008cc8 <ILI9341_Draw_Pixel>
 8008e02:	9902      	ldr	r1, [sp, #8]
 8008e04:	462a      	mov	r2, r5
 8008e06:	4650      	mov	r0, sl
 8008e08:	f7ff ff5e 	bl	8008cc8 <ILI9341_Draw_Pixel>
 8008e0c:	eba7 0a04 	sub.w	sl, r7, r4
 8008e10:	eb06 0109 	add.w	r1, r6, r9
 8008e14:	462a      	mov	r2, r5
 8008e16:	4658      	mov	r0, fp
 8008e18:	9102      	str	r1, [sp, #8]
 8008e1a:	f7ff ff55 	bl	8008cc8 <ILI9341_Draw_Pixel>
 8008e1e:	9902      	ldr	r1, [sp, #8]
 8008e20:	462a      	mov	r2, r5
 8008e22:	4650      	mov	r0, sl
 8008e24:	f7ff ff50 	bl	8008cc8 <ILI9341_Draw_Pixel>
 8008e28:	eba6 0109 	sub.w	r1, r6, r9
 8008e2c:	462a      	mov	r2, r5
 8008e2e:	4658      	mov	r0, fp
 8008e30:	9102      	str	r1, [sp, #8]
 8008e32:	eb08 0849 	add.w	r8, r8, r9, lsl #1
 8008e36:	f7ff ff47 	bl	8008cc8 <ILI9341_Draw_Pixel>
 8008e3a:	9902      	ldr	r1, [sp, #8]
 8008e3c:	462a      	mov	r2, r5
 8008e3e:	4650      	mov	r0, sl
 8008e40:	f108 0801 	add.w	r8, r8, #1
 8008e44:	f7ff ff40 	bl	8008cc8 <ILI9341_Draw_Pixel>
 8008e48:	e7b3      	b.n	8008db2 <ILI9341_Draw_Circle+0x7a>
 8008e4a:	f7ff ff3d 	bl	8008cc8 <ILI9341_Draw_Pixel>
 8008e4e:	4649      	mov	r1, r9
 8008e50:	462a      	mov	r2, r5
 8008e52:	4638      	mov	r0, r7
 8008e54:	f7ff ff38 	bl	8008cc8 <ILI9341_Draw_Pixel>
 8008e58:	4633      	mov	r3, r6
 8008e5a:	465a      	mov	r2, fp
 8008e5c:	4650      	mov	r0, sl
 8008e5e:	4631      	mov	r1, r6
 8008e60:	f7ff fed2 	bl	8008c08 <ILI9341_Set_Address>
 8008e64:	2200      	movs	r2, #0
 8008e66:	f44f 7100 	mov.w	r1, #512	; 0x200
 8008e6a:	4870      	ldr	r0, [pc, #448]	; (800902c <ILI9341_Draw_Circle+0x2f4>)
 8008e6c:	f7fb fa58 	bl	8004320 <HAL_GPIO_WritePin>
 8008e70:	202c      	movs	r0, #44	; 0x2c
 8008e72:	f7ff fcd5 	bl	8008820 <ILI9341_SPI_Send>
 8008e76:	486d      	ldr	r0, [pc, #436]	; (800902c <ILI9341_Draw_Circle+0x2f4>)
 8008e78:	2201      	movs	r2, #1
 8008e7a:	f44f 7100 	mov.w	r1, #512	; 0x200
 8008e7e:	f7fb fa4f 	bl	8004320 <HAL_GPIO_WritePin>
 8008e82:	f3c5 2307 	ubfx	r3, r5, #8, #8
 8008e86:	ee08 3a10 	vmov	s16, r3
 8008e8a:	9b01      	ldr	r3, [sp, #4]
 8008e8c:	f04f 0a00 	mov.w	sl, #0
 8008e90:	f1c3 0b01 	rsb	fp, r3, #1
 8008e94:	fa5f f985 	uxtb.w	r9, r5
 8008e98:	45d3      	cmp	fp, sl
 8008e9a:	f200 80b0 	bhi.w	8008ffe <ILI9341_Draw_Circle+0x2c6>
 8008e9e:	2200      	movs	r2, #0
 8008ea0:	2301      	movs	r3, #1
 8008ea2:	e9cd 2302 	strd	r2, r3, [sp, #8]
 8008ea6:	f8df 9184 	ldr.w	r9, [pc, #388]	; 800902c <ILI9341_Draw_Circle+0x2f4>
 8008eaa:	9b02      	ldr	r3, [sp, #8]
 8008eac:	42a3      	cmp	r3, r4
 8008eae:	da82      	bge.n	8008db6 <ILI9341_Draw_Circle+0x7e>
 8008eb0:	f1b8 0f00 	cmp.w	r8, #0
 8008eb4:	db04      	blt.n	8008ec0 <ILI9341_Draw_Circle+0x188>
 8008eb6:	9b01      	ldr	r3, [sp, #4]
 8008eb8:	3302      	adds	r3, #2
 8008eba:	3c01      	subs	r4, #1
 8008ebc:	9301      	str	r3, [sp, #4]
 8008ebe:	4498      	add	r8, r3
 8008ec0:	9b02      	ldr	r3, [sp, #8]
 8008ec2:	3301      	adds	r3, #1
 8008ec4:	9302      	str	r3, [sp, #8]
 8008ec6:	9b03      	ldr	r3, [sp, #12]
 8008ec8:	9a02      	ldr	r2, [sp, #8]
 8008eca:	3302      	adds	r3, #2
 8008ecc:	9303      	str	r3, [sp, #12]
 8008ece:	4498      	add	r8, r3
 8008ed0:	9b02      	ldr	r3, [sp, #8]
 8008ed2:	eb02 0b07 	add.w	fp, r2, r7
 8008ed6:	eba7 0a03 	sub.w	sl, r7, r3
 8008eda:	19a3      	adds	r3, r4, r6
 8008edc:	4619      	mov	r1, r3
 8008ede:	465a      	mov	r2, fp
 8008ee0:	4650      	mov	r0, sl
 8008ee2:	f7ff fe91 	bl	8008c08 <ILI9341_Set_Address>
 8008ee6:	2200      	movs	r2, #0
 8008ee8:	f44f 7100 	mov.w	r1, #512	; 0x200
 8008eec:	4648      	mov	r0, r9
 8008eee:	f7fb fa17 	bl	8004320 <HAL_GPIO_WritePin>
 8008ef2:	202c      	movs	r0, #44	; 0x2c
 8008ef4:	f7ff fc94 	bl	8008820 <ILI9341_SPI_Send>
 8008ef8:	2201      	movs	r2, #1
 8008efa:	f44f 7100 	mov.w	r1, #512	; 0x200
 8008efe:	4648      	mov	r0, r9
 8008f00:	f7fb fa0e 	bl	8004320 <HAL_GPIO_WritePin>
 8008f04:	b2ea      	uxtb	r2, r5
 8008f06:	ee08 2a90 	vmov	s17, r2
 8008f0a:	2300      	movs	r3, #0
 8008f0c:	9a03      	ldr	r2, [sp, #12]
 8008f0e:	429a      	cmp	r2, r3
 8008f10:	d87f      	bhi.n	8009012 <ILI9341_Draw_Circle+0x2da>
 8008f12:	1b33      	subs	r3, r6, r4
 8008f14:	4619      	mov	r1, r3
 8008f16:	4650      	mov	r0, sl
 8008f18:	465a      	mov	r2, fp
 8008f1a:	f7ff fe75 	bl	8008c08 <ILI9341_Set_Address>
 8008f1e:	2200      	movs	r2, #0
 8008f20:	f44f 7100 	mov.w	r1, #512	; 0x200
 8008f24:	4648      	mov	r0, r9
 8008f26:	f7fb f9fb 	bl	8004320 <HAL_GPIO_WritePin>
 8008f2a:	202c      	movs	r0, #44	; 0x2c
 8008f2c:	f7ff fc78 	bl	8008820 <ILI9341_SPI_Send>
 8008f30:	2201      	movs	r2, #1
 8008f32:	f44f 7100 	mov.w	r1, #512	; 0x200
 8008f36:	4648      	mov	r0, r9
 8008f38:	f7fb f9f2 	bl	8004320 <HAL_GPIO_WritePin>
 8008f3c:	f04f 0a00 	mov.w	sl, #0
 8008f40:	ee18 0a10 	vmov	r0, s16
 8008f44:	f7ff fc6c 	bl	8008820 <ILI9341_SPI_Send>
 8008f48:	ee18 0a90 	vmov	r0, s17
 8008f4c:	f7ff fc68 	bl	8008820 <ILI9341_SPI_Send>
 8008f50:	9b03      	ldr	r3, [sp, #12]
 8008f52:	f10a 0a01 	add.w	sl, sl, #1
 8008f56:	4553      	cmp	r3, sl
 8008f58:	d8f2      	bhi.n	8008f40 <ILI9341_Draw_Circle+0x208>
 8008f5a:	9b02      	ldr	r3, [sp, #8]
 8008f5c:	eba7 0a04 	sub.w	sl, r7, r4
 8008f60:	4433      	add	r3, r6
 8008f62:	eb04 0b07 	add.w	fp, r4, r7
 8008f66:	4619      	mov	r1, r3
 8008f68:	465a      	mov	r2, fp
 8008f6a:	4650      	mov	r0, sl
 8008f6c:	f7ff fe4c 	bl	8008c08 <ILI9341_Set_Address>
 8008f70:	2200      	movs	r2, #0
 8008f72:	f44f 7100 	mov.w	r1, #512	; 0x200
 8008f76:	4648      	mov	r0, r9
 8008f78:	f7fb f9d2 	bl	8004320 <HAL_GPIO_WritePin>
 8008f7c:	202c      	movs	r0, #44	; 0x2c
 8008f7e:	f7ff fc4f 	bl	8008820 <ILI9341_SPI_Send>
 8008f82:	2201      	movs	r2, #1
 8008f84:	f44f 7100 	mov.w	r1, #512	; 0x200
 8008f88:	4648      	mov	r0, r9
 8008f8a:	f7fb f9c9 	bl	8004320 <HAL_GPIO_WritePin>
 8008f8e:	0063      	lsls	r3, r4, #1
 8008f90:	3301      	adds	r3, #1
 8008f92:	9304      	str	r3, [sp, #16]
 8008f94:	2300      	movs	r3, #0
 8008f96:	ee18 0a10 	vmov	r0, s16
 8008f9a:	9305      	str	r3, [sp, #20]
 8008f9c:	f7ff fc40 	bl	8008820 <ILI9341_SPI_Send>
 8008fa0:	ee18 0a90 	vmov	r0, s17
 8008fa4:	f7ff fc3c 	bl	8008820 <ILI9341_SPI_Send>
 8008fa8:	9b05      	ldr	r3, [sp, #20]
 8008faa:	9a04      	ldr	r2, [sp, #16]
 8008fac:	3301      	adds	r3, #1
 8008fae:	429a      	cmp	r2, r3
 8008fb0:	d8f1      	bhi.n	8008f96 <ILI9341_Draw_Circle+0x25e>
 8008fb2:	9b02      	ldr	r3, [sp, #8]
 8008fb4:	1af3      	subs	r3, r6, r3
 8008fb6:	4619      	mov	r1, r3
 8008fb8:	4650      	mov	r0, sl
 8008fba:	465a      	mov	r2, fp
 8008fbc:	f7ff fe24 	bl	8008c08 <ILI9341_Set_Address>
 8008fc0:	2200      	movs	r2, #0
 8008fc2:	f44f 7100 	mov.w	r1, #512	; 0x200
 8008fc6:	4648      	mov	r0, r9
 8008fc8:	f7fb f9aa 	bl	8004320 <HAL_GPIO_WritePin>
 8008fcc:	202c      	movs	r0, #44	; 0x2c
 8008fce:	f7ff fc27 	bl	8008820 <ILI9341_SPI_Send>
 8008fd2:	2201      	movs	r2, #1
 8008fd4:	f44f 7100 	mov.w	r1, #512	; 0x200
 8008fd8:	4648      	mov	r0, r9
 8008fda:	f7fb f9a1 	bl	8004320 <HAL_GPIO_WritePin>
 8008fde:	f04f 0a00 	mov.w	sl, #0
 8008fe2:	ee18 0a10 	vmov	r0, s16
 8008fe6:	f7ff fc1b 	bl	8008820 <ILI9341_SPI_Send>
 8008fea:	ee18 0a90 	vmov	r0, s17
 8008fee:	f7ff fc17 	bl	8008820 <ILI9341_SPI_Send>
 8008ff2:	9b04      	ldr	r3, [sp, #16]
 8008ff4:	f10a 0a01 	add.w	sl, sl, #1
 8008ff8:	4553      	cmp	r3, sl
 8008ffa:	d8f2      	bhi.n	8008fe2 <ILI9341_Draw_Circle+0x2aa>
 8008ffc:	e755      	b.n	8008eaa <ILI9341_Draw_Circle+0x172>
 8008ffe:	ee18 0a10 	vmov	r0, s16
 8009002:	f7ff fc0d 	bl	8008820 <ILI9341_SPI_Send>
 8009006:	4648      	mov	r0, r9
 8009008:	f7ff fc0a 	bl	8008820 <ILI9341_SPI_Send>
 800900c:	f10a 0a01 	add.w	sl, sl, #1
 8009010:	e742      	b.n	8008e98 <ILI9341_Draw_Circle+0x160>
 8009012:	ee18 0a10 	vmov	r0, s16
 8009016:	9304      	str	r3, [sp, #16]
 8009018:	f7ff fc02 	bl	8008820 <ILI9341_SPI_Send>
 800901c:	ee18 0a90 	vmov	r0, s17
 8009020:	f7ff fbfe 	bl	8008820 <ILI9341_SPI_Send>
 8009024:	9b04      	ldr	r3, [sp, #16]
 8009026:	3301      	adds	r3, #1
 8009028:	e770      	b.n	8008f0c <ILI9341_Draw_Circle+0x1d4>
 800902a:	bf00      	nop
 800902c:	48000800 	.word	0x48000800

08009030 <ILI9341_Draw_Char>:
 8009030:	e92d 4ff0 	stmdb	sp!, {r4, r5, r6, r7, r8, r9, sl, fp, lr}
 8009034:	f5ad 7d03 	sub.w	sp, sp, #524	; 0x20c
 8009038:	4690      	mov	r8, r2
 800903a:	f89d 9234 	ldrb.w	r9, [sp, #564]	; 0x234
 800903e:	f89d 7230 	ldrb.w	r7, [sp, #560]	; 0x230
 8009042:	2201      	movs	r2, #1
 8009044:	4605      	mov	r5, r0
 8009046:	460e      	mov	r6, r1
 8009048:	4868      	ldr	r0, [pc, #416]	; (80091ec <ILI9341_Draw_Char+0x1bc>)
 800904a:	2108      	movs	r1, #8
 800904c:	461c      	mov	r4, r3
 800904e:	f7fb f967 	bl	8004320 <HAL_GPIO_WritePin>
 8009052:	4866      	ldr	r0, [pc, #408]	; (80091ec <ILI9341_Draw_Char+0x1bc>)
 8009054:	2200      	movs	r2, #0
 8009056:	2180      	movs	r1, #128	; 0x80
 8009058:	f7fb f962 	bl	8004320 <HAL_GPIO_WritePin>
 800905c:	f3c8 2307 	ubfx	r3, r8, #8, #8
 8009060:	f1b9 0f02 	cmp.w	r9, #2
 8009064:	f3c4 2b07 	ubfx	fp, r4, #8, #8
 8009068:	9301      	str	r3, [sp, #4]
 800906a:	fa5f fa88 	uxtb.w	sl, r8
 800906e:	b2e4      	uxtb	r4, r4
 8009070:	d03e      	beq.n	80090f0 <ILI9341_Draw_Char+0xc0>
 8009072:	f1b9 0f04 	cmp.w	r9, #4
 8009076:	d06d      	beq.n	8009154 <ILI9341_Draw_Char+0x124>
 8009078:	f1b9 0f01 	cmp.w	r9, #1
 800907c:	d12f      	bne.n	80090de <ILI9341_Draw_Char+0xae>
 800907e:	f106 0308 	add.w	r3, r6, #8
 8009082:	1d6a      	adds	r2, r5, #5
 8009084:	4631      	mov	r1, r6
 8009086:	4628      	mov	r0, r5
 8009088:	f7ff fdbe 	bl	8008c08 <ILI9341_Set_Address>
 800908c:	2200      	movs	r2, #0
 800908e:	f44f 7100 	mov.w	r1, #512	; 0x200
 8009092:	4856      	ldr	r0, [pc, #344]	; (80091ec <ILI9341_Draw_Char+0x1bc>)
 8009094:	4e56      	ldr	r6, [pc, #344]	; (80091f0 <ILI9341_Draw_Char+0x1c0>)
 8009096:	f7fb f943 	bl	8004320 <HAL_GPIO_WritePin>
 800909a:	202c      	movs	r0, #44	; 0x2c
 800909c:	f7ff fbc0 	bl	8008820 <ILI9341_SPI_Send>
 80090a0:	2508      	movs	r5, #8
 80090a2:	4852      	ldr	r0, [pc, #328]	; (80091ec <ILI9341_Draw_Char+0x1bc>)
 80090a4:	464a      	mov	r2, r9
 80090a6:	f44f 7100 	mov.w	r1, #512	; 0x200
 80090aa:	f7fb f939 	bl	8004320 <HAL_GPIO_WritePin>
 80090ae:	fb05 6607 	mla	r6, r5, r7, r6
 80090b2:	f46f 7080 	mvn.w	r0, #256	; 0x100
 80090b6:	4406      	add	r6, r0
 80090b8:	2705      	movs	r7, #5
 80090ba:	5d73      	ldrb	r3, [r6, r5]
 80090bc:	413b      	asrs	r3, r7
 80090be:	07d9      	lsls	r1, r3, #31
 80090c0:	d511      	bpl.n	80090e6 <ILI9341_Draw_Char+0xb6>
 80090c2:	f1b8 0f08 	cmp.w	r8, #8
 80090c6:	bf94      	ite	ls
 80090c8:	2000      	movls	r0, #0
 80090ca:	2001      	movhi	r0, #1
 80090cc:	f7ff fba8 	bl	8008820 <ILI9341_SPI_Send>
 80090d0:	4650      	mov	r0, sl
 80090d2:	f7ff fba5 	bl	8008820 <ILI9341_SPI_Send>
 80090d6:	3f01      	subs	r7, #1
 80090d8:	d2ef      	bcs.n	80090ba <ILI9341_Draw_Char+0x8a>
 80090da:	3d01      	subs	r5, #1
 80090dc:	d1ec      	bne.n	80090b8 <ILI9341_Draw_Char+0x88>
 80090de:	f50d 7d03 	add.w	sp, sp, #524	; 0x20c
 80090e2:	e8bd 8ff0 	ldmia.w	sp!, {r4, r5, r6, r7, r8, r9, sl, fp, pc}
 80090e6:	4658      	mov	r0, fp
 80090e8:	f7ff fb9a 	bl	8008820 <ILI9341_SPI_Send>
 80090ec:	4620      	mov	r0, r4
 80090ee:	e7f0      	b.n	80090d2 <ILI9341_Draw_Char+0xa2>
 80090f0:	f106 031a 	add.w	r3, r6, #26
 80090f4:	1dea      	adds	r2, r5, #7
 80090f6:	4631      	mov	r1, r6
 80090f8:	4628      	mov	r0, r5
 80090fa:	f7ff fd85 	bl	8008c08 <ILI9341_Set_Address>
 80090fe:	2200      	movs	r2, #0
 8009100:	f44f 7100 	mov.w	r1, #512	; 0x200
 8009104:	4839      	ldr	r0, [pc, #228]	; (80091ec <ILI9341_Draw_Char+0x1bc>)
 8009106:	4e3b      	ldr	r6, [pc, #236]	; (80091f4 <ILI9341_Draw_Char+0x1c4>)
 8009108:	f7fb f90a 	bl	8004320 <HAL_GPIO_WritePin>
 800910c:	202c      	movs	r0, #44	; 0x2c
 800910e:	f7ff fb87 	bl	8008820 <ILI9341_SPI_Send>
 8009112:	2510      	movs	r5, #16
 8009114:	2201      	movs	r2, #1
 8009116:	4835      	ldr	r0, [pc, #212]	; (80091ec <ILI9341_Draw_Char+0x1bc>)
 8009118:	f44f 7100 	mov.w	r1, #512	; 0x200
 800911c:	f7fb f900 	bl	8004320 <HAL_GPIO_WritePin>
 8009120:	fb05 6607 	mla	r6, r5, r7, r6
 8009124:	f46f 7200 	mvn.w	r2, #512	; 0x200
 8009128:	4416      	add	r6, r2
 800912a:	2707      	movs	r7, #7
 800912c:	5d73      	ldrb	r3, [r6, r5]
 800912e:	413b      	asrs	r3, r7
 8009130:	07db      	lsls	r3, r3, #31
 8009132:	d50a      	bpl.n	800914a <ILI9341_Draw_Char+0x11a>
 8009134:	9801      	ldr	r0, [sp, #4]
 8009136:	f7ff fb73 	bl	8008820 <ILI9341_SPI_Send>
 800913a:	4650      	mov	r0, sl
 800913c:	f7ff fb70 	bl	8008820 <ILI9341_SPI_Send>
 8009140:	3f01      	subs	r7, #1
 8009142:	d2f3      	bcs.n	800912c <ILI9341_Draw_Char+0xfc>
 8009144:	3d01      	subs	r5, #1
 8009146:	d1f0      	bne.n	800912a <ILI9341_Draw_Char+0xfa>
 8009148:	e7c9      	b.n	80090de <ILI9341_Draw_Char+0xae>
 800914a:	4658      	mov	r0, fp
 800914c:	f7ff fb68 	bl	8008820 <ILI9341_SPI_Send>
 8009150:	4620      	mov	r0, r4
 8009152:	e7f3      	b.n	800913c <ILI9341_Draw_Char+0x10c>
 8009154:	f106 0320 	add.w	r3, r6, #32
 8009158:	1dea      	adds	r2, r5, #7
 800915a:	4628      	mov	r0, r5
 800915c:	4631      	mov	r1, r6
 800915e:	f7ff fd53 	bl	8008c08 <ILI9341_Set_Address>
 8009162:	2200      	movs	r2, #0
 8009164:	f44f 7100 	mov.w	r1, #512	; 0x200
 8009168:	4820      	ldr	r0, [pc, #128]	; (80091ec <ILI9341_Draw_Char+0x1bc>)
 800916a:	4d22      	ldr	r5, [pc, #136]	; (80091f4 <ILI9341_Draw_Char+0x1c4>)
 800916c:	f7fb f8d8 	bl	8004320 <HAL_GPIO_WritePin>
 8009170:	202c      	movs	r0, #44	; 0x2c
 8009172:	f7ff fb55 	bl	8008820 <ILI9341_SPI_Send>
 8009176:	f107 5780 	add.w	r7, r7, #268435456	; 0x10000000
 800917a:	481c      	ldr	r0, [pc, #112]	; (80091ec <ILI9341_Draw_Char+0x1bc>)
 800917c:	2201      	movs	r2, #1
 800917e:	f44f 7100 	mov.w	r1, #512	; 0x200
 8009182:	f7fb f8cd 	bl	8004320 <HAL_GPIO_WritePin>
 8009186:	3f1f      	subs	r7, #31
 8009188:	2300      	movs	r3, #0
 800918a:	eb05 1507 	add.w	r5, r5, r7, lsl #4
 800918e:	4618      	mov	r0, r3
 8009190:	f100 0208 	add.w	r2, r0, #8
 8009194:	f815 ed01 	ldrb.w	lr, [r5, #-1]!
 8009198:	446a      	add	r2, sp
 800919a:	2107      	movs	r1, #7
 800919c:	fa4e f601 	asr.w	r6, lr, r1
 80091a0:	07f7      	lsls	r7, r6, #31
 80091a2:	eba2 0600 	sub.w	r6, r2, r0
 80091a6:	bf4c      	ite	mi
 80091a8:	f8dd c004 	ldrmi.w	ip, [sp, #4]
 80091ac:	46dc      	movpl	ip, fp
 80091ae:	f806 c013 	strb.w	ip, [r6, r3, lsl #1]
 80091b2:	f106 0610 	add.w	r6, r6, #16
 80091b6:	bf4c      	ite	mi
 80091b8:	4657      	movmi	r7, sl
 80091ba:	4627      	movpl	r7, r4
 80091bc:	3901      	subs	r1, #1
 80091be:	7057      	strb	r7, [r2, #1]
 80091c0:	f806 c013 	strb.w	ip, [r6, r3, lsl #1]
 80091c4:	1c4e      	adds	r6, r1, #1
 80091c6:	7457      	strb	r7, [r2, #17]
 80091c8:	f102 0202 	add.w	r2, r2, #2
 80091cc:	d1e6      	bne.n	800919c <ILI9341_Draw_Char+0x16c>
 80091ce:	3310      	adds	r3, #16
 80091d0:	f5b3 7f80 	cmp.w	r3, #256	; 0x100
 80091d4:	f100 0020 	add.w	r0, r0, #32
 80091d8:	d1da      	bne.n	8009190 <ILI9341_Draw_Char+0x160>
 80091da:	230a      	movs	r3, #10
 80091dc:	f44f 7200 	mov.w	r2, #512	; 0x200
 80091e0:	a902      	add	r1, sp, #8
 80091e2:	4805      	ldr	r0, [pc, #20]	; (80091f8 <ILI9341_Draw_Char+0x1c8>)
 80091e4:	f7fc fcf9 	bl	8005bda <HAL_SPI_Transmit>
 80091e8:	e779      	b.n	80090de <ILI9341_Draw_Char+0xae>
 80091ea:	bf00      	nop
 80091ec:	48000800 	.word	0x48000800
 80091f0:	0800fb7f 	.word	0x0800fb7f
 80091f4:	0800f58f 	.word	0x0800f58f
 80091f8:	20009880 	.word	0x20009880

080091fc <ILI9341_Draw_String>:
 80091fc:	e92d 4ff0 	stmdb	sp!, {r4, r5, r6, r7, r8, r9, sl, fp, lr}
 8009200:	b085      	sub	sp, #20
 8009202:	460d      	mov	r5, r1
 8009204:	4604      	mov	r4, r0
 8009206:	2108      	movs	r1, #8
 8009208:	483d      	ldr	r0, [pc, #244]	; (8009300 <ILI9341_Draw_String+0x104>)
 800920a:	f89d 703c 	ldrb.w	r7, [sp, #60]	; 0x3c
 800920e:	9303      	str	r3, [sp, #12]
 8009210:	4691      	mov	r9, r2
 8009212:	2201      	movs	r2, #1
 8009214:	9e0e      	ldr	r6, [sp, #56]	; 0x38
 8009216:	f7fb f883 	bl	8004320 <HAL_GPIO_WritePin>
 800921a:	2200      	movs	r2, #0
 800921c:	2180      	movs	r1, #128	; 0x80
 800921e:	4838      	ldr	r0, [pc, #224]	; (8009300 <ILI9341_Draw_String+0x104>)
 8009220:	f7fb f87e 	bl	8004320 <HAL_GPIO_WritePin>
 8009224:	4a37      	ldr	r2, [pc, #220]	; (8009304 <ILI9341_Draw_String+0x108>)
 8009226:	9b03      	ldr	r3, [sp, #12]
 8009228:	2100      	movs	r1, #0
 800922a:	f1c5 05ef 	rsb	r5, r5, #239	; 0xef
 800922e:	2f02      	cmp	r7, #2
 8009230:	7011      	strb	r1, [r2, #0]
 8009232:	ea4f 08c7 	mov.w	r8, r7, lsl #3
 8009236:	eba5 05c7 	sub.w	r5, r5, r7, lsl #3
 800923a:	d01e      	beq.n	800927a <ILI9341_Draw_String+0x7e>
 800923c:	2f04      	cmp	r7, #4
 800923e:	d03d      	beq.n	80092bc <ILI9341_Draw_String+0xc0>
 8009240:	2f01      	cmp	r7, #1
 8009242:	d105      	bne.n	8009250 <ILI9341_Draw_String+0x54>
 8009244:	3e01      	subs	r6, #1
 8009246:	f1a8 0a02 	sub.w	sl, r8, #2
 800924a:	f816 2f01 	ldrb.w	r2, [r6, #1]!
 800924e:	b912      	cbnz	r2, 8009256 <ILI9341_Draw_String+0x5a>
 8009250:	b005      	add	sp, #20
 8009252:	e8bd 8ff0 	ldmia.w	sp!, {r4, r5, r6, r7, r8, r9, sl, fp, pc}
 8009256:	eb08 0104 	add.w	r1, r8, r4
 800925a:	f5b1 7fa0 	cmp.w	r1, #320	; 0x140
 800925e:	bf84      	itt	hi
 8009260:	2401      	movhi	r4, #1
 8009262:	4445      	addhi	r5, r8
 8009264:	e9cd 2700 	strd	r2, r7, [sp]
 8009268:	4620      	mov	r0, r4
 800926a:	464a      	mov	r2, r9
 800926c:	4629      	mov	r1, r5
 800926e:	9303      	str	r3, [sp, #12]
 8009270:	4454      	add	r4, sl
 8009272:	f7ff fedd 	bl	8009030 <ILI9341_Draw_Char>
 8009276:	9b03      	ldr	r3, [sp, #12]
 8009278:	e7e7      	b.n	800924a <ILI9341_Draw_String+0x4e>
 800927a:	f8df a08c 	ldr.w	sl, [pc, #140]	; 8009308 <ILI9341_Draw_String+0x10c>
 800927e:	2201      	movs	r2, #1
 8009280:	f88a 2000 	strb.w	r2, [sl]
 8009284:	3e01      	subs	r6, #1
 8009286:	f04f 0b08 	mov.w	fp, #8
 800928a:	f816 2f01 	ldrb.w	r2, [r6, #1]!
 800928e:	2a00      	cmp	r2, #0
 8009290:	d0de      	beq.n	8009250 <ILI9341_Draw_String+0x54>
 8009292:	eb08 0104 	add.w	r1, r8, r4
 8009296:	f5b1 7fa0 	cmp.w	r1, #320	; 0x140
 800929a:	bf84      	itt	hi
 800929c:	2401      	movhi	r4, #1
 800929e:	4445      	addhi	r5, r8
 80092a0:	e9cd 2700 	strd	r2, r7, [sp]
 80092a4:	4620      	mov	r0, r4
 80092a6:	464a      	mov	r2, r9
 80092a8:	4629      	mov	r1, r5
 80092aa:	9303      	str	r3, [sp, #12]
 80092ac:	f7ff fec0 	bl	8009030 <ILI9341_Draw_Char>
 80092b0:	f89a 2000 	ldrb.w	r2, [sl]
 80092b4:	9b03      	ldr	r3, [sp, #12]
 80092b6:	fb1b 4402 	smlabb	r4, fp, r2, r4
 80092ba:	e7e6      	b.n	800928a <ILI9341_Draw_String+0x8e>
 80092bc:	f8df a048 	ldr.w	sl, [pc, #72]	; 8009308 <ILI9341_Draw_String+0x10c>
 80092c0:	2201      	movs	r2, #1
 80092c2:	f88a 2000 	strb.w	r2, [sl]
 80092c6:	3e01      	subs	r6, #1
 80092c8:	f04f 0b0e 	mov.w	fp, #14
 80092cc:	f816 2f01 	ldrb.w	r2, [r6, #1]!
 80092d0:	2a00      	cmp	r2, #0
 80092d2:	d0bd      	beq.n	8009250 <ILI9341_Draw_String+0x54>
 80092d4:	eb08 0104 	add.w	r1, r8, r4
 80092d8:	f5b1 7fa0 	cmp.w	r1, #320	; 0x140
 80092dc:	bf84      	itt	hi
 80092de:	2401      	movhi	r4, #1
 80092e0:	4445      	addhi	r5, r8
 80092e2:	e9cd 2700 	strd	r2, r7, [sp]
 80092e6:	4620      	mov	r0, r4
 80092e8:	464a      	mov	r2, r9
 80092ea:	4629      	mov	r1, r5
 80092ec:	9303      	str	r3, [sp, #12]
 80092ee:	f7ff fe9f 	bl	8009030 <ILI9341_Draw_Char>
 80092f2:	f89a 2000 	ldrb.w	r2, [sl]
 80092f6:	9b03      	ldr	r3, [sp, #12]
 80092f8:	fb1b 4402 	smlabb	r4, fp, r2, r4
 80092fc:	e7e6      	b.n	80092cc <ILI9341_Draw_String+0xd0>
 80092fe:	bf00      	nop
 8009300:	48000800 	.word	0x48000800
 8009304:	200098e4 	.word	0x200098e4
 8009308:	2000987c 	.word	0x2000987c

0800930c <USBD_CDC_EP0_RxReady>:
 800930c:	f8d0 32bc 	ldr.w	r3, [r0, #700]	; 0x2bc
 8009310:	b510      	push	{r4, lr}
 8009312:	b16b      	cbz	r3, 8009330 <USBD_CDC_EP0_RxReady+0x24>
 8009314:	f8d0 42b8 	ldr.w	r4, [r0, #696]	; 0x2b8
 8009318:	f894 0200 	ldrb.w	r0, [r4, #512]	; 0x200
 800931c:	28ff      	cmp	r0, #255	; 0xff
 800931e:	d007      	beq.n	8009330 <USBD_CDC_EP0_RxReady+0x24>
 8009320:	689b      	ldr	r3, [r3, #8]
 8009322:	f894 2201 	ldrb.w	r2, [r4, #513]	; 0x201
 8009326:	4621      	mov	r1, r4
 8009328:	4798      	blx	r3
 800932a:	23ff      	movs	r3, #255	; 0xff
 800932c:	f884 3200 	strb.w	r3, [r4, #512]	; 0x200
 8009330:	2000      	movs	r0, #0
 8009332:	bd10      	pop	{r4, pc}

08009334 <USBD_CDC_GetFSCfgDesc>:
 8009334:	2343      	movs	r3, #67	; 0x43
 8009336:	8003      	strh	r3, [r0, #0]
 8009338:	4800      	ldr	r0, [pc, #0]	; (800933c <USBD_CDC_GetFSCfgDesc+0x8>)
 800933a:	4770      	bx	lr
 800933c:	20000068 	.word	0x20000068

08009340 <USBD_CDC_GetHSCfgDesc>:
 8009340:	2343      	movs	r3, #67	; 0x43
 8009342:	8003      	strh	r3, [r0, #0]
 8009344:	4800      	ldr	r0, [pc, #0]	; (8009348 <USBD_CDC_GetHSCfgDesc+0x8>)
 8009346:	4770      	bx	lr
 8009348:	200000ac 	.word	0x200000ac

0800934c <USBD_CDC_GetOtherSpeedCfgDesc>:
 800934c:	2343      	movs	r3, #67	; 0x43
 800934e:	8003      	strh	r3, [r0, #0]
 8009350:	4800      	ldr	r0, [pc, #0]	; (8009354 <USBD_CDC_GetOtherSpeedCfgDesc+0x8>)
 8009352:	4770      	bx	lr
 8009354:	200000fc 	.word	0x200000fc

08009358 <USBD_CDC_GetDeviceQualifierDescriptor>:
 8009358:	230a      	movs	r3, #10
 800935a:	8003      	strh	r3, [r0, #0]
 800935c:	4800      	ldr	r0, [pc, #0]	; (8009360 <USBD_CDC_GetDeviceQualifierDescriptor+0x8>)
 800935e:	4770      	bx	lr
 8009360:	200000f0 	.word	0x200000f0

08009364 <USBD_CDC_DataOut>:
 8009364:	b538      	push	{r3, r4, r5, lr}
 8009366:	4604      	mov	r4, r0
 8009368:	f8d0 52b8 	ldr.w	r5, [r0, #696]	; 0x2b8
 800936c:	f003 ffc0 	bl	800d2f0 <USBD_LL_GetRxDataSize>
 8009370:	f8d4 32b8 	ldr.w	r3, [r4, #696]	; 0x2b8
 8009374:	f8c5 020c 	str.w	r0, [r5, #524]	; 0x20c
 8009378:	b14b      	cbz	r3, 800938e <USBD_CDC_DataOut+0x2a>
 800937a:	f8d4 32bc 	ldr.w	r3, [r4, #700]	; 0x2bc
 800937e:	f8d5 0204 	ldr.w	r0, [r5, #516]	; 0x204
 8009382:	68db      	ldr	r3, [r3, #12]
 8009384:	f505 7103 	add.w	r1, r5, #524	; 0x20c
 8009388:	4798      	blx	r3
 800938a:	2000      	movs	r0, #0
 800938c:	bd38      	pop	{r3, r4, r5, pc}
 800938e:	2002      	movs	r0, #2
 8009390:	e7fc      	b.n	800938c <USBD_CDC_DataOut+0x28>

08009392 <USBD_CDC_DataIn>:
 8009392:	b5f8      	push	{r3, r4, r5, r6, r7, lr}
 8009394:	f8d0 62b8 	ldr.w	r6, [r0, #696]	; 0x2b8
 8009398:	b1d6      	cbz	r6, 80093d0 <USBD_CDC_DataIn+0x3e>
 800939a:	2414      	movs	r4, #20
 800939c:	fb04 0301 	mla	r3, r4, r1, r0
 80093a0:	f8d0 52c0 	ldr.w	r5, [r0, #704]	; 0x2c0
 80093a4:	69dc      	ldr	r4, [r3, #28]
 80093a6:	b17c      	cbz	r4, 80093c8 <USBD_CDC_DataIn+0x36>
 80093a8:	2728      	movs	r7, #40	; 0x28
 80093aa:	fb07 5201 	mla	r2, r7, r1, r5
 80093ae:	6b92      	ldr	r2, [r2, #56]	; 0x38
 80093b0:	fbb4 f5f2 	udiv	r5, r4, r2
 80093b4:	fb02 4415 	mls	r4, r2, r5, r4
 80093b8:	b934      	cbnz	r4, 80093c8 <USBD_CDC_DataIn+0x36>
 80093ba:	61dc      	str	r4, [r3, #28]
 80093bc:	4622      	mov	r2, r4
 80093be:	4623      	mov	r3, r4
 80093c0:	f003 ff84 	bl	800d2cc <USBD_LL_Transmit>
 80093c4:	4620      	mov	r0, r4
 80093c6:	bdf8      	pop	{r3, r4, r5, r6, r7, pc}
 80093c8:	2000      	movs	r0, #0
 80093ca:	f8c6 0214 	str.w	r0, [r6, #532]	; 0x214
 80093ce:	e7fa      	b.n	80093c6 <USBD_CDC_DataIn+0x34>
 80093d0:	2002      	movs	r0, #2
 80093d2:	e7f8      	b.n	80093c6 <USBD_CDC_DataIn+0x34>

080093d4 <USBD_CDC_Setup>:
 80093d4:	e92d 43f7 	stmdb	sp!, {r0, r1, r2, r4, r5, r6, r7, r8, r9, lr}
 80093d8:	780a      	ldrb	r2, [r1, #0]
 80093da:	f8d0 72b8 	ldr.w	r7, [r0, #696]	; 0x2b8
 80093de:	f04f 0800 	mov.w	r8, #0
 80093e2:	f012 0460 	ands.w	r4, r2, #96	; 0x60
 80093e6:	4605      	mov	r5, r0
 80093e8:	460e      	mov	r6, r1
 80093ea:	f88d 8005 	strb.w	r8, [sp, #5]
 80093ee:	f8ad 8006 	strh.w	r8, [sp, #6]
 80093f2:	d028      	beq.n	8009446 <USBD_CDC_Setup+0x72>
 80093f4:	2c20      	cmp	r4, #32
 80093f6:	d142      	bne.n	800947e <USBD_CDC_Setup+0xaa>
 80093f8:	88cc      	ldrh	r4, [r1, #6]
 80093fa:	784b      	ldrb	r3, [r1, #1]
 80093fc:	b1e4      	cbz	r4, 8009438 <USBD_CDC_Setup+0x64>
 80093fe:	0612      	lsls	r2, r2, #24
 8009400:	d511      	bpl.n	8009426 <USBD_CDC_Setup+0x52>
 8009402:	f8d0 22bc 	ldr.w	r2, [r0, #700]	; 0x2bc
 8009406:	4639      	mov	r1, r7
 8009408:	f8d2 9008 	ldr.w	r9, [r2, #8]
 800940c:	4618      	mov	r0, r3
 800940e:	4622      	mov	r2, r4
 8009410:	47c8      	blx	r9
 8009412:	88f2      	ldrh	r2, [r6, #6]
 8009414:	4639      	mov	r1, r7
 8009416:	4628      	mov	r0, r5
 8009418:	f000 fc2f 	bl	8009c7a <USBD_CtlSendData>
 800941c:	4644      	mov	r4, r8
 800941e:	4620      	mov	r0, r4
 8009420:	b003      	add	sp, #12
 8009422:	e8bd 83f0 	ldmia.w	sp!, {r4, r5, r6, r7, r8, r9, pc}
 8009426:	f887 3200 	strb.w	r3, [r7, #512]	; 0x200
 800942a:	f887 4201 	strb.w	r4, [r7, #513]	; 0x201
 800942e:	4622      	mov	r2, r4
 8009430:	4639      	mov	r1, r7
 8009432:	f000 fc37 	bl	8009ca4 <USBD_CtlPrepareRx>
 8009436:	e7f1      	b.n	800941c <USBD_CDC_Setup+0x48>
 8009438:	f8d0 22bc 	ldr.w	r2, [r0, #700]	; 0x2bc
 800943c:	4618      	mov	r0, r3
 800943e:	6895      	ldr	r5, [r2, #8]
 8009440:	4622      	mov	r2, r4
 8009442:	47a8      	blx	r5
 8009444:	e7eb      	b.n	800941e <USBD_CDC_Setup+0x4a>
 8009446:	784b      	ldrb	r3, [r1, #1]
 8009448:	2b0a      	cmp	r3, #10
 800944a:	d00c      	beq.n	8009466 <USBD_CDC_Setup+0x92>
 800944c:	2b0b      	cmp	r3, #11
 800944e:	d012      	beq.n	8009476 <USBD_CDC_Setup+0xa2>
 8009450:	b9ab      	cbnz	r3, 800947e <USBD_CDC_Setup+0xaa>
 8009452:	f890 329c 	ldrb.w	r3, [r0, #668]	; 0x29c
 8009456:	2b03      	cmp	r3, #3
 8009458:	d111      	bne.n	800947e <USBD_CDC_Setup+0xaa>
 800945a:	2202      	movs	r2, #2
 800945c:	f10d 0106 	add.w	r1, sp, #6
 8009460:	f000 fc0b 	bl	8009c7a <USBD_CtlSendData>
 8009464:	e7db      	b.n	800941e <USBD_CDC_Setup+0x4a>
 8009466:	f890 329c 	ldrb.w	r3, [r0, #668]	; 0x29c
 800946a:	2b03      	cmp	r3, #3
 800946c:	d107      	bne.n	800947e <USBD_CDC_Setup+0xaa>
 800946e:	2201      	movs	r2, #1
 8009470:	f10d 0105 	add.w	r1, sp, #5
 8009474:	e7f4      	b.n	8009460 <USBD_CDC_Setup+0x8c>
 8009476:	f890 329c 	ldrb.w	r3, [r0, #668]	; 0x29c
 800947a:	2b03      	cmp	r3, #3
 800947c:	d0cf      	beq.n	800941e <USBD_CDC_Setup+0x4a>
 800947e:	4631      	mov	r1, r6
 8009480:	4628      	mov	r0, r5
 8009482:	f000 fbd3 	bl	8009c2c <USBD_CtlError>
 8009486:	2402      	movs	r4, #2
 8009488:	e7c9      	b.n	800941e <USBD_CDC_Setup+0x4a>

0800948a <USBD_CDC_DeInit>:
 800948a:	b538      	push	{r3, r4, r5, lr}
 800948c:	4604      	mov	r4, r0
 800948e:	2500      	movs	r5, #0
 8009490:	2181      	movs	r1, #129	; 0x81
 8009492:	f003 fee4 	bl	800d25e <USBD_LL_CloseEP>
 8009496:	2101      	movs	r1, #1
 8009498:	62e5      	str	r5, [r4, #44]	; 0x2c
 800949a:	4620      	mov	r0, r4
 800949c:	f003 fedf 	bl	800d25e <USBD_LL_CloseEP>
 80094a0:	f8c4 516c 	str.w	r5, [r4, #364]	; 0x16c
 80094a4:	2182      	movs	r1, #130	; 0x82
 80094a6:	4620      	mov	r0, r4
 80094a8:	f003 fed9 	bl	800d25e <USBD_LL_CloseEP>
 80094ac:	f8d4 32b8 	ldr.w	r3, [r4, #696]	; 0x2b8
 80094b0:	6425      	str	r5, [r4, #64]	; 0x40
 80094b2:	b14b      	cbz	r3, 80094c8 <USBD_CDC_DeInit+0x3e>
 80094b4:	f8d4 32bc 	ldr.w	r3, [r4, #700]	; 0x2bc
 80094b8:	685b      	ldr	r3, [r3, #4]
 80094ba:	4798      	blx	r3
 80094bc:	f8d4 02b8 	ldr.w	r0, [r4, #696]	; 0x2b8
 80094c0:	f003 ff1e 	bl	800d300 <USBD_static_free>
 80094c4:	f8c4 52b8 	str.w	r5, [r4, #696]	; 0x2b8
 80094c8:	2000      	movs	r0, #0
 80094ca:	bd38      	pop	{r3, r4, r5, pc}

080094cc <USBD_CDC_Init>:
 80094cc:	e92d 41f0 	stmdb	sp!, {r4, r5, r6, r7, r8, lr}
 80094d0:	7c03      	ldrb	r3, [r0, #16]
 80094d2:	4604      	mov	r4, r0
 80094d4:	bbb3      	cbnz	r3, 8009544 <USBD_CDC_Init+0x78>
 80094d6:	f44f 7300 	mov.w	r3, #512	; 0x200
 80094da:	2181      	movs	r1, #129	; 0x81
 80094dc:	2202      	movs	r2, #2
 80094de:	f003 feb2 	bl	800d246 <USBD_LL_OpenEP>
 80094e2:	2101      	movs	r1, #1
 80094e4:	62e1      	str	r1, [r4, #44]	; 0x2c
 80094e6:	f44f 7300 	mov.w	r3, #512	; 0x200
 80094ea:	2202      	movs	r2, #2
 80094ec:	2601      	movs	r6, #1
 80094ee:	4620      	mov	r0, r4
 80094f0:	f003 fea9 	bl	800d246 <USBD_LL_OpenEP>
 80094f4:	2308      	movs	r3, #8
 80094f6:	2203      	movs	r2, #3
 80094f8:	2182      	movs	r1, #130	; 0x82
 80094fa:	f8c4 616c 	str.w	r6, [r4, #364]	; 0x16c
 80094fe:	4620      	mov	r0, r4
 8009500:	f003 fea1 	bl	800d246 <USBD_LL_OpenEP>
 8009504:	6426      	str	r6, [r4, #64]	; 0x40
 8009506:	f44f 7007 	mov.w	r0, #540	; 0x21c
 800950a:	f003 fef5 	bl	800d2f8 <USBD_static_malloc>
 800950e:	4605      	mov	r5, r0
 8009510:	f8c4 02b8 	str.w	r0, [r4, #696]	; 0x2b8
 8009514:	b340      	cbz	r0, 8009568 <USBD_CDC_Init+0x9c>
 8009516:	f8d4 32bc 	ldr.w	r3, [r4, #700]	; 0x2bc
 800951a:	f04f 0800 	mov.w	r8, #0
 800951e:	681b      	ldr	r3, [r3, #0]
 8009520:	4798      	blx	r3
 8009522:	f8c5 8214 	str.w	r8, [r5, #532]	; 0x214
 8009526:	f8c5 8218 	str.w	r8, [r5, #536]	; 0x218
 800952a:	7c27      	ldrb	r7, [r4, #16]
 800952c:	b99f      	cbnz	r7, 8009556 <USBD_CDC_Init+0x8a>
 800952e:	f8d5 2204 	ldr.w	r2, [r5, #516]	; 0x204
 8009532:	f44f 7300 	mov.w	r3, #512	; 0x200
 8009536:	4631      	mov	r1, r6
 8009538:	4620      	mov	r0, r4
 800953a:	f003 fed0 	bl	800d2de <USBD_LL_PrepareReceive>
 800953e:	4638      	mov	r0, r7
 8009540:	e8bd 81f0 	ldmia.w	sp!, {r4, r5, r6, r7, r8, pc}
 8009544:	2340      	movs	r3, #64	; 0x40
 8009546:	2181      	movs	r1, #129	; 0x81
 8009548:	2202      	movs	r2, #2
 800954a:	f003 fe7c 	bl	800d246 <USBD_LL_OpenEP>
 800954e:	2101      	movs	r1, #1
 8009550:	62e1      	str	r1, [r4, #44]	; 0x2c
 8009552:	2340      	movs	r3, #64	; 0x40
 8009554:	e7c9      	b.n	80094ea <USBD_CDC_Init+0x1e>
 8009556:	f8d5 2204 	ldr.w	r2, [r5, #516]	; 0x204
 800955a:	2340      	movs	r3, #64	; 0x40
 800955c:	4631      	mov	r1, r6
 800955e:	4620      	mov	r0, r4
 8009560:	f003 febd 	bl	800d2de <USBD_LL_PrepareReceive>
 8009564:	4647      	mov	r7, r8
 8009566:	e7ea      	b.n	800953e <USBD_CDC_Init+0x72>
 8009568:	4637      	mov	r7, r6
 800956a:	e7e8      	b.n	800953e <USBD_CDC_Init+0x72>

0800956c <USBD_CDC_RegisterInterface>:
 800956c:	b119      	cbz	r1, 8009576 <USBD_CDC_RegisterInterface+0xa>
 800956e:	f8c0 12bc 	str.w	r1, [r0, #700]	; 0x2bc
 8009572:	2000      	movs	r0, #0
 8009574:	4770      	bx	lr
 8009576:	2002      	movs	r0, #2
 8009578:	4770      	bx	lr

0800957a <USBD_CDC_SetTxBuffer>:
 800957a:	f8d0 32b8 	ldr.w	r3, [r0, #696]	; 0x2b8
 800957e:	2000      	movs	r0, #0
 8009580:	f8c3 1208 	str.w	r1, [r3, #520]	; 0x208
 8009584:	f8c3 2210 	str.w	r2, [r3, #528]	; 0x210
 8009588:	4770      	bx	lr

0800958a <USBD_CDC_SetRxBuffer>:
 800958a:	f8d0 32b8 	ldr.w	r3, [r0, #696]	; 0x2b8
 800958e:	2000      	movs	r0, #0
 8009590:	f8c3 1204 	str.w	r1, [r3, #516]	; 0x204
 8009594:	4770      	bx	lr

08009596 <USBD_CDC_ReceivePacket>:
 8009596:	f8d0 22b8 	ldr.w	r2, [r0, #696]	; 0x2b8
 800959a:	b510      	push	{r4, lr}
 800959c:	b182      	cbz	r2, 80095c0 <USBD_CDC_ReceivePacket+0x2a>
 800959e:	7c04      	ldrb	r4, [r0, #16]
 80095a0:	f8d2 2204 	ldr.w	r2, [r2, #516]	; 0x204
 80095a4:	b934      	cbnz	r4, 80095b4 <USBD_CDC_ReceivePacket+0x1e>
 80095a6:	f44f 7300 	mov.w	r3, #512	; 0x200
 80095aa:	2101      	movs	r1, #1
 80095ac:	f003 fe97 	bl	800d2de <USBD_LL_PrepareReceive>
 80095b0:	4620      	mov	r0, r4
 80095b2:	bd10      	pop	{r4, pc}
 80095b4:	2340      	movs	r3, #64	; 0x40
 80095b6:	2101      	movs	r1, #1
 80095b8:	f003 fe91 	bl	800d2de <USBD_LL_PrepareReceive>
 80095bc:	2400      	movs	r4, #0
 80095be:	e7f7      	b.n	80095b0 <USBD_CDC_ReceivePacket+0x1a>
 80095c0:	2402      	movs	r4, #2
 80095c2:	e7f5      	b.n	80095b0 <USBD_CDC_ReceivePacket+0x1a>

080095c4 <USBD_Init>:
 80095c4:	b508      	push	{r3, lr}
 80095c6:	b180      	cbz	r0, 80095ea <USBD_Init+0x26>
 80095c8:	f8d0 32b4 	ldr.w	r3, [r0, #692]	; 0x2b4
 80095cc:	b113      	cbz	r3, 80095d4 <USBD_Init+0x10>
 80095ce:	2300      	movs	r3, #0
 80095d0:	f8c0 32b4 	str.w	r3, [r0, #692]	; 0x2b4
 80095d4:	b109      	cbz	r1, 80095da <USBD_Init+0x16>
 80095d6:	f8c0 12b0 	str.w	r1, [r0, #688]	; 0x2b0
 80095da:	2301      	movs	r3, #1
 80095dc:	f880 329c 	strb.w	r3, [r0, #668]	; 0x29c
 80095e0:	7002      	strb	r2, [r0, #0]
 80095e2:	f003 fde5 	bl	800d1b0 <USBD_LL_Init>
 80095e6:	2000      	movs	r0, #0
 80095e8:	bd08      	pop	{r3, pc}
 80095ea:	2002      	movs	r0, #2
 80095ec:	e7fc      	b.n	80095e8 <USBD_Init+0x24>

080095ee <USBD_RegisterClass>:
 80095ee:	b119      	cbz	r1, 80095f8 <USBD_RegisterClass+0xa>
 80095f0:	f8c0 12b4 	str.w	r1, [r0, #692]	; 0x2b4
 80095f4:	2000      	movs	r0, #0
 80095f6:	4770      	bx	lr
 80095f8:	2002      	movs	r0, #2
 80095fa:	4770      	bx	lr

080095fc <USBD_Start>:
 80095fc:	b508      	push	{r3, lr}
 80095fe:	f003 fe19 	bl	800d234 <USBD_LL_Start>
 8009602:	2000      	movs	r0, #0
 8009604:	bd08      	pop	{r3, pc}

08009606 <USBD_SetClassConfig>:
 8009606:	b508      	push	{r3, lr}
 8009608:	f8d0 32b4 	ldr.w	r3, [r0, #692]	; 0x2b4
 800960c:	b133      	cbz	r3, 800961c <USBD_SetClassConfig+0x16>
 800960e:	681b      	ldr	r3, [r3, #0]
 8009610:	4798      	blx	r3
 8009612:	3800      	subs	r0, #0
 8009614:	bf18      	it	ne
 8009616:	2001      	movne	r0, #1
 8009618:	0040      	lsls	r0, r0, #1
 800961a:	bd08      	pop	{r3, pc}
 800961c:	2002      	movs	r0, #2
 800961e:	e7fc      	b.n	800961a <USBD_SetClassConfig+0x14>

08009620 <USBD_ClrClassConfig>:
 8009620:	b508      	push	{r3, lr}
 8009622:	f8d0 32b4 	ldr.w	r3, [r0, #692]	; 0x2b4
 8009626:	685b      	ldr	r3, [r3, #4]
 8009628:	4798      	blx	r3
 800962a:	2000      	movs	r0, #0
 800962c:	bd08      	pop	{r3, pc}

0800962e <USBD_LL_SetupStage>:
 800962e:	b538      	push	{r3, r4, r5, lr}
 8009630:	4604      	mov	r4, r0
 8009632:	f500 752a 	add.w	r5, r0, #680	; 0x2a8
 8009636:	4628      	mov	r0, r5
 8009638:	f000 fae4 	bl	8009c04 <USBD_ParseSetupRequest>
 800963c:	2301      	movs	r3, #1
 800963e:	f894 12a8 	ldrb.w	r1, [r4, #680]	; 0x2a8
 8009642:	f8c4 3294 	str.w	r3, [r4, #660]	; 0x294
 8009646:	f8b4 32ae 	ldrh.w	r3, [r4, #686]	; 0x2ae
 800964a:	f8c4 3298 	str.w	r3, [r4, #664]	; 0x298
 800964e:	f001 031f 	and.w	r3, r1, #31
 8009652:	2b01      	cmp	r3, #1
 8009654:	d008      	beq.n	8009668 <USBD_LL_SetupStage+0x3a>
 8009656:	2b02      	cmp	r3, #2
 8009658:	d00b      	beq.n	8009672 <USBD_LL_SetupStage+0x44>
 800965a:	b97b      	cbnz	r3, 800967c <USBD_LL_SetupStage+0x4e>
 800965c:	4629      	mov	r1, r5
 800965e:	4620      	mov	r0, r4
 8009660:	f000 f8fc 	bl	800985c <USBD_StdDevReq>
 8009664:	2000      	movs	r0, #0
 8009666:	bd38      	pop	{r3, r4, r5, pc}
 8009668:	4629      	mov	r1, r5
 800966a:	4620      	mov	r0, r4
 800966c:	f000 fa1e 	bl	8009aac <USBD_StdItfReq>
 8009670:	e7f8      	b.n	8009664 <USBD_LL_SetupStage+0x36>
 8009672:	4629      	mov	r1, r5
 8009674:	4620      	mov	r0, r4
 8009676:	f000 fa3d 	bl	8009af4 <USBD_StdEPReq>
 800967a:	e7f3      	b.n	8009664 <USBD_LL_SetupStage+0x36>
 800967c:	f001 0180 	and.w	r1, r1, #128	; 0x80
 8009680:	4620      	mov	r0, r4
 8009682:	f003 fdf5 	bl	800d270 <USBD_LL_StallEP>
 8009686:	e7ed      	b.n	8009664 <USBD_LL_SetupStage+0x36>

08009688 <USBD_LL_DataOutStage>:
 8009688:	b5f8      	push	{r3, r4, r5, r6, r7, lr}
 800968a:	4604      	mov	r4, r0
 800968c:	4617      	mov	r7, r2
 800968e:	460d      	mov	r5, r1
 8009690:	bb39      	cbnz	r1, 80096e2 <USBD_LL_DataOutStage+0x5a>
 8009692:	f8d0 3294 	ldr.w	r3, [r0, #660]	; 0x294
 8009696:	2b03      	cmp	r3, #3
 8009698:	d11c      	bne.n	80096d4 <USBD_LL_DataOutStage+0x4c>
 800969a:	e9d0 6258 	ldrd	r6, r2, [r0, #352]	; 0x160
 800969e:	4296      	cmp	r6, r2
 80096a0:	d90b      	bls.n	80096ba <USBD_LL_DataOutStage+0x32>
 80096a2:	1ab6      	subs	r6, r6, r2
 80096a4:	42b2      	cmp	r2, r6
 80096a6:	f8c0 6160 	str.w	r6, [r0, #352]	; 0x160
 80096aa:	bf8c      	ite	hi
 80096ac:	b2b2      	uxthhi	r2, r6
 80096ae:	b292      	uxthls	r2, r2
 80096b0:	4639      	mov	r1, r7
 80096b2:	f000 fb04 	bl	8009cbe <USBD_CtlContinueRx>
 80096b6:	4628      	mov	r0, r5
 80096b8:	bdf8      	pop	{r3, r4, r5, r6, r7, pc}
 80096ba:	f8d0 32b4 	ldr.w	r3, [r0, #692]	; 0x2b4
 80096be:	691b      	ldr	r3, [r3, #16]
 80096c0:	b123      	cbz	r3, 80096cc <USBD_LL_DataOutStage+0x44>
 80096c2:	f890 229c 	ldrb.w	r2, [r0, #668]	; 0x29c
 80096c6:	2a03      	cmp	r2, #3
 80096c8:	d100      	bne.n	80096cc <USBD_LL_DataOutStage+0x44>
 80096ca:	4798      	blx	r3
 80096cc:	4620      	mov	r0, r4
 80096ce:	f000 fafe 	bl	8009cce <USBD_CtlSendStatus>
 80096d2:	e7f0      	b.n	80096b6 <USBD_LL_DataOutStage+0x2e>
 80096d4:	2b05      	cmp	r3, #5
 80096d6:	d1ee      	bne.n	80096b6 <USBD_LL_DataOutStage+0x2e>
 80096d8:	f8c4 1294 	str.w	r1, [r4, #660]	; 0x294
 80096dc:	f003 fdc8 	bl	800d270 <USBD_LL_StallEP>
 80096e0:	e7e9      	b.n	80096b6 <USBD_LL_DataOutStage+0x2e>
 80096e2:	f8d0 32b4 	ldr.w	r3, [r0, #692]	; 0x2b4
 80096e6:	699b      	ldr	r3, [r3, #24]
 80096e8:	b133      	cbz	r3, 80096f8 <USBD_LL_DataOutStage+0x70>
 80096ea:	f890 229c 	ldrb.w	r2, [r0, #668]	; 0x29c
 80096ee:	2a03      	cmp	r2, #3
 80096f0:	d102      	bne.n	80096f8 <USBD_LL_DataOutStage+0x70>
 80096f2:	4798      	blx	r3
 80096f4:	2500      	movs	r5, #0
 80096f6:	e7de      	b.n	80096b6 <USBD_LL_DataOutStage+0x2e>
 80096f8:	2502      	movs	r5, #2
 80096fa:	e7dc      	b.n	80096b6 <USBD_LL_DataOutStage+0x2e>

080096fc <USBD_LL_DataInStage>:
 80096fc:	b5f8      	push	{r3, r4, r5, r6, r7, lr}
 80096fe:	4604      	mov	r4, r0
 8009700:	4617      	mov	r7, r2
 8009702:	460d      	mov	r5, r1
 8009704:	2900      	cmp	r1, #0
 8009706:	d147      	bne.n	8009798 <USBD_LL_DataInStage+0x9c>
 8009708:	f8d0 3294 	ldr.w	r3, [r0, #660]	; 0x294
 800970c:	2b02      	cmp	r3, #2
 800970e:	d13c      	bne.n	800978a <USBD_LL_DataInStage+0x8e>
 8009710:	e9d0 6308 	ldrd	r6, r3, [r0, #32]
 8009714:	429e      	cmp	r6, r3
 8009716:	d914      	bls.n	8009742 <USBD_LL_DataInStage+0x46>
 8009718:	1af6      	subs	r6, r6, r3
 800971a:	6206      	str	r6, [r0, #32]
 800971c:	b2b2      	uxth	r2, r6
 800971e:	4639      	mov	r1, r7
 8009720:	f000 fab8 	bl	8009c94 <USBD_CtlContinueSendData>
 8009724:	462b      	mov	r3, r5
 8009726:	462a      	mov	r2, r5
 8009728:	4629      	mov	r1, r5
 800972a:	4620      	mov	r0, r4
 800972c:	f003 fdd7 	bl	800d2de <USBD_LL_PrepareReceive>
 8009730:	f894 32a0 	ldrb.w	r3, [r4, #672]	; 0x2a0
 8009734:	2b01      	cmp	r3, #1
 8009736:	d102      	bne.n	800973e <USBD_LL_DataInStage+0x42>
 8009738:	2300      	movs	r3, #0
 800973a:	f884 32a0 	strb.w	r3, [r4, #672]	; 0x2a0
 800973e:	4628      	mov	r0, r5
 8009740:	bdf8      	pop	{r3, r4, r5, r6, r7, pc}
 8009742:	69c2      	ldr	r2, [r0, #28]
 8009744:	fbb2 f6f3 	udiv	r6, r2, r3
 8009748:	fb03 2616 	mls	r6, r3, r6, r2
 800974c:	b95e      	cbnz	r6, 8009766 <USBD_LL_DataInStage+0x6a>
 800974e:	4293      	cmp	r3, r2
 8009750:	d809      	bhi.n	8009766 <USBD_LL_DataInStage+0x6a>
 8009752:	f8d0 3298 	ldr.w	r3, [r0, #664]	; 0x298
 8009756:	429a      	cmp	r2, r3
 8009758:	d205      	bcs.n	8009766 <USBD_LL_DataInStage+0x6a>
 800975a:	460a      	mov	r2, r1
 800975c:	f000 fa9a 	bl	8009c94 <USBD_CtlContinueSendData>
 8009760:	f8c4 5298 	str.w	r5, [r4, #664]	; 0x298
 8009764:	e7de      	b.n	8009724 <USBD_LL_DataInStage+0x28>
 8009766:	f8d4 32b4 	ldr.w	r3, [r4, #692]	; 0x2b4
 800976a:	68db      	ldr	r3, [r3, #12]
 800976c:	b12b      	cbz	r3, 800977a <USBD_LL_DataInStage+0x7e>
 800976e:	f894 229c 	ldrb.w	r2, [r4, #668]	; 0x29c
 8009772:	2a03      	cmp	r2, #3
 8009774:	d101      	bne.n	800977a <USBD_LL_DataInStage+0x7e>
 8009776:	4620      	mov	r0, r4
 8009778:	4798      	blx	r3
 800977a:	2180      	movs	r1, #128	; 0x80
 800977c:	4620      	mov	r0, r4
 800977e:	f003 fd77 	bl	800d270 <USBD_LL_StallEP>
 8009782:	4620      	mov	r0, r4
 8009784:	f000 faae 	bl	8009ce4 <USBD_CtlReceiveStatus>
 8009788:	e7d2      	b.n	8009730 <USBD_LL_DataInStage+0x34>
 800978a:	f033 0304 	bics.w	r3, r3, #4
 800978e:	d1cf      	bne.n	8009730 <USBD_LL_DataInStage+0x34>
 8009790:	2180      	movs	r1, #128	; 0x80
 8009792:	f003 fd6d 	bl	800d270 <USBD_LL_StallEP>
 8009796:	e7cb      	b.n	8009730 <USBD_LL_DataInStage+0x34>
 8009798:	f8d0 32b4 	ldr.w	r3, [r0, #692]	; 0x2b4
 800979c:	695b      	ldr	r3, [r3, #20]
 800979e:	b133      	cbz	r3, 80097ae <USBD_LL_DataInStage+0xb2>
 80097a0:	f890 229c 	ldrb.w	r2, [r0, #668]	; 0x29c
 80097a4:	2a03      	cmp	r2, #3
 80097a6:	d102      	bne.n	80097ae <USBD_LL_DataInStage+0xb2>
 80097a8:	4798      	blx	r3
 80097aa:	2500      	movs	r5, #0
 80097ac:	e7c7      	b.n	800973e <USBD_LL_DataInStage+0x42>
 80097ae:	2502      	movs	r5, #2
 80097b0:	e7c5      	b.n	800973e <USBD_LL_DataInStage+0x42>

080097b2 <USBD_LL_Reset>:
 80097b2:	b570      	push	{r4, r5, r6, lr}
 80097b4:	2200      	movs	r2, #0
 80097b6:	4604      	mov	r4, r0
 80097b8:	4611      	mov	r1, r2
 80097ba:	2501      	movs	r5, #1
 80097bc:	2640      	movs	r6, #64	; 0x40
 80097be:	2340      	movs	r3, #64	; 0x40
 80097c0:	f003 fd41 	bl	800d246 <USBD_LL_OpenEP>
 80097c4:	4633      	mov	r3, r6
 80097c6:	2180      	movs	r1, #128	; 0x80
 80097c8:	f8c4 5158 	str.w	r5, [r4, #344]	; 0x158
 80097cc:	f8c4 6164 	str.w	r6, [r4, #356]	; 0x164
 80097d0:	2200      	movs	r2, #0
 80097d2:	4620      	mov	r0, r4
 80097d4:	f003 fd37 	bl	800d246 <USBD_LL_OpenEP>
 80097d8:	f8d4 32b8 	ldr.w	r3, [r4, #696]	; 0x2b8
 80097dc:	61a5      	str	r5, [r4, #24]
 80097de:	2100      	movs	r1, #0
 80097e0:	6266      	str	r6, [r4, #36]	; 0x24
 80097e2:	f884 529c 	strb.w	r5, [r4, #668]	; 0x29c
 80097e6:	f8c4 1294 	str.w	r1, [r4, #660]	; 0x294
 80097ea:	6061      	str	r1, [r4, #4]
 80097ec:	f8c4 12a4 	str.w	r1, [r4, #676]	; 0x2a4
 80097f0:	b123      	cbz	r3, 80097fc <USBD_LL_Reset+0x4a>
 80097f2:	f8d4 32b4 	ldr.w	r3, [r4, #692]	; 0x2b4
 80097f6:	4620      	mov	r0, r4
 80097f8:	685b      	ldr	r3, [r3, #4]
 80097fa:	4798      	blx	r3
 80097fc:	2000      	movs	r0, #0
 80097fe:	bd70      	pop	{r4, r5, r6, pc}

08009800 <USBD_LL_SetSpeed>:
 8009800:	7401      	strb	r1, [r0, #16]
 8009802:	2000      	movs	r0, #0
 8009804:	4770      	bx	lr

08009806 <USBD_LL_Suspend>:
 8009806:	f890 329c 	ldrb.w	r3, [r0, #668]	; 0x29c
 800980a:	f880 329d 	strb.w	r3, [r0, #669]	; 0x29d
 800980e:	2304      	movs	r3, #4
 8009810:	f880 329c 	strb.w	r3, [r0, #668]	; 0x29c
 8009814:	2000      	movs	r0, #0
 8009816:	4770      	bx	lr

08009818 <USBD_LL_Resume>:
 8009818:	f890 329c 	ldrb.w	r3, [r0, #668]	; 0x29c
 800981c:	2b04      	cmp	r3, #4
 800981e:	bf04      	itt	eq
 8009820:	f890 329d 	ldrbeq.w	r3, [r0, #669]	; 0x29d
 8009824:	f880 329c 	strbeq.w	r3, [r0, #668]	; 0x29c
 8009828:	2000      	movs	r0, #0
 800982a:	4770      	bx	lr

0800982c <USBD_LL_SOF>:
 800982c:	b508      	push	{r3, lr}
 800982e:	f890 229c 	ldrb.w	r2, [r0, #668]	; 0x29c
 8009832:	2a03      	cmp	r2, #3
 8009834:	d104      	bne.n	8009840 <USBD_LL_SOF+0x14>
 8009836:	f8d0 32b4 	ldr.w	r3, [r0, #692]	; 0x2b4
 800983a:	69db      	ldr	r3, [r3, #28]
 800983c:	b103      	cbz	r3, 8009840 <USBD_LL_SOF+0x14>
 800983e:	4798      	blx	r3
 8009840:	2000      	movs	r0, #0
 8009842:	bd08      	pop	{r3, pc}

08009844 <USBD_CtlError.constprop.0>:
 8009844:	b510      	push	{r4, lr}
 8009846:	2180      	movs	r1, #128	; 0x80
 8009848:	4604      	mov	r4, r0
 800984a:	f003 fd11 	bl	800d270 <USBD_LL_StallEP>
 800984e:	4620      	mov	r0, r4
 8009850:	2100      	movs	r1, #0
 8009852:	e8bd 4010 	ldmia.w	sp!, {r4, lr}
 8009856:	f003 bd0b 	b.w	800d270 <USBD_LL_StallEP>
	...

0800985c <USBD_StdDevReq>:
 800985c:	b537      	push	{r0, r1, r2, r4, r5, lr}
 800985e:	780b      	ldrb	r3, [r1, #0]
 8009860:	f003 0360 	and.w	r3, r3, #96	; 0x60
 8009864:	2b20      	cmp	r3, #32
 8009866:	4604      	mov	r4, r0
 8009868:	460d      	mov	r5, r1
 800986a:	d012      	beq.n	8009892 <USBD_StdDevReq+0x36>
 800986c:	2b40      	cmp	r3, #64	; 0x40
 800986e:	d010      	beq.n	8009892 <USBD_StdDevReq+0x36>
 8009870:	2b00      	cmp	r3, #0
 8009872:	d151      	bne.n	8009918 <USBD_StdDevReq+0xbc>
 8009874:	784b      	ldrb	r3, [r1, #1]
 8009876:	2b09      	cmp	r3, #9
 8009878:	d84e      	bhi.n	8009918 <USBD_StdDevReq+0xbc>
 800987a:	e8df f013 	tbh	[pc, r3, lsl #1]
 800987e:	00ee      	.short	0x00ee
 8009880:	004d0109 	.word	0x004d0109
 8009884:	004d0102 	.word	0x004d0102
 8009888:	00130087 	.word	0x00130087
 800988c:	00d6004d 	.word	0x00d6004d
 8009890:	00a3      	.short	0x00a3
 8009892:	f8d4 32b4 	ldr.w	r3, [r4, #692]	; 0x2b4
 8009896:	4629      	mov	r1, r5
 8009898:	689b      	ldr	r3, [r3, #8]
 800989a:	4620      	mov	r0, r4
 800989c:	4798      	blx	r3
 800989e:	2000      	movs	r0, #0
 80098a0:	b003      	add	sp, #12
 80098a2:	bd30      	pop	{r4, r5, pc}
 80098a4:	2300      	movs	r3, #0
 80098a6:	f8ad 3006 	strh.w	r3, [sp, #6]
 80098aa:	884b      	ldrh	r3, [r1, #2]
 80098ac:	0a1a      	lsrs	r2, r3, #8
 80098ae:	3a01      	subs	r2, #1
 80098b0:	2a06      	cmp	r2, #6
 80098b2:	d831      	bhi.n	8009918 <USBD_StdDevReq+0xbc>
 80098b4:	e8df f002 	tbb	[pc, r2]
 80098b8:	30231604 	.word	0x30231604
 80098bc:	4830      	.short	0x4830
 80098be:	52          	.byte	0x52
 80098bf:	00          	.byte	0x00
 80098c0:	f8d0 32b0 	ldr.w	r3, [r0, #688]	; 0x2b0
 80098c4:	681b      	ldr	r3, [r3, #0]
 80098c6:	7c20      	ldrb	r0, [r4, #16]
 80098c8:	f10d 0106 	add.w	r1, sp, #6
 80098cc:	4798      	blx	r3
 80098ce:	f8bd 2006 	ldrh.w	r2, [sp, #6]
 80098d2:	88eb      	ldrh	r3, [r5, #6]
 80098d4:	2a00      	cmp	r2, #0
 80098d6:	d055      	beq.n	8009984 <USBD_StdDevReq+0x128>
 80098d8:	2b00      	cmp	r3, #0
 80098da:	d14a      	bne.n	8009972 <USBD_StdDevReq+0x116>
 80098dc:	4620      	mov	r0, r4
 80098de:	f000 f9f6 	bl	8009cce <USBD_CtlSendStatus>
 80098e2:	e7dc      	b.n	800989e <USBD_StdDevReq+0x42>
 80098e4:	7c02      	ldrb	r2, [r0, #16]
 80098e6:	f8d0 32b4 	ldr.w	r3, [r0, #692]	; 0x2b4
 80098ea:	b932      	cbnz	r2, 80098fa <USBD_StdDevReq+0x9e>
 80098ec:	6a9b      	ldr	r3, [r3, #40]	; 0x28
 80098ee:	f10d 0006 	add.w	r0, sp, #6
 80098f2:	4798      	blx	r3
 80098f4:	2302      	movs	r3, #2
 80098f6:	7043      	strb	r3, [r0, #1]
 80098f8:	e7e9      	b.n	80098ce <USBD_StdDevReq+0x72>
 80098fa:	6adb      	ldr	r3, [r3, #44]	; 0x2c
 80098fc:	e7f7      	b.n	80098ee <USBD_StdDevReq+0x92>
 80098fe:	b2db      	uxtb	r3, r3
 8009900:	2b05      	cmp	r3, #5
 8009902:	d809      	bhi.n	8009918 <USBD_StdDevReq+0xbc>
 8009904:	e8df f003 	tbb	[pc, r3]
 8009908:	14100c03 	.word	0x14100c03
 800990c:	1c18      	.short	0x1c18
 800990e:	f8d0 32b0 	ldr.w	r3, [r0, #688]	; 0x2b0
 8009912:	685b      	ldr	r3, [r3, #4]
 8009914:	2b00      	cmp	r3, #0
 8009916:	d1d6      	bne.n	80098c6 <USBD_StdDevReq+0x6a>
 8009918:	4620      	mov	r0, r4
 800991a:	f7ff ff93 	bl	8009844 <USBD_CtlError.constprop.0>
 800991e:	e7be      	b.n	800989e <USBD_StdDevReq+0x42>
 8009920:	f8d0 32b0 	ldr.w	r3, [r0, #688]	; 0x2b0
 8009924:	689b      	ldr	r3, [r3, #8]
 8009926:	e7f5      	b.n	8009914 <USBD_StdDevReq+0xb8>
 8009928:	f8d0 32b0 	ldr.w	r3, [r0, #688]	; 0x2b0
 800992c:	68db      	ldr	r3, [r3, #12]
 800992e:	e7f1      	b.n	8009914 <USBD_StdDevReq+0xb8>
 8009930:	f8d0 32b0 	ldr.w	r3, [r0, #688]	; 0x2b0
 8009934:	691b      	ldr	r3, [r3, #16]
 8009936:	e7ed      	b.n	8009914 <USBD_StdDevReq+0xb8>
 8009938:	f8d0 32b0 	ldr.w	r3, [r0, #688]	; 0x2b0
 800993c:	695b      	ldr	r3, [r3, #20]
 800993e:	e7e9      	b.n	8009914 <USBD_StdDevReq+0xb8>
 8009940:	f8d0 32b0 	ldr.w	r3, [r0, #688]	; 0x2b0
 8009944:	699b      	ldr	r3, [r3, #24]
 8009946:	e7e5      	b.n	8009914 <USBD_StdDevReq+0xb8>
 8009948:	7c03      	ldrb	r3, [r0, #16]
 800994a:	2b00      	cmp	r3, #0
 800994c:	d1e4      	bne.n	8009918 <USBD_StdDevReq+0xbc>
 800994e:	f8d0 32b4 	ldr.w	r3, [r0, #692]	; 0x2b4
 8009952:	f10d 0006 	add.w	r0, sp, #6
 8009956:	6b5b      	ldr	r3, [r3, #52]	; 0x34
 8009958:	4798      	blx	r3
 800995a:	e7b8      	b.n	80098ce <USBD_StdDevReq+0x72>
 800995c:	7c03      	ldrb	r3, [r0, #16]
 800995e:	2b00      	cmp	r3, #0
 8009960:	d1da      	bne.n	8009918 <USBD_StdDevReq+0xbc>
 8009962:	f8d0 32b4 	ldr.w	r3, [r0, #692]	; 0x2b4
 8009966:	f10d 0006 	add.w	r0, sp, #6
 800996a:	6b1b      	ldr	r3, [r3, #48]	; 0x30
 800996c:	4798      	blx	r3
 800996e:	2307      	movs	r3, #7
 8009970:	e7c1      	b.n	80098f6 <USBD_StdDevReq+0x9a>
 8009972:	429a      	cmp	r2, r3
 8009974:	bf28      	it	cs
 8009976:	461a      	movcs	r2, r3
 8009978:	4601      	mov	r1, r0
 800997a:	4620      	mov	r0, r4
 800997c:	f8ad 2006 	strh.w	r2, [sp, #6]
 8009980:	f000 f97b 	bl	8009c7a <USBD_CtlSendData>
 8009984:	88eb      	ldrh	r3, [r5, #6]
 8009986:	2b00      	cmp	r3, #0
 8009988:	d189      	bne.n	800989e <USBD_StdDevReq+0x42>
 800998a:	e7a7      	b.n	80098dc <USBD_StdDevReq+0x80>
 800998c:	888b      	ldrh	r3, [r1, #4]
 800998e:	2b00      	cmp	r3, #0
 8009990:	d1c2      	bne.n	8009918 <USBD_StdDevReq+0xbc>
 8009992:	88cb      	ldrh	r3, [r1, #6]
 8009994:	2b00      	cmp	r3, #0
 8009996:	d1bf      	bne.n	8009918 <USBD_StdDevReq+0xbc>
 8009998:	884d      	ldrh	r5, [r1, #2]
 800999a:	2d7f      	cmp	r5, #127	; 0x7f
 800999c:	d8bc      	bhi.n	8009918 <USBD_StdDevReq+0xbc>
 800999e:	f890 329c 	ldrb.w	r3, [r0, #668]	; 0x29c
 80099a2:	2b03      	cmp	r3, #3
 80099a4:	d0b8      	beq.n	8009918 <USBD_StdDevReq+0xbc>
 80099a6:	b2e9      	uxtb	r1, r5
 80099a8:	f880 129e 	strb.w	r1, [r0, #670]	; 0x29e
 80099ac:	f003 fc85 	bl	800d2ba <USBD_LL_SetUSBAddress>
 80099b0:	4620      	mov	r0, r4
 80099b2:	f000 f98c 	bl	8009cce <USBD_CtlSendStatus>
 80099b6:	b11d      	cbz	r5, 80099c0 <USBD_StdDevReq+0x164>
 80099b8:	2302      	movs	r3, #2
 80099ba:	f884 329c 	strb.w	r3, [r4, #668]	; 0x29c
 80099be:	e76e      	b.n	800989e <USBD_StdDevReq+0x42>
 80099c0:	2301      	movs	r3, #1
 80099c2:	e7fa      	b.n	80099ba <USBD_StdDevReq+0x15e>
 80099c4:	7889      	ldrb	r1, [r1, #2]
 80099c6:	4d38      	ldr	r5, [pc, #224]	; (8009aa8 <USBD_StdDevReq+0x24c>)
 80099c8:	2901      	cmp	r1, #1
 80099ca:	7029      	strb	r1, [r5, #0]
 80099cc:	d8a4      	bhi.n	8009918 <USBD_StdDevReq+0xbc>
 80099ce:	f890 329c 	ldrb.w	r3, [r0, #668]	; 0x29c
 80099d2:	2b02      	cmp	r3, #2
 80099d4:	d008      	beq.n	80099e8 <USBD_StdDevReq+0x18c>
 80099d6:	2b03      	cmp	r3, #3
 80099d8:	d015      	beq.n	8009a06 <USBD_StdDevReq+0x1aa>
 80099da:	f7ff ff33 	bl	8009844 <USBD_CtlError.constprop.0>
 80099de:	7829      	ldrb	r1, [r5, #0]
 80099e0:	4620      	mov	r0, r4
 80099e2:	f7ff fe1d 	bl	8009620 <USBD_ClrClassConfig>
 80099e6:	e75a      	b.n	800989e <USBD_StdDevReq+0x42>
 80099e8:	2900      	cmp	r1, #0
 80099ea:	f43f af77 	beq.w	80098dc <USBD_StdDevReq+0x80>
 80099ee:	2101      	movs	r1, #1
 80099f0:	2303      	movs	r3, #3
 80099f2:	6041      	str	r1, [r0, #4]
 80099f4:	f880 329c 	strb.w	r3, [r0, #668]	; 0x29c
 80099f8:	4620      	mov	r0, r4
 80099fa:	f7ff fe04 	bl	8009606 <USBD_SetClassConfig>
 80099fe:	2802      	cmp	r0, #2
 8009a00:	f47f af6c 	bne.w	80098dc <USBD_StdDevReq+0x80>
 8009a04:	e788      	b.n	8009918 <USBD_StdDevReq+0xbc>
 8009a06:	b931      	cbnz	r1, 8009a16 <USBD_StdDevReq+0x1ba>
 8009a08:	2302      	movs	r3, #2
 8009a0a:	f880 329c 	strb.w	r3, [r0, #668]	; 0x29c
 8009a0e:	6041      	str	r1, [r0, #4]
 8009a10:	f7ff fe06 	bl	8009620 <USBD_ClrClassConfig>
 8009a14:	e762      	b.n	80098dc <USBD_StdDevReq+0x80>
 8009a16:	6841      	ldr	r1, [r0, #4]
 8009a18:	2901      	cmp	r1, #1
 8009a1a:	f43f af5f 	beq.w	80098dc <USBD_StdDevReq+0x80>
 8009a1e:	b2c9      	uxtb	r1, r1
 8009a20:	f7ff fdfe 	bl	8009620 <USBD_ClrClassConfig>
 8009a24:	7829      	ldrb	r1, [r5, #0]
 8009a26:	6061      	str	r1, [r4, #4]
 8009a28:	e7e6      	b.n	80099f8 <USBD_StdDevReq+0x19c>
 8009a2a:	88ca      	ldrh	r2, [r1, #6]
 8009a2c:	2a01      	cmp	r2, #1
 8009a2e:	f47f af73 	bne.w	8009918 <USBD_StdDevReq+0xbc>
 8009a32:	f890 329c 	ldrb.w	r3, [r0, #668]	; 0x29c
 8009a36:	2b02      	cmp	r3, #2
 8009a38:	d80a      	bhi.n	8009a50 <USBD_StdDevReq+0x1f4>
 8009a3a:	2b00      	cmp	r3, #0
 8009a3c:	f43f af6c 	beq.w	8009918 <USBD_StdDevReq+0xbc>
 8009a40:	4601      	mov	r1, r0
 8009a42:	2300      	movs	r3, #0
 8009a44:	f841 3f08 	str.w	r3, [r1, #8]!
 8009a48:	4620      	mov	r0, r4
 8009a4a:	f000 f916 	bl	8009c7a <USBD_CtlSendData>
 8009a4e:	e726      	b.n	800989e <USBD_StdDevReq+0x42>
 8009a50:	2b03      	cmp	r3, #3
 8009a52:	f47f af61 	bne.w	8009918 <USBD_StdDevReq+0xbc>
 8009a56:	1d01      	adds	r1, r0, #4
 8009a58:	e7f6      	b.n	8009a48 <USBD_StdDevReq+0x1ec>
 8009a5a:	f890 329c 	ldrb.w	r3, [r0, #668]	; 0x29c
 8009a5e:	3b01      	subs	r3, #1
 8009a60:	2b02      	cmp	r3, #2
 8009a62:	f63f af59 	bhi.w	8009918 <USBD_StdDevReq+0xbc>
 8009a66:	88ca      	ldrh	r2, [r1, #6]
 8009a68:	2a02      	cmp	r2, #2
 8009a6a:	f47f af55 	bne.w	8009918 <USBD_StdDevReq+0xbc>
 8009a6e:	f8d0 32a4 	ldr.w	r3, [r0, #676]	; 0x2a4
 8009a72:	3b00      	subs	r3, #0
 8009a74:	bf18      	it	ne
 8009a76:	2301      	movne	r3, #1
 8009a78:	4601      	mov	r1, r0
 8009a7a:	005b      	lsls	r3, r3, #1
 8009a7c:	f841 3f0c 	str.w	r3, [r1, #12]!
 8009a80:	e7e2      	b.n	8009a48 <USBD_StdDevReq+0x1ec>
 8009a82:	884b      	ldrh	r3, [r1, #2]
 8009a84:	2b01      	cmp	r3, #1
 8009a86:	f47f af0a 	bne.w	800989e <USBD_StdDevReq+0x42>
 8009a8a:	f8c4 32a4 	str.w	r3, [r4, #676]	; 0x2a4
 8009a8e:	e725      	b.n	80098dc <USBD_StdDevReq+0x80>
 8009a90:	f890 329c 	ldrb.w	r3, [r0, #668]	; 0x29c
 8009a94:	3b01      	subs	r3, #1
 8009a96:	2b02      	cmp	r3, #2
 8009a98:	f63f af3e 	bhi.w	8009918 <USBD_StdDevReq+0xbc>
 8009a9c:	884b      	ldrh	r3, [r1, #2]
 8009a9e:	2b01      	cmp	r3, #1
 8009aa0:	f47f aefd 	bne.w	800989e <USBD_StdDevReq+0x42>
 8009aa4:	2300      	movs	r3, #0
 8009aa6:	e7f0      	b.n	8009a8a <USBD_StdDevReq+0x22e>
 8009aa8:	200098e5 	.word	0x200098e5

08009aac <USBD_StdItfReq>:
 8009aac:	b538      	push	{r3, r4, r5, lr}
 8009aae:	780b      	ldrb	r3, [r1, #0]
 8009ab0:	f003 0260 	and.w	r2, r3, #96	; 0x60
 8009ab4:	2a40      	cmp	r2, #64	; 0x40
 8009ab6:	4604      	mov	r4, r0
 8009ab8:	460d      	mov	r5, r1
 8009aba:	d001      	beq.n	8009ac0 <USBD_StdItfReq+0x14>
 8009abc:	065b      	lsls	r3, r3, #25
 8009abe:	d415      	bmi.n	8009aec <USBD_StdItfReq+0x40>
 8009ac0:	f894 329c 	ldrb.w	r3, [r4, #668]	; 0x29c
 8009ac4:	3b01      	subs	r3, #1
 8009ac6:	2b02      	cmp	r3, #2
 8009ac8:	d810      	bhi.n	8009aec <USBD_StdItfReq+0x40>
 8009aca:	792b      	ldrb	r3, [r5, #4]
 8009acc:	2b01      	cmp	r3, #1
 8009ace:	d80d      	bhi.n	8009aec <USBD_StdItfReq+0x40>
 8009ad0:	f8d4 32b4 	ldr.w	r3, [r4, #692]	; 0x2b4
 8009ad4:	4629      	mov	r1, r5
 8009ad6:	689b      	ldr	r3, [r3, #8]
 8009ad8:	4620      	mov	r0, r4
 8009ada:	4798      	blx	r3
 8009adc:	88eb      	ldrh	r3, [r5, #6]
 8009ade:	b91b      	cbnz	r3, 8009ae8 <USBD_StdItfReq+0x3c>
 8009ae0:	b910      	cbnz	r0, 8009ae8 <USBD_StdItfReq+0x3c>
 8009ae2:	4620      	mov	r0, r4
 8009ae4:	f000 f8f3 	bl	8009cce <USBD_CtlSendStatus>
 8009ae8:	2000      	movs	r0, #0
 8009aea:	bd38      	pop	{r3, r4, r5, pc}
 8009aec:	4620      	mov	r0, r4
 8009aee:	f7ff fea9 	bl	8009844 <USBD_CtlError.constprop.0>
 8009af2:	e7f9      	b.n	8009ae8 <USBD_StdItfReq+0x3c>

08009af4 <USBD_StdEPReq>:
 8009af4:	b538      	push	{r3, r4, r5, lr}
 8009af6:	780a      	ldrb	r2, [r1, #0]
 8009af8:	888d      	ldrh	r5, [r1, #4]
 8009afa:	f002 0260 	and.w	r2, r2, #96	; 0x60
 8009afe:	2a20      	cmp	r2, #32
 8009b00:	4604      	mov	r4, r0
 8009b02:	460b      	mov	r3, r1
 8009b04:	d02e      	beq.n	8009b64 <USBD_StdEPReq+0x70>
 8009b06:	2a40      	cmp	r2, #64	; 0x40
 8009b08:	d02c      	beq.n	8009b64 <USBD_StdEPReq+0x70>
 8009b0a:	2a00      	cmp	r2, #0
 8009b0c:	d138      	bne.n	8009b80 <USBD_StdEPReq+0x8c>
 8009b0e:	785a      	ldrb	r2, [r3, #1]
 8009b10:	2a01      	cmp	r2, #1
 8009b12:	b2e9      	uxtb	r1, r5
 8009b14:	d044      	beq.n	8009ba0 <USBD_StdEPReq+0xac>
 8009b16:	2a03      	cmp	r2, #3
 8009b18:	d02c      	beq.n	8009b74 <USBD_StdEPReq+0x80>
 8009b1a:	bb8a      	cbnz	r2, 8009b80 <USBD_StdEPReq+0x8c>
 8009b1c:	f890 329c 	ldrb.w	r3, [r0, #668]	; 0x29c
 8009b20:	2b02      	cmp	r3, #2
 8009b22:	d054      	beq.n	8009bce <USBD_StdEPReq+0xda>
 8009b24:	2b03      	cmp	r3, #3
 8009b26:	d12b      	bne.n	8009b80 <USBD_StdEPReq+0x8c>
 8009b28:	f001 030f 	and.w	r3, r1, #15
 8009b2c:	2214      	movs	r2, #20
 8009b2e:	f015 0f80 	tst.w	r5, #128	; 0x80
 8009b32:	fb02 0303 	mla	r3, r2, r3, r0
 8009b36:	d059      	beq.n	8009bec <USBD_StdEPReq+0xf8>
 8009b38:	699b      	ldr	r3, [r3, #24]
 8009b3a:	b30b      	cbz	r3, 8009b80 <USBD_StdEPReq+0x8c>
 8009b3c:	f001 057f 	and.w	r5, r1, #127	; 0x7f
 8009b40:	3501      	adds	r5, #1
 8009b42:	eb05 0585 	add.w	r5, r5, r5, lsl #2
 8009b46:	eb00 0585 	add.w	r5, r0, r5, lsl #2
 8009b4a:	f011 007f 	ands.w	r0, r1, #127	; 0x7f
 8009b4e:	d005      	beq.n	8009b5c <USBD_StdEPReq+0x68>
 8009b50:	4620      	mov	r0, r4
 8009b52:	f003 fb9f 	bl	800d294 <USBD_LL_IsStallEP>
 8009b56:	3800      	subs	r0, #0
 8009b58:	bf18      	it	ne
 8009b5a:	2001      	movne	r0, #1
 8009b5c:	6028      	str	r0, [r5, #0]
 8009b5e:	2202      	movs	r2, #2
 8009b60:	4629      	mov	r1, r5
 8009b62:	e03f      	b.n	8009be4 <USBD_StdEPReq+0xf0>
 8009b64:	f8d4 22b4 	ldr.w	r2, [r4, #692]	; 0x2b4
 8009b68:	4619      	mov	r1, r3
 8009b6a:	6892      	ldr	r2, [r2, #8]
 8009b6c:	4620      	mov	r0, r4
 8009b6e:	4790      	blx	r2
 8009b70:	2000      	movs	r0, #0
 8009b72:	bd38      	pop	{r3, r4, r5, pc}
 8009b74:	f890 229c 	ldrb.w	r2, [r0, #668]	; 0x29c
 8009b78:	2a02      	cmp	r2, #2
 8009b7a:	d01f      	beq.n	8009bbc <USBD_StdEPReq+0xc8>
 8009b7c:	2a03      	cmp	r2, #3
 8009b7e:	d003      	beq.n	8009b88 <USBD_StdEPReq+0x94>
 8009b80:	4620      	mov	r0, r4
 8009b82:	f7ff fe5f 	bl	8009844 <USBD_CtlError.constprop.0>
 8009b86:	e7f3      	b.n	8009b70 <USBD_StdEPReq+0x7c>
 8009b88:	885a      	ldrh	r2, [r3, #2]
 8009b8a:	b92a      	cbnz	r2, 8009b98 <USBD_StdEPReq+0xa4>
 8009b8c:	064a      	lsls	r2, r1, #25
 8009b8e:	d003      	beq.n	8009b98 <USBD_StdEPReq+0xa4>
 8009b90:	88db      	ldrh	r3, [r3, #6]
 8009b92:	b90b      	cbnz	r3, 8009b98 <USBD_StdEPReq+0xa4>
 8009b94:	f003 fb6c 	bl	800d270 <USBD_LL_StallEP>
 8009b98:	4620      	mov	r0, r4
 8009b9a:	f000 f898 	bl	8009cce <USBD_CtlSendStatus>
 8009b9e:	e7e7      	b.n	8009b70 <USBD_StdEPReq+0x7c>
 8009ba0:	f890 229c 	ldrb.w	r2, [r0, #668]	; 0x29c
 8009ba4:	2a02      	cmp	r2, #2
 8009ba6:	d009      	beq.n	8009bbc <USBD_StdEPReq+0xc8>
 8009ba8:	2a03      	cmp	r2, #3
 8009baa:	d1e9      	bne.n	8009b80 <USBD_StdEPReq+0x8c>
 8009bac:	885b      	ldrh	r3, [r3, #2]
 8009bae:	2b00      	cmp	r3, #0
 8009bb0:	d1de      	bne.n	8009b70 <USBD_StdEPReq+0x7c>
 8009bb2:	064d      	lsls	r5, r1, #25
 8009bb4:	d0f0      	beq.n	8009b98 <USBD_StdEPReq+0xa4>
 8009bb6:	f003 fb64 	bl	800d282 <USBD_LL_ClearStallEP>
 8009bba:	e7ed      	b.n	8009b98 <USBD_StdEPReq+0xa4>
 8009bbc:	064b      	lsls	r3, r1, #25
 8009bbe:	d0df      	beq.n	8009b80 <USBD_StdEPReq+0x8c>
 8009bc0:	f003 fb56 	bl	800d270 <USBD_LL_StallEP>
 8009bc4:	2180      	movs	r1, #128	; 0x80
 8009bc6:	4620      	mov	r0, r4
 8009bc8:	f003 fb52 	bl	800d270 <USBD_LL_StallEP>
 8009bcc:	e7d0      	b.n	8009b70 <USBD_StdEPReq+0x7c>
 8009bce:	064a      	lsls	r2, r1, #25
 8009bd0:	d1d6      	bne.n	8009b80 <USBD_StdEPReq+0x8c>
 8009bd2:	062b      	lsls	r3, r5, #24
 8009bd4:	bf4c      	ite	mi
 8009bd6:	f100 0114 	addmi.w	r1, r0, #20
 8009bda:	f500 71aa 	addpl.w	r1, r0, #340	; 0x154
 8009bde:	2300      	movs	r3, #0
 8009be0:	600b      	str	r3, [r1, #0]
 8009be2:	2202      	movs	r2, #2
 8009be4:	4620      	mov	r0, r4
 8009be6:	f000 f848 	bl	8009c7a <USBD_CtlSendData>
 8009bea:	e7c1      	b.n	8009b70 <USBD_StdEPReq+0x7c>
 8009bec:	f8d3 3158 	ldr.w	r3, [r3, #344]	; 0x158
 8009bf0:	2b00      	cmp	r3, #0
 8009bf2:	d0c5      	beq.n	8009b80 <USBD_StdEPReq+0x8c>
 8009bf4:	f001 057f 	and.w	r5, r1, #127	; 0x7f
 8009bf8:	2314      	movs	r3, #20
 8009bfa:	fb03 0505 	mla	r5, r3, r5, r0
 8009bfe:	f505 75aa 	add.w	r5, r5, #340	; 0x154
 8009c02:	e7a2      	b.n	8009b4a <USBD_StdEPReq+0x56>

08009c04 <USBD_ParseSetupRequest>:
 8009c04:	780b      	ldrb	r3, [r1, #0]
 8009c06:	7003      	strb	r3, [r0, #0]
 8009c08:	784b      	ldrb	r3, [r1, #1]
 8009c0a:	7043      	strb	r3, [r0, #1]
 8009c0c:	78ca      	ldrb	r2, [r1, #3]
 8009c0e:	788b      	ldrb	r3, [r1, #2]
 8009c10:	eb03 2302 	add.w	r3, r3, r2, lsl #8
 8009c14:	8043      	strh	r3, [r0, #2]
 8009c16:	794a      	ldrb	r2, [r1, #5]
 8009c18:	790b      	ldrb	r3, [r1, #4]
 8009c1a:	eb03 2302 	add.w	r3, r3, r2, lsl #8
 8009c1e:	8083      	strh	r3, [r0, #4]
 8009c20:	79ca      	ldrb	r2, [r1, #7]
 8009c22:	798b      	ldrb	r3, [r1, #6]
 8009c24:	eb03 2302 	add.w	r3, r3, r2, lsl #8
 8009c28:	80c3      	strh	r3, [r0, #6]
 8009c2a:	4770      	bx	lr

08009c2c <USBD_CtlError>:
 8009c2c:	b510      	push	{r4, lr}
 8009c2e:	2180      	movs	r1, #128	; 0x80
 8009c30:	4604      	mov	r4, r0
 8009c32:	f003 fb1d 	bl	800d270 <USBD_LL_StallEP>
 8009c36:	4620      	mov	r0, r4
 8009c38:	2100      	movs	r1, #0
 8009c3a:	e8bd 4010 	ldmia.w	sp!, {r4, lr}
 8009c3e:	f003 bb17 	b.w	800d270 <USBD_LL_StallEP>

08009c42 <USBD_GetString>:
 8009c42:	b530      	push	{r4, r5, lr}
 8009c44:	b188      	cbz	r0, 8009c6a <USBD_GetString+0x28>
 8009c46:	2400      	movs	r4, #0
 8009c48:	3801      	subs	r0, #1
 8009c4a:	4623      	mov	r3, r4
 8009c4c:	3401      	adds	r4, #1
 8009c4e:	5d05      	ldrb	r5, [r0, r4]
 8009c50:	2d00      	cmp	r5, #0
 8009c52:	d1fa      	bne.n	8009c4a <USBD_GetString+0x8>
 8009c54:	b2db      	uxtb	r3, r3
 8009c56:	3301      	adds	r3, #1
 8009c58:	005b      	lsls	r3, r3, #1
 8009c5a:	8013      	strh	r3, [r2, #0]
 8009c5c:	700b      	strb	r3, [r1, #0]
 8009c5e:	2303      	movs	r3, #3
 8009c60:	704b      	strb	r3, [r1, #1]
 8009c62:	2302      	movs	r3, #2
 8009c64:	f810 4f01 	ldrb.w	r4, [r0, #1]!
 8009c68:	b904      	cbnz	r4, 8009c6c <USBD_GetString+0x2a>
 8009c6a:	bd30      	pop	{r4, r5, pc}
 8009c6c:	1c5a      	adds	r2, r3, #1
 8009c6e:	b2d2      	uxtb	r2, r2
 8009c70:	54cc      	strb	r4, [r1, r3]
 8009c72:	3302      	adds	r3, #2
 8009c74:	548d      	strb	r5, [r1, r2]
 8009c76:	b2db      	uxtb	r3, r3
 8009c78:	e7f4      	b.n	8009c64 <USBD_GetString+0x22>

08009c7a <USBD_CtlSendData>:
 8009c7a:	b510      	push	{r4, lr}
 8009c7c:	4613      	mov	r3, r2
 8009c7e:	2202      	movs	r2, #2
 8009c80:	e9c0 3307 	strd	r3, r3, [r0, #28]
 8009c84:	f8c0 2294 	str.w	r2, [r0, #660]	; 0x294
 8009c88:	460a      	mov	r2, r1
 8009c8a:	2100      	movs	r1, #0
 8009c8c:	f003 fb1e 	bl	800d2cc <USBD_LL_Transmit>
 8009c90:	2000      	movs	r0, #0
 8009c92:	bd10      	pop	{r4, pc}

08009c94 <USBD_CtlContinueSendData>:
 8009c94:	b508      	push	{r3, lr}
 8009c96:	4613      	mov	r3, r2
 8009c98:	460a      	mov	r2, r1
 8009c9a:	2100      	movs	r1, #0
 8009c9c:	f003 fb16 	bl	800d2cc <USBD_LL_Transmit>
 8009ca0:	2000      	movs	r0, #0
 8009ca2:	bd08      	pop	{r3, pc}

08009ca4 <USBD_CtlPrepareRx>:
 8009ca4:	b510      	push	{r4, lr}
 8009ca6:	4613      	mov	r3, r2
 8009ca8:	2203      	movs	r2, #3
 8009caa:	e9c0 3357 	strd	r3, r3, [r0, #348]	; 0x15c
 8009cae:	f8c0 2294 	str.w	r2, [r0, #660]	; 0x294
 8009cb2:	460a      	mov	r2, r1
 8009cb4:	2100      	movs	r1, #0
 8009cb6:	f003 fb12 	bl	800d2de <USBD_LL_PrepareReceive>
 8009cba:	2000      	movs	r0, #0
 8009cbc:	bd10      	pop	{r4, pc}

08009cbe <USBD_CtlContinueRx>:
 8009cbe:	b508      	push	{r3, lr}
 8009cc0:	4613      	mov	r3, r2
 8009cc2:	460a      	mov	r2, r1
 8009cc4:	2100      	movs	r1, #0
 8009cc6:	f003 fb0a 	bl	800d2de <USBD_LL_PrepareReceive>
 8009cca:	2000      	movs	r0, #0
 8009ccc:	bd08      	pop	{r3, pc}

08009cce <USBD_CtlSendStatus>:
 8009cce:	b508      	push	{r3, lr}
 8009cd0:	2304      	movs	r3, #4
 8009cd2:	f8c0 3294 	str.w	r3, [r0, #660]	; 0x294
 8009cd6:	2300      	movs	r3, #0
 8009cd8:	461a      	mov	r2, r3
 8009cda:	4619      	mov	r1, r3
 8009cdc:	f003 faf6 	bl	800d2cc <USBD_LL_Transmit>
 8009ce0:	2000      	movs	r0, #0
 8009ce2:	bd08      	pop	{r3, pc}

08009ce4 <USBD_CtlReceiveStatus>:
 8009ce4:	b508      	push	{r3, lr}
 8009ce6:	2305      	movs	r3, #5
 8009ce8:	f8c0 3294 	str.w	r3, [r0, #660]	; 0x294
 8009cec:	2300      	movs	r3, #0
 8009cee:	461a      	mov	r2, r3
 8009cf0:	4619      	mov	r1, r3
 8009cf2:	f003 faf4 	bl	800d2de <USBD_LL_PrepareReceive>
 8009cf6:	2000      	movs	r0, #0
 8009cf8:	bd08      	pop	{r3, pc}
	...

08009cfc <disk_status>:
 8009cfc:	4b03      	ldr	r3, [pc, #12]	; (8009d0c <disk_status+0x10>)
 8009cfe:	181a      	adds	r2, r3, r0
 8009d00:	eb03 0080 	add.w	r0, r3, r0, lsl #2
 8009d04:	6843      	ldr	r3, [r0, #4]
 8009d06:	7a10      	ldrb	r0, [r2, #8]
 8009d08:	685b      	ldr	r3, [r3, #4]
 8009d0a:	4718      	bx	r3
 8009d0c:	20009c58 	.word	0x20009c58

08009d10 <disk_initialize>:
 8009d10:	4b06      	ldr	r3, [pc, #24]	; (8009d2c <disk_initialize+0x1c>)
 8009d12:	5c1a      	ldrb	r2, [r3, r0]
 8009d14:	b942      	cbnz	r2, 8009d28 <disk_initialize+0x18>
 8009d16:	2201      	movs	r2, #1
 8009d18:	541a      	strb	r2, [r3, r0]
 8009d1a:	181a      	adds	r2, r3, r0
 8009d1c:	eb03 0080 	add.w	r0, r3, r0, lsl #2
 8009d20:	6843      	ldr	r3, [r0, #4]
 8009d22:	7a10      	ldrb	r0, [r2, #8]
 8009d24:	681b      	ldr	r3, [r3, #0]
 8009d26:	4718      	bx	r3
 8009d28:	2000      	movs	r0, #0
 8009d2a:	4770      	bx	lr
 8009d2c:	20009c58 	.word	0x20009c58

08009d30 <disk_read>:
 8009d30:	b430      	push	{r4, r5}
 8009d32:	4c05      	ldr	r4, [pc, #20]	; (8009d48 <disk_read+0x18>)
 8009d34:	1825      	adds	r5, r4, r0
 8009d36:	eb04 0080 	add.w	r0, r4, r0, lsl #2
 8009d3a:	6840      	ldr	r0, [r0, #4]
 8009d3c:	6884      	ldr	r4, [r0, #8]
 8009d3e:	7a28      	ldrb	r0, [r5, #8]
 8009d40:	46a4      	mov	ip, r4
 8009d42:	bc30      	pop	{r4, r5}
 8009d44:	4760      	bx	ip
 8009d46:	bf00      	nop
 8009d48:	20009c58 	.word	0x20009c58

08009d4c <disk_write>:
 8009d4c:	b430      	push	{r4, r5}
 8009d4e:	4c05      	ldr	r4, [pc, #20]	; (8009d64 <disk_write+0x18>)
 8009d50:	1825      	adds	r5, r4, r0
 8009d52:	eb04 0080 	add.w	r0, r4, r0, lsl #2
 8009d56:	6840      	ldr	r0, [r0, #4]
 8009d58:	68c4      	ldr	r4, [r0, #12]
 8009d5a:	7a28      	ldrb	r0, [r5, #8]
 8009d5c:	46a4      	mov	ip, r4
 8009d5e:	bc30      	pop	{r4, r5}
 8009d60:	4760      	bx	ip
 8009d62:	bf00      	nop
 8009d64:	20009c58 	.word	0x20009c58

08009d68 <disk_ioctl>:
 8009d68:	4b05      	ldr	r3, [pc, #20]	; (8009d80 <disk_ioctl+0x18>)
 8009d6a:	b410      	push	{r4}
 8009d6c:	181c      	adds	r4, r3, r0
 8009d6e:	eb03 0080 	add.w	r0, r3, r0, lsl #2
 8009d72:	6843      	ldr	r3, [r0, #4]
 8009d74:	7a20      	ldrb	r0, [r4, #8]
 8009d76:	691b      	ldr	r3, [r3, #16]
 8009d78:	f85d 4b04 	ldr.w	r4, [sp], #4
 8009d7c:	4718      	bx	r3
 8009d7e:	bf00      	nop
 8009d80:	20009c58 	.word	0x20009c58

08009d84 <mem_cpy>:
 8009d84:	3801      	subs	r0, #1
 8009d86:	440a      	add	r2, r1
 8009d88:	4291      	cmp	r1, r2
 8009d8a:	d100      	bne.n	8009d8e <mem_cpy+0xa>
 8009d8c:	4770      	bx	lr
 8009d8e:	f811 3b01 	ldrb.w	r3, [r1], #1
 8009d92:	f800 3f01 	strb.w	r3, [r0, #1]!
 8009d96:	e7f7      	b.n	8009d88 <mem_cpy+0x4>

08009d98 <mem_set>:
 8009d98:	4402      	add	r2, r0
 8009d9a:	4290      	cmp	r0, r2
 8009d9c:	d100      	bne.n	8009da0 <mem_set+0x8>
 8009d9e:	4770      	bx	lr
 8009da0:	f800 1b01 	strb.w	r1, [r0], #1
 8009da4:	e7f9      	b.n	8009d9a <mem_set+0x2>
	...

08009da8 <chk_lock>:
 8009da8:	4b17      	ldr	r3, [pc, #92]	; (8009e08 <chk_lock+0x60>)
 8009daa:	b5f0      	push	{r4, r5, r6, r7, lr}
 8009dac:	2400      	movs	r4, #0
 8009dae:	4622      	mov	r2, r4
 8009db0:	461d      	mov	r5, r3
 8009db2:	681e      	ldr	r6, [r3, #0]
 8009db4:	b186      	cbz	r6, 8009dd8 <chk_lock+0x30>
 8009db6:	f8d0 7200 	ldr.w	r7, [r0, #512]	; 0x200
 8009dba:	42be      	cmp	r6, r7
 8009dbc:	d10d      	bne.n	8009dda <chk_lock+0x32>
 8009dbe:	685f      	ldr	r7, [r3, #4]
 8009dc0:	f8d0 6208 	ldr.w	r6, [r0, #520]	; 0x208
 8009dc4:	42b7      	cmp	r7, r6
 8009dc6:	d108      	bne.n	8009dda <chk_lock+0x32>
 8009dc8:	891f      	ldrh	r7, [r3, #8]
 8009dca:	f8b0 6206 	ldrh.w	r6, [r0, #518]	; 0x206
 8009dce:	42b7      	cmp	r7, r6
 8009dd0:	d103      	bne.n	8009dda <chk_lock+0x32>
 8009dd2:	b169      	cbz	r1, 8009df0 <chk_lock+0x48>
 8009dd4:	2010      	movs	r0, #16
 8009dd6:	e00a      	b.n	8009dee <chk_lock+0x46>
 8009dd8:	2401      	movs	r4, #1
 8009dda:	3201      	adds	r2, #1
 8009ddc:	2a1e      	cmp	r2, #30
 8009dde:	f103 030c 	add.w	r3, r3, #12
 8009de2:	d1e6      	bne.n	8009db2 <chk_lock+0xa>
 8009de4:	b974      	cbnz	r4, 8009e04 <chk_lock+0x5c>
 8009de6:	2902      	cmp	r1, #2
 8009de8:	bf0c      	ite	eq
 8009dea:	2000      	moveq	r0, #0
 8009dec:	2012      	movne	r0, #18
 8009dee:	bdf0      	pop	{r4, r5, r6, r7, pc}
 8009df0:	230c      	movs	r3, #12
 8009df2:	fb03 5502 	mla	r5, r3, r2, r5
 8009df6:	8968      	ldrh	r0, [r5, #10]
 8009df8:	f5a0 7380 	sub.w	r3, r0, #256	; 0x100
 8009dfc:	4258      	negs	r0, r3
 8009dfe:	4158      	adcs	r0, r3
 8009e00:	0100      	lsls	r0, r0, #4
 8009e02:	e7f4      	b.n	8009dee <chk_lock+0x46>
 8009e04:	2000      	movs	r0, #0
 8009e06:	e7f2      	b.n	8009dee <chk_lock+0x46>
 8009e08:	200098ec 	.word	0x200098ec

08009e0c <inc_lock>:
 8009e0c:	4a22      	ldr	r2, [pc, #136]	; (8009e98 <inc_lock+0x8c>)
 8009e0e:	b5f0      	push	{r4, r5, r6, r7, lr}
 8009e10:	f8d0 7200 	ldr.w	r7, [r0, #512]	; 0x200
 8009e14:	2300      	movs	r3, #0
 8009e16:	4614      	mov	r4, r2
 8009e18:	6815      	ldr	r5, [r2, #0]
 8009e1a:	42bd      	cmp	r5, r7
 8009e1c:	d109      	bne.n	8009e32 <inc_lock+0x26>
 8009e1e:	6856      	ldr	r6, [r2, #4]
 8009e20:	f8d0 5208 	ldr.w	r5, [r0, #520]	; 0x208
 8009e24:	42ae      	cmp	r6, r5
 8009e26:	d104      	bne.n	8009e32 <inc_lock+0x26>
 8009e28:	8916      	ldrh	r6, [r2, #8]
 8009e2a:	f8b0 5206 	ldrh.w	r5, [r0, #518]	; 0x206
 8009e2e:	42ae      	cmp	r6, r5
 8009e30:	d027      	beq.n	8009e82 <inc_lock+0x76>
 8009e32:	3301      	adds	r3, #1
 8009e34:	2b1e      	cmp	r3, #30
 8009e36:	f102 020c 	add.w	r2, r2, #12
 8009e3a:	d1ed      	bne.n	8009e18 <inc_lock+0xc>
 8009e3c:	2500      	movs	r5, #0
 8009e3e:	220c      	movs	r2, #12
 8009e40:	fb02 f305 	mul.w	r3, r2, r5
 8009e44:	58e6      	ldr	r6, [r4, r3]
 8009e46:	462b      	mov	r3, r5
 8009e48:	3501      	adds	r5, #1
 8009e4a:	b9b6      	cbnz	r6, 8009e7a <inc_lock+0x6e>
 8009e4c:	435a      	muls	r2, r3
 8009e4e:	18a5      	adds	r5, r4, r2
 8009e50:	50a7      	str	r7, [r4, r2]
 8009e52:	f8d0 2208 	ldr.w	r2, [r0, #520]	; 0x208
 8009e56:	606a      	str	r2, [r5, #4]
 8009e58:	f8b0 2206 	ldrh.w	r2, [r0, #518]	; 0x206
 8009e5c:	812a      	strh	r2, [r5, #8]
 8009e5e:	816e      	strh	r6, [r5, #10]
 8009e60:	b9b9      	cbnz	r1, 8009e92 <inc_lock+0x86>
 8009e62:	220c      	movs	r2, #12
 8009e64:	fb02 4203 	mla	r2, r2, r3, r4
 8009e68:	8952      	ldrh	r2, [r2, #10]
 8009e6a:	3201      	adds	r2, #1
 8009e6c:	b292      	uxth	r2, r2
 8009e6e:	210c      	movs	r1, #12
 8009e70:	fb01 4103 	mla	r1, r1, r3, r4
 8009e74:	1c58      	adds	r0, r3, #1
 8009e76:	814a      	strh	r2, [r1, #10]
 8009e78:	bdf0      	pop	{r4, r5, r6, r7, pc}
 8009e7a:	2d1e      	cmp	r5, #30
 8009e7c:	d1e0      	bne.n	8009e40 <inc_lock+0x34>
 8009e7e:	2000      	movs	r0, #0
 8009e80:	e7fa      	b.n	8009e78 <inc_lock+0x6c>
 8009e82:	220c      	movs	r2, #12
 8009e84:	fb02 4203 	mla	r2, r2, r3, r4
 8009e88:	8952      	ldrh	r2, [r2, #10]
 8009e8a:	2900      	cmp	r1, #0
 8009e8c:	d0e9      	beq.n	8009e62 <inc_lock+0x56>
 8009e8e:	2a00      	cmp	r2, #0
 8009e90:	d1f5      	bne.n	8009e7e <inc_lock+0x72>
 8009e92:	f44f 7280 	mov.w	r2, #256	; 0x100
 8009e96:	e7ea      	b.n	8009e6e <inc_lock+0x62>
 8009e98:	200098ec 	.word	0x200098ec

08009e9c <dec_lock>:
 8009e9c:	3801      	subs	r0, #1
 8009e9e:	281d      	cmp	r0, #29
 8009ea0:	d817      	bhi.n	8009ed2 <dec_lock+0x36>
 8009ea2:	490d      	ldr	r1, [pc, #52]	; (8009ed8 <dec_lock+0x3c>)
 8009ea4:	220c      	movs	r2, #12
 8009ea6:	fb02 1200 	mla	r2, r2, r0, r1
 8009eaa:	8953      	ldrh	r3, [r2, #10]
 8009eac:	f5b3 7f80 	cmp.w	r3, #256	; 0x100
 8009eb0:	d106      	bne.n	8009ec0 <dec_lock+0x24>
 8009eb2:	2300      	movs	r3, #0
 8009eb4:	8153      	strh	r3, [r2, #10]
 8009eb6:	230c      	movs	r3, #12
 8009eb8:	4343      	muls	r3, r0
 8009eba:	2000      	movs	r0, #0
 8009ebc:	50c8      	str	r0, [r1, r3]
 8009ebe:	4770      	bx	lr
 8009ec0:	2b00      	cmp	r3, #0
 8009ec2:	d0f8      	beq.n	8009eb6 <dec_lock+0x1a>
 8009ec4:	3b01      	subs	r3, #1
 8009ec6:	b29b      	uxth	r3, r3
 8009ec8:	8153      	strh	r3, [r2, #10]
 8009eca:	2b00      	cmp	r3, #0
 8009ecc:	d0f3      	beq.n	8009eb6 <dec_lock+0x1a>
 8009ece:	2000      	movs	r0, #0
 8009ed0:	4770      	bx	lr
 8009ed2:	2002      	movs	r0, #2
 8009ed4:	4770      	bx	lr
 8009ed6:	bf00      	nop
 8009ed8:	200098ec 	.word	0x200098ec

08009edc <clear_lock>:
 8009edc:	b510      	push	{r4, lr}
 8009ede:	2300      	movs	r3, #0
 8009ee0:	4a05      	ldr	r2, [pc, #20]	; (8009ef8 <clear_lock+0x1c>)
 8009ee2:	4619      	mov	r1, r3
 8009ee4:	f852 4023 	ldr.w	r4, [r2, r3, lsl #2]
 8009ee8:	4284      	cmp	r4, r0
 8009eea:	bf08      	it	eq
 8009eec:	f842 1023 	streq.w	r1, [r2, r3, lsl #2]
 8009ef0:	3303      	adds	r3, #3
 8009ef2:	2b5a      	cmp	r3, #90	; 0x5a
 8009ef4:	d1f6      	bne.n	8009ee4 <clear_lock+0x8>
 8009ef6:	bd10      	pop	{r4, pc}
 8009ef8:	200098ec 	.word	0x200098ec

08009efc <clmt_clust>:
 8009efc:	f8d0 3224 	ldr.w	r3, [r0, #548]	; 0x224
 8009f00:	f8d0 2200 	ldr.w	r2, [r0, #512]	; 0x200
 8009f04:	3304      	adds	r3, #4
 8009f06:	f892 2202 	ldrb.w	r2, [r2, #514]	; 0x202
 8009f0a:	0a49      	lsrs	r1, r1, #9
 8009f0c:	fbb1 f1f2 	udiv	r1, r1, r2
 8009f10:	6818      	ldr	r0, [r3, #0]
 8009f12:	b130      	cbz	r0, 8009f22 <clmt_clust+0x26>
 8009f14:	4281      	cmp	r1, r0
 8009f16:	d302      	bcc.n	8009f1e <clmt_clust+0x22>
 8009f18:	1a09      	subs	r1, r1, r0
 8009f1a:	3308      	adds	r3, #8
 8009f1c:	e7f8      	b.n	8009f10 <clmt_clust+0x14>
 8009f1e:	6858      	ldr	r0, [r3, #4]
 8009f20:	4408      	add	r0, r1
 8009f22:	4770      	bx	lr

08009f24 <sum_sfn>:
 8009f24:	f100 010b 	add.w	r1, r0, #11
 8009f28:	2200      	movs	r2, #0
 8009f2a:	01d3      	lsls	r3, r2, #7
 8009f2c:	ea43 0352 	orr.w	r3, r3, r2, lsr #1
 8009f30:	f810 2b01 	ldrb.w	r2, [r0], #1
 8009f34:	fa52 f383 	uxtab	r3, r2, r3
 8009f38:	4288      	cmp	r0, r1
 8009f3a:	b2da      	uxtb	r2, r3
 8009f3c:	d1f5      	bne.n	8009f2a <sum_sfn+0x6>
 8009f3e:	4610      	mov	r0, r2
 8009f40:	4770      	bx	lr

08009f42 <get_ldnumber>:
 8009f42:	6802      	ldr	r2, [r0, #0]
 8009f44:	b510      	push	{r4, lr}
 8009f46:	b152      	cbz	r2, 8009f5e <get_ldnumber+0x1c>
 8009f48:	4611      	mov	r1, r2
 8009f4a:	460b      	mov	r3, r1
 8009f4c:	f811 4b01 	ldrb.w	r4, [r1], #1
 8009f50:	2c1f      	cmp	r4, #31
 8009f52:	d90c      	bls.n	8009f6e <get_ldnumber+0x2c>
 8009f54:	2c3a      	cmp	r4, #58	; 0x3a
 8009f56:	d1f8      	bne.n	8009f4a <get_ldnumber+0x8>
 8009f58:	1c51      	adds	r1, r2, #1
 8009f5a:	428b      	cmp	r3, r1
 8009f5c:	d002      	beq.n	8009f64 <get_ldnumber+0x22>
 8009f5e:	f04f 30ff 	mov.w	r0, #4294967295
 8009f62:	e005      	b.n	8009f70 <get_ldnumber+0x2e>
 8009f64:	7812      	ldrb	r2, [r2, #0]
 8009f66:	2a30      	cmp	r2, #48	; 0x30
 8009f68:	d1f9      	bne.n	8009f5e <get_ldnumber+0x1c>
 8009f6a:	3301      	adds	r3, #1
 8009f6c:	6003      	str	r3, [r0, #0]
 8009f6e:	2000      	movs	r0, #0
 8009f70:	bd10      	pop	{r4, pc}

08009f72 <validate>:
 8009f72:	b508      	push	{r3, lr}
 8009f74:	b190      	cbz	r0, 8009f9c <validate+0x2a>
 8009f76:	f8d0 3200 	ldr.w	r3, [r0, #512]	; 0x200
 8009f7a:	b17b      	cbz	r3, 8009f9c <validate+0x2a>
 8009f7c:	f893 2200 	ldrb.w	r2, [r3, #512]	; 0x200
 8009f80:	b162      	cbz	r2, 8009f9c <validate+0x2a>
 8009f82:	f8b3 1206 	ldrh.w	r1, [r3, #518]	; 0x206
 8009f86:	f8b0 2204 	ldrh.w	r2, [r0, #516]	; 0x204
 8009f8a:	4291      	cmp	r1, r2
 8009f8c:	d106      	bne.n	8009f9c <validate+0x2a>
 8009f8e:	f893 0201 	ldrb.w	r0, [r3, #513]	; 0x201
 8009f92:	f7ff feb3 	bl	8009cfc <disk_status>
 8009f96:	f010 0001 	ands.w	r0, r0, #1
 8009f9a:	d000      	beq.n	8009f9e <validate+0x2c>
 8009f9c:	2009      	movs	r0, #9
 8009f9e:	bd08      	pop	{r3, pc}

08009fa0 <sync_window.part.0>:
 8009fa0:	b5f8      	push	{r3, r4, r5, r6, r7, lr}
 8009fa2:	f8d0 622c 	ldr.w	r6, [r0, #556]	; 0x22c
 8009fa6:	4601      	mov	r1, r0
 8009fa8:	4604      	mov	r4, r0
 8009faa:	2301      	movs	r3, #1
 8009fac:	f890 0201 	ldrb.w	r0, [r0, #513]	; 0x201
 8009fb0:	4632      	mov	r2, r6
 8009fb2:	f7ff fecb 	bl	8009d4c <disk_write>
 8009fb6:	4605      	mov	r5, r0
 8009fb8:	b9d0      	cbnz	r0, 8009ff0 <sync_window.part.0+0x50>
 8009fba:	f8d4 3220 	ldr.w	r3, [r4, #544]	; 0x220
 8009fbe:	f8d4 2218 	ldr.w	r2, [r4, #536]	; 0x218
 8009fc2:	f884 0204 	strb.w	r0, [r4, #516]	; 0x204
 8009fc6:	1af3      	subs	r3, r6, r3
 8009fc8:	4293      	cmp	r3, r2
 8009fca:	d203      	bcs.n	8009fd4 <sync_window.part.0+0x34>
 8009fcc:	f894 7203 	ldrb.w	r7, [r4, #515]	; 0x203
 8009fd0:	2f01      	cmp	r7, #1
 8009fd2:	d801      	bhi.n	8009fd8 <sync_window.part.0+0x38>
 8009fd4:	4628      	mov	r0, r5
 8009fd6:	bdf8      	pop	{r3, r4, r5, r6, r7, pc}
 8009fd8:	f8d4 3218 	ldr.w	r3, [r4, #536]	; 0x218
 8009fdc:	f894 0201 	ldrb.w	r0, [r4, #513]	; 0x201
 8009fe0:	441e      	add	r6, r3
 8009fe2:	4632      	mov	r2, r6
 8009fe4:	2301      	movs	r3, #1
 8009fe6:	4621      	mov	r1, r4
 8009fe8:	f7ff feb0 	bl	8009d4c <disk_write>
 8009fec:	3f01      	subs	r7, #1
 8009fee:	e7ef      	b.n	8009fd0 <sync_window.part.0+0x30>
 8009ff0:	2501      	movs	r5, #1
 8009ff2:	e7ef      	b.n	8009fd4 <sync_window.part.0+0x34>

08009ff4 <sync_window>:
 8009ff4:	f890 3204 	ldrb.w	r3, [r0, #516]	; 0x204
 8009ff8:	b10b      	cbz	r3, 8009ffe <sync_window+0xa>
 8009ffa:	f7ff bfd1 	b.w	8009fa0 <sync_window.part.0>
 8009ffe:	4618      	mov	r0, r3
 800a000:	4770      	bx	lr

0800a002 <move_window>:
 800a002:	b538      	push	{r3, r4, r5, lr}
 800a004:	f8d0 322c 	ldr.w	r3, [r0, #556]	; 0x22c
 800a008:	428b      	cmp	r3, r1
 800a00a:	4605      	mov	r5, r0
 800a00c:	460c      	mov	r4, r1
 800a00e:	d011      	beq.n	800a034 <move_window+0x32>
 800a010:	f7ff fff0 	bl	8009ff4 <sync_window>
 800a014:	b968      	cbnz	r0, 800a032 <move_window+0x30>
 800a016:	4622      	mov	r2, r4
 800a018:	f895 0201 	ldrb.w	r0, [r5, #513]	; 0x201
 800a01c:	2301      	movs	r3, #1
 800a01e:	4629      	mov	r1, r5
 800a020:	f7ff fe86 	bl	8009d30 <disk_read>
 800a024:	2800      	cmp	r0, #0
 800a026:	bf1c      	itt	ne
 800a028:	f04f 34ff 	movne.w	r4, #4294967295
 800a02c:	2001      	movne	r0, #1
 800a02e:	f8c5 422c 	str.w	r4, [r5, #556]	; 0x22c
 800a032:	bd38      	pop	{r3, r4, r5, pc}
 800a034:	2000      	movs	r0, #0
 800a036:	e7fc      	b.n	800a032 <move_window+0x30>

0800a038 <check_fs>:
 800a038:	2300      	movs	r3, #0
 800a03a:	b510      	push	{r4, lr}
 800a03c:	f880 3204 	strb.w	r3, [r0, #516]	; 0x204
 800a040:	f04f 33ff 	mov.w	r3, #4294967295
 800a044:	f8c0 322c 	str.w	r3, [r0, #556]	; 0x22c
 800a048:	4604      	mov	r4, r0
 800a04a:	f7ff ffda 	bl	800a002 <move_window>
 800a04e:	b9a0      	cbnz	r0, 800a07a <check_fs+0x42>
 800a050:	f8b4 21fe 	ldrh.w	r2, [r4, #510]	; 0x1fe
 800a054:	f64a 2355 	movw	r3, #43605	; 0xaa55
 800a058:	429a      	cmp	r2, r3
 800a05a:	d110      	bne.n	800a07e <check_fs+0x46>
 800a05c:	f8d4 3036 	ldr.w	r3, [r4, #54]	; 0x36
 800a060:	4a08      	ldr	r2, [pc, #32]	; (800a084 <check_fs+0x4c>)
 800a062:	f023 437f 	bic.w	r3, r3, #4278190080	; 0xff000000
 800a066:	4293      	cmp	r3, r2
 800a068:	d006      	beq.n	800a078 <check_fs+0x40>
 800a06a:	f8d4 0052 	ldr.w	r0, [r4, #82]	; 0x52
 800a06e:	f020 407f 	bic.w	r0, r0, #4278190080	; 0xff000000
 800a072:	1a80      	subs	r0, r0, r2
 800a074:	bf18      	it	ne
 800a076:	2001      	movne	r0, #1
 800a078:	bd10      	pop	{r4, pc}
 800a07a:	2003      	movs	r0, #3
 800a07c:	e7fc      	b.n	800a078 <check_fs+0x40>
 800a07e:	2002      	movs	r0, #2
 800a080:	e7fa      	b.n	800a078 <check_fs+0x40>
 800a082:	bf00      	nop
 800a084:	00544146 	.word	0x00544146

0800a088 <find_volume>:
 800a088:	e92d 41ff 	stmdb	sp!, {r0, r1, r2, r3, r4, r5, r6, r7, r8, lr}
 800a08c:	2300      	movs	r3, #0
 800a08e:	6003      	str	r3, [r0, #0]
 800a090:	4607      	mov	r7, r0
 800a092:	4608      	mov	r0, r1
 800a094:	4615      	mov	r5, r2
 800a096:	f7ff ff54 	bl	8009f42 <get_ldnumber>
 800a09a:	1e06      	subs	r6, r0, #0
 800a09c:	f2c0 8103 	blt.w	800a2a6 <find_volume+0x21e>
 800a0a0:	4b85      	ldr	r3, [pc, #532]	; (800a2b8 <find_volume+0x230>)
 800a0a2:	f853 4026 	ldr.w	r4, [r3, r6, lsl #2]
 800a0a6:	2c00      	cmp	r4, #0
 800a0a8:	f000 80ff 	beq.w	800a2aa <find_volume+0x222>
 800a0ac:	603c      	str	r4, [r7, #0]
 800a0ae:	f894 3200 	ldrb.w	r3, [r4, #512]	; 0x200
 800a0b2:	b173      	cbz	r3, 800a0d2 <find_volume+0x4a>
 800a0b4:	f894 0201 	ldrb.w	r0, [r4, #513]	; 0x201
 800a0b8:	f7ff fe20 	bl	8009cfc <disk_status>
 800a0bc:	07c1      	lsls	r1, r0, #31
 800a0be:	d408      	bmi.n	800a0d2 <find_volume+0x4a>
 800a0c0:	b11d      	cbz	r5, 800a0ca <find_volume+0x42>
 800a0c2:	f010 0504 	ands.w	r5, r0, #4
 800a0c6:	d000      	beq.n	800a0ca <find_volume+0x42>
 800a0c8:	250a      	movs	r5, #10
 800a0ca:	4628      	mov	r0, r5
 800a0cc:	b004      	add	sp, #16
 800a0ce:	e8bd 81f0 	ldmia.w	sp!, {r4, r5, r6, r7, r8, pc}
 800a0d2:	2300      	movs	r3, #0
 800a0d4:	b2f0      	uxtb	r0, r6
 800a0d6:	f884 3200 	strb.w	r3, [r4, #512]	; 0x200
 800a0da:	f884 0201 	strb.w	r0, [r4, #513]	; 0x201
 800a0de:	f7ff fe17 	bl	8009d10 <disk_initialize>
 800a0e2:	07c2      	lsls	r2, r0, #31
 800a0e4:	f100 80e3 	bmi.w	800a2ae <find_volume+0x226>
 800a0e8:	b10d      	cbz	r5, 800a0ee <find_volume+0x66>
 800a0ea:	0743      	lsls	r3, r0, #29
 800a0ec:	d4ec      	bmi.n	800a0c8 <find_volume+0x40>
 800a0ee:	2100      	movs	r1, #0
 800a0f0:	4620      	mov	r0, r4
 800a0f2:	f7ff ffa1 	bl	800a038 <check_fs>
 800a0f6:	2801      	cmp	r0, #1
 800a0f8:	4605      	mov	r5, r0
 800a0fa:	f040 80bc 	bne.w	800a276 <find_volume+0x1ee>
 800a0fe:	46e8      	mov	r8, sp
 800a100:	f504 73df 	add.w	r3, r4, #446	; 0x1be
 800a104:	f504 70ff 	add.w	r0, r4, #510	; 0x1fe
 800a108:	4641      	mov	r1, r8
 800a10a:	791a      	ldrb	r2, [r3, #4]
 800a10c:	b102      	cbz	r2, 800a110 <find_volume+0x88>
 800a10e:	689a      	ldr	r2, [r3, #8]
 800a110:	f841 2b04 	str.w	r2, [r1], #4
 800a114:	3310      	adds	r3, #16
 800a116:	4283      	cmp	r3, r0
 800a118:	d1f7      	bne.n	800a10a <find_volume+0x82>
 800a11a:	2700      	movs	r7, #0
 800a11c:	f858 6b04 	ldr.w	r6, [r8], #4
 800a120:	2e00      	cmp	r6, #0
 800a122:	f000 80a0 	beq.w	800a266 <find_volume+0x1de>
 800a126:	4631      	mov	r1, r6
 800a128:	4620      	mov	r0, r4
 800a12a:	f7ff ff85 	bl	800a038 <check_fs>
 800a12e:	2800      	cmp	r0, #0
 800a130:	f040 809a 	bne.w	800a268 <find_volume+0x1e0>
 800a134:	f8b4 300b 	ldrh.w	r3, [r4, #11]
 800a138:	f5b3 7f00 	cmp.w	r3, #512	; 0x200
 800a13c:	f040 809e 	bne.w	800a27c <find_volume+0x1f4>
 800a140:	8ae0      	ldrh	r0, [r4, #22]
 800a142:	b900      	cbnz	r0, 800a146 <find_volume+0xbe>
 800a144:	6a60      	ldr	r0, [r4, #36]	; 0x24
 800a146:	7c27      	ldrb	r7, [r4, #16]
 800a148:	f8c4 0218 	str.w	r0, [r4, #536]	; 0x218
 800a14c:	1e7b      	subs	r3, r7, #1
 800a14e:	2b01      	cmp	r3, #1
 800a150:	f884 7203 	strb.w	r7, [r4, #515]	; 0x203
 800a154:	f200 8092 	bhi.w	800a27c <find_volume+0x1f4>
 800a158:	f894 c00d 	ldrb.w	ip, [r4, #13]
 800a15c:	f884 c202 	strb.w	ip, [r4, #514]	; 0x202
 800a160:	f1bc 0f00 	cmp.w	ip, #0
 800a164:	f000 808a 	beq.w	800a27c <find_volume+0x1f4>
 800a168:	f10c 33ff 	add.w	r3, ip, #4294967295
 800a16c:	ea13 0f0c 	tst.w	r3, ip
 800a170:	f040 8084 	bne.w	800a27c <find_volume+0x1f4>
 800a174:	f8b4 e011 	ldrh.w	lr, [r4, #17]
 800a178:	f8a4 e208 	strh.w	lr, [r4, #520]	; 0x208
 800a17c:	f01e 0f0f 	tst.w	lr, #15
 800a180:	d17c      	bne.n	800a27c <find_volume+0x1f4>
 800a182:	f8b4 5013 	ldrh.w	r5, [r4, #19]
 800a186:	b905      	cbnz	r5, 800a18a <find_volume+0x102>
 800a188:	6a25      	ldr	r5, [r4, #32]
 800a18a:	89e2      	ldrh	r2, [r4, #14]
 800a18c:	2a00      	cmp	r2, #0
 800a18e:	d075      	beq.n	800a27c <find_volume+0x1f4>
 800a190:	4347      	muls	r7, r0
 800a192:	eb02 111e 	add.w	r1, r2, lr, lsr #4
 800a196:	4439      	add	r1, r7
 800a198:	428d      	cmp	r5, r1
 800a19a:	d36f      	bcc.n	800a27c <find_volume+0x1f4>
 800a19c:	1a6d      	subs	r5, r5, r1
 800a19e:	4565      	cmp	r5, ip
 800a1a0:	fbb5 f3fc 	udiv	r3, r5, ip
 800a1a4:	d36a      	bcc.n	800a27c <find_volume+0x1f4>
 800a1a6:	f640 75f5 	movw	r5, #4085	; 0xff5
 800a1aa:	42ab      	cmp	r3, r5
 800a1ac:	d96a      	bls.n	800a284 <find_volume+0x1fc>
 800a1ae:	f64f 75f5 	movw	r5, #65525	; 0xfff5
 800a1b2:	42ab      	cmp	r3, r5
 800a1b4:	bf94      	ite	ls
 800a1b6:	2502      	movls	r5, #2
 800a1b8:	2503      	movhi	r5, #3
 800a1ba:	3302      	adds	r3, #2
 800a1bc:	4432      	add	r2, r6
 800a1be:	4431      	add	r1, r6
 800a1c0:	2d03      	cmp	r5, #3
 800a1c2:	f8c4 3214 	str.w	r3, [r4, #532]	; 0x214
 800a1c6:	f8c4 621c 	str.w	r6, [r4, #540]	; 0x21c
 800a1ca:	f8c4 2220 	str.w	r2, [r4, #544]	; 0x220
 800a1ce:	f8c4 1228 	str.w	r1, [r4, #552]	; 0x228
 800a1d2:	d159      	bne.n	800a288 <find_volume+0x200>
 800a1d4:	f1be 0f00 	cmp.w	lr, #0
 800a1d8:	d150      	bne.n	800a27c <find_volume+0x1f4>
 800a1da:	6ae7      	ldr	r7, [r4, #44]	; 0x2c
 800a1dc:	009b      	lsls	r3, r3, #2
 800a1de:	f203 13ff 	addw	r3, r3, #511	; 0x1ff
 800a1e2:	ebb0 2f53 	cmp.w	r0, r3, lsr #9
 800a1e6:	f8c4 7224 	str.w	r7, [r4, #548]	; 0x224
 800a1ea:	d347      	bcc.n	800a27c <find_volume+0x1f4>
 800a1ec:	f04f 33ff 	mov.w	r3, #4294967295
 800a1f0:	e9c4 3383 	strd	r3, r3, [r4, #524]	; 0x20c
 800a1f4:	2d03      	cmp	r5, #3
 800a1f6:	f04f 0380 	mov.w	r3, #128	; 0x80
 800a1fa:	f884 3205 	strb.w	r3, [r4, #517]	; 0x205
 800a1fe:	d124      	bne.n	800a24a <find_volume+0x1c2>
 800a200:	8e23      	ldrh	r3, [r4, #48]	; 0x30
 800a202:	2b01      	cmp	r3, #1
 800a204:	d121      	bne.n	800a24a <find_volume+0x1c2>
 800a206:	1c71      	adds	r1, r6, #1
 800a208:	4620      	mov	r0, r4
 800a20a:	f7ff fefa 	bl	800a002 <move_window>
 800a20e:	b9e0      	cbnz	r0, 800a24a <find_volume+0x1c2>
 800a210:	f8b4 21fe 	ldrh.w	r2, [r4, #510]	; 0x1fe
 800a214:	f884 0205 	strb.w	r0, [r4, #517]	; 0x205
 800a218:	f64a 2355 	movw	r3, #43605	; 0xaa55
 800a21c:	429a      	cmp	r2, r3
 800a21e:	d114      	bne.n	800a24a <find_volume+0x1c2>
 800a220:	6822      	ldr	r2, [r4, #0]
 800a222:	4b26      	ldr	r3, [pc, #152]	; (800a2bc <find_volume+0x234>)
 800a224:	429a      	cmp	r2, r3
 800a226:	d110      	bne.n	800a24a <find_volume+0x1c2>
 800a228:	f103 53ff 	add.w	r3, r3, #534773760	; 0x1fe00000
 800a22c:	f8d4 21e4 	ldr.w	r2, [r4, #484]	; 0x1e4
 800a230:	f503 5300 	add.w	r3, r3, #8192	; 0x2000
 800a234:	3320      	adds	r3, #32
 800a236:	429a      	cmp	r2, r3
 800a238:	bf01      	itttt	eq
 800a23a:	f8d4 31e8 	ldreq.w	r3, [r4, #488]	; 0x1e8
 800a23e:	f8c4 3210 	streq.w	r3, [r4, #528]	; 0x210
 800a242:	f8d4 31ec 	ldreq.w	r3, [r4, #492]	; 0x1ec
 800a246:	f8c4 320c 	streq.w	r3, [r4, #524]	; 0x20c
 800a24a:	4a1d      	ldr	r2, [pc, #116]	; (800a2c0 <find_volume+0x238>)
 800a24c:	f884 5200 	strb.w	r5, [r4, #512]	; 0x200
 800a250:	8813      	ldrh	r3, [r2, #0]
 800a252:	3301      	adds	r3, #1
 800a254:	b29b      	uxth	r3, r3
 800a256:	f8a4 3206 	strh.w	r3, [r4, #518]	; 0x206
 800a25a:	4620      	mov	r0, r4
 800a25c:	8013      	strh	r3, [r2, #0]
 800a25e:	2500      	movs	r5, #0
 800a260:	f7ff fe3c 	bl	8009edc <clear_lock>
 800a264:	e731      	b.n	800a0ca <find_volume+0x42>
 800a266:	2002      	movs	r0, #2
 800a268:	3701      	adds	r7, #1
 800a26a:	2f04      	cmp	r7, #4
 800a26c:	f47f af56 	bne.w	800a11c <find_volume+0x94>
 800a270:	2803      	cmp	r0, #3
 800a272:	d103      	bne.n	800a27c <find_volume+0x1f4>
 800a274:	e729      	b.n	800a0ca <find_volume+0x42>
 800a276:	2803      	cmp	r0, #3
 800a278:	d01b      	beq.n	800a2b2 <find_volume+0x22a>
 800a27a:	b108      	cbz	r0, 800a280 <find_volume+0x1f8>
 800a27c:	250d      	movs	r5, #13
 800a27e:	e724      	b.n	800a0ca <find_volume+0x42>
 800a280:	4606      	mov	r6, r0
 800a282:	e757      	b.n	800a134 <find_volume+0xac>
 800a284:	2501      	movs	r5, #1
 800a286:	e798      	b.n	800a1ba <find_volume+0x132>
 800a288:	f1be 0f00 	cmp.w	lr, #0
 800a28c:	d0f6      	beq.n	800a27c <find_volume+0x1f4>
 800a28e:	2d02      	cmp	r5, #2
 800a290:	4417      	add	r7, r2
 800a292:	ea4f 0243 	mov.w	r2, r3, lsl #1
 800a296:	bf1b      	ittet	ne
 800a298:	18d2      	addne	r2, r2, r3
 800a29a:	f003 0301 	andne.w	r3, r3, #1
 800a29e:	4613      	moveq	r3, r2
 800a2a0:	eb03 0352 	addne.w	r3, r3, r2, lsr #1
 800a2a4:	e79b      	b.n	800a1de <find_volume+0x156>
 800a2a6:	250b      	movs	r5, #11
 800a2a8:	e70f      	b.n	800a0ca <find_volume+0x42>
 800a2aa:	250c      	movs	r5, #12
 800a2ac:	e70d      	b.n	800a0ca <find_volume+0x42>
 800a2ae:	2503      	movs	r5, #3
 800a2b0:	e70b      	b.n	800a0ca <find_volume+0x42>
 800a2b2:	2501      	movs	r5, #1
 800a2b4:	e709      	b.n	800a0ca <find_volume+0x42>
 800a2b6:	bf00      	nop
 800a2b8:	200098e8 	.word	0x200098e8
 800a2bc:	41615252 	.word	0x41615252
 800a2c0:	20009a54 	.word	0x20009a54

0800a2c4 <sync_fs>:
 800a2c4:	b538      	push	{r3, r4, r5, lr}
 800a2c6:	4604      	mov	r4, r0
 800a2c8:	f7ff fe94 	bl	8009ff4 <sync_window>
 800a2cc:	4605      	mov	r5, r0
 800a2ce:	bbb8      	cbnz	r0, 800a340 <sync_fs+0x7c>
 800a2d0:	f894 3200 	ldrb.w	r3, [r4, #512]	; 0x200
 800a2d4:	2b03      	cmp	r3, #3
 800a2d6:	d12a      	bne.n	800a32e <sync_fs+0x6a>
 800a2d8:	f894 3205 	ldrb.w	r3, [r4, #517]	; 0x205
 800a2dc:	2b01      	cmp	r3, #1
 800a2de:	d126      	bne.n	800a32e <sync_fs+0x6a>
 800a2e0:	4601      	mov	r1, r0
 800a2e2:	f44f 7200 	mov.w	r2, #512	; 0x200
 800a2e6:	4620      	mov	r0, r4
 800a2e8:	f7ff fd56 	bl	8009d98 <mem_set>
 800a2ec:	f64a 2255 	movw	r2, #43605	; 0xaa55
 800a2f0:	f8a4 21fe 	strh.w	r2, [r4, #510]	; 0x1fe
 800a2f4:	4a13      	ldr	r2, [pc, #76]	; (800a344 <sync_fs+0x80>)
 800a2f6:	6022      	str	r2, [r4, #0]
 800a2f8:	f102 52ff 	add.w	r2, r2, #534773760	; 0x1fe00000
 800a2fc:	f502 5200 	add.w	r2, r2, #8192	; 0x2000
 800a300:	3220      	adds	r2, #32
 800a302:	f8c4 21e4 	str.w	r2, [r4, #484]	; 0x1e4
 800a306:	f8d4 2210 	ldr.w	r2, [r4, #528]	; 0x210
 800a30a:	f8c4 21e8 	str.w	r2, [r4, #488]	; 0x1e8
 800a30e:	f8d4 220c 	ldr.w	r2, [r4, #524]	; 0x20c
 800a312:	f8c4 21ec 	str.w	r2, [r4, #492]	; 0x1ec
 800a316:	f8d4 221c 	ldr.w	r2, [r4, #540]	; 0x21c
 800a31a:	f894 0201 	ldrb.w	r0, [r4, #513]	; 0x201
 800a31e:	3201      	adds	r2, #1
 800a320:	f8c4 222c 	str.w	r2, [r4, #556]	; 0x22c
 800a324:	4621      	mov	r1, r4
 800a326:	f7ff fd11 	bl	8009d4c <disk_write>
 800a32a:	f884 5205 	strb.w	r5, [r4, #517]	; 0x205
 800a32e:	2200      	movs	r2, #0
 800a330:	f894 0201 	ldrb.w	r0, [r4, #513]	; 0x201
 800a334:	4611      	mov	r1, r2
 800a336:	f7ff fd17 	bl	8009d68 <disk_ioctl>
 800a33a:	3800      	subs	r0, #0
 800a33c:	bf18      	it	ne
 800a33e:	2001      	movne	r0, #1
 800a340:	bd38      	pop	{r3, r4, r5, pc}
 800a342:	bf00      	nop
 800a344:	41615252 	.word	0x41615252

0800a348 <ld_clust.isra.0>:
 800a348:	2803      	cmp	r0, #3
 800a34a:	8b4b      	ldrh	r3, [r1, #26]
 800a34c:	bf04      	itt	eq
 800a34e:	8a8a      	ldrheq	r2, [r1, #20]
 800a350:	ea43 4302 	orreq.w	r3, r3, r2, lsl #16
 800a354:	4618      	mov	r0, r3
 800a356:	4770      	bx	lr

0800a358 <clust2sect>:
 800a358:	f8d0 3214 	ldr.w	r3, [r0, #532]	; 0x214
 800a35c:	3902      	subs	r1, #2
 800a35e:	3b02      	subs	r3, #2
 800a360:	428b      	cmp	r3, r1
 800a362:	bf83      	ittte	hi
 800a364:	f890 3202 	ldrbhi.w	r3, [r0, #514]	; 0x202
 800a368:	f8d0 0228 	ldrhi.w	r0, [r0, #552]	; 0x228
 800a36c:	fb01 0003 	mlahi	r0, r1, r3, r0
 800a370:	2000      	movls	r0, #0
 800a372:	4770      	bx	lr

0800a374 <get_fat>:
 800a374:	2901      	cmp	r1, #1
 800a376:	b5f8      	push	{r3, r4, r5, r6, r7, lr}
 800a378:	4606      	mov	r6, r0
 800a37a:	460d      	mov	r5, r1
 800a37c:	d95a      	bls.n	800a434 <get_fat+0xc0>
 800a37e:	f8d0 3214 	ldr.w	r3, [r0, #532]	; 0x214
 800a382:	428b      	cmp	r3, r1
 800a384:	d956      	bls.n	800a434 <get_fat+0xc0>
 800a386:	f890 3200 	ldrb.w	r3, [r0, #512]	; 0x200
 800a38a:	2b02      	cmp	r3, #2
 800a38c:	d027      	beq.n	800a3de <get_fat+0x6a>
 800a38e:	2b03      	cmp	r3, #3
 800a390:	d036      	beq.n	800a400 <get_fat+0x8c>
 800a392:	2b01      	cmp	r3, #1
 800a394:	d14e      	bne.n	800a434 <get_fat+0xc0>
 800a396:	eb01 0451 	add.w	r4, r1, r1, lsr #1
 800a39a:	f8d0 1220 	ldr.w	r1, [r0, #544]	; 0x220
 800a39e:	eb01 2154 	add.w	r1, r1, r4, lsr #9
 800a3a2:	f7ff fe2e 	bl	800a002 <move_window>
 800a3a6:	b110      	cbz	r0, 800a3ae <get_fat+0x3a>
 800a3a8:	f04f 30ff 	mov.w	r0, #4294967295
 800a3ac:	bdf8      	pop	{r3, r4, r5, r6, r7, pc}
 800a3ae:	f8d6 1220 	ldr.w	r1, [r6, #544]	; 0x220
 800a3b2:	1c67      	adds	r7, r4, #1
 800a3b4:	f3c4 0408 	ubfx	r4, r4, #0, #9
 800a3b8:	eb01 2157 	add.w	r1, r1, r7, lsr #9
 800a3bc:	4630      	mov	r0, r6
 800a3be:	5d34      	ldrb	r4, [r6, r4]
 800a3c0:	f7ff fe1f 	bl	800a002 <move_window>
 800a3c4:	2800      	cmp	r0, #0
 800a3c6:	d1ef      	bne.n	800a3a8 <get_fat+0x34>
 800a3c8:	f3c7 0708 	ubfx	r7, r7, #0, #9
 800a3cc:	5df3      	ldrb	r3, [r6, r7]
 800a3ce:	ea44 2003 	orr.w	r0, r4, r3, lsl #8
 800a3d2:	07eb      	lsls	r3, r5, #31
 800a3d4:	bf4c      	ite	mi
 800a3d6:	0900      	lsrmi	r0, r0, #4
 800a3d8:	f3c0 000b 	ubfxpl	r0, r0, #0, #12
 800a3dc:	e7e6      	b.n	800a3ac <get_fat+0x38>
 800a3de:	f8d0 1220 	ldr.w	r1, [r0, #544]	; 0x220
 800a3e2:	eb01 2115 	add.w	r1, r1, r5, lsr #8
 800a3e6:	f7ff fe0c 	bl	800a002 <move_window>
 800a3ea:	2800      	cmp	r0, #0
 800a3ec:	d1dc      	bne.n	800a3a8 <get_fat+0x34>
 800a3ee:	006d      	lsls	r5, r5, #1
 800a3f0:	f405 75ff 	and.w	r5, r5, #510	; 0x1fe
 800a3f4:	1973      	adds	r3, r6, r5
 800a3f6:	5d70      	ldrb	r0, [r6, r5]
 800a3f8:	785b      	ldrb	r3, [r3, #1]
 800a3fa:	ea40 2003 	orr.w	r0, r0, r3, lsl #8
 800a3fe:	e7d5      	b.n	800a3ac <get_fat+0x38>
 800a400:	f8d0 1220 	ldr.w	r1, [r0, #544]	; 0x220
 800a404:	eb01 11d5 	add.w	r1, r1, r5, lsr #7
 800a408:	f7ff fdfb 	bl	800a002 <move_window>
 800a40c:	2800      	cmp	r0, #0
 800a40e:	d1cb      	bne.n	800a3a8 <get_fat+0x34>
 800a410:	00ad      	lsls	r5, r5, #2
 800a412:	f405 75fe 	and.w	r5, r5, #508	; 0x1fc
 800a416:	1972      	adds	r2, r6, r5
 800a418:	7893      	ldrb	r3, [r2, #2]
 800a41a:	78d1      	ldrb	r1, [r2, #3]
 800a41c:	041b      	lsls	r3, r3, #16
 800a41e:	ea43 6301 	orr.w	r3, r3, r1, lsl #24
 800a422:	5d71      	ldrb	r1, [r6, r5]
 800a424:	ea43 0001 	orr.w	r0, r3, r1
 800a428:	7853      	ldrb	r3, [r2, #1]
 800a42a:	ea40 2003 	orr.w	r0, r0, r3, lsl #8
 800a42e:	f020 4070 	bic.w	r0, r0, #4026531840	; 0xf0000000
 800a432:	e7bb      	b.n	800a3ac <get_fat+0x38>
 800a434:	2001      	movs	r0, #1
 800a436:	e7b9      	b.n	800a3ac <get_fat+0x38>

0800a438 <dir_sdi>:
 800a438:	f8d0 2208 	ldr.w	r2, [r0, #520]	; 0x208
 800a43c:	2a01      	cmp	r2, #1
 800a43e:	b570      	push	{r4, r5, r6, lr}
 800a440:	4604      	mov	r4, r0
 800a442:	460d      	mov	r5, r1
 800a444:	f8a0 1206 	strh.w	r1, [r0, #518]	; 0x206
 800a448:	d101      	bne.n	800a44e <dir_sdi+0x16>
 800a44a:	2002      	movs	r0, #2
 800a44c:	bd70      	pop	{r4, r5, r6, pc}
 800a44e:	f8d0 3200 	ldr.w	r3, [r0, #512]	; 0x200
 800a452:	f8d3 1214 	ldr.w	r1, [r3, #532]	; 0x214
 800a456:	4291      	cmp	r1, r2
 800a458:	d9f7      	bls.n	800a44a <dir_sdi+0x12>
 800a45a:	b9f2      	cbnz	r2, 800a49a <dir_sdi+0x62>
 800a45c:	f893 1200 	ldrb.w	r1, [r3, #512]	; 0x200
 800a460:	2903      	cmp	r1, #3
 800a462:	d102      	bne.n	800a46a <dir_sdi+0x32>
 800a464:	f8d3 1224 	ldr.w	r1, [r3, #548]	; 0x224
 800a468:	b9c1      	cbnz	r1, 800a49c <dir_sdi+0x64>
 800a46a:	f8b3 1208 	ldrh.w	r1, [r3, #520]	; 0x208
 800a46e:	42a9      	cmp	r1, r5
 800a470:	d9eb      	bls.n	800a44a <dir_sdi+0x12>
 800a472:	f8d3 0224 	ldr.w	r0, [r3, #548]	; 0x224
 800a476:	f8c4 220c 	str.w	r2, [r4, #524]	; 0x20c
 800a47a:	2800      	cmp	r0, #0
 800a47c:	d0e5      	beq.n	800a44a <dir_sdi+0x12>
 800a47e:	f8d4 3200 	ldr.w	r3, [r4, #512]	; 0x200
 800a482:	eb00 1015 	add.w	r0, r0, r5, lsr #4
 800a486:	f005 050f 	and.w	r5, r5, #15
 800a48a:	eb03 1345 	add.w	r3, r3, r5, lsl #5
 800a48e:	f8c4 0210 	str.w	r0, [r4, #528]	; 0x210
 800a492:	f8c4 3214 	str.w	r3, [r4, #532]	; 0x214
 800a496:	2000      	movs	r0, #0
 800a498:	e7d8      	b.n	800a44c <dir_sdi+0x14>
 800a49a:	4611      	mov	r1, r2
 800a49c:	f893 6202 	ldrb.w	r6, [r3, #514]	; 0x202
 800a4a0:	460a      	mov	r2, r1
 800a4a2:	0136      	lsls	r6, r6, #4
 800a4a4:	42b5      	cmp	r5, r6
 800a4a6:	f8d4 0200 	ldr.w	r0, [r4, #512]	; 0x200
 800a4aa:	4611      	mov	r1, r2
 800a4ac:	d202      	bcs.n	800a4b4 <dir_sdi+0x7c>
 800a4ae:	f7ff ff53 	bl	800a358 <clust2sect>
 800a4b2:	e7e0      	b.n	800a476 <dir_sdi+0x3e>
 800a4b4:	f7ff ff5e 	bl	800a374 <get_fat>
 800a4b8:	1c43      	adds	r3, r0, #1
 800a4ba:	4602      	mov	r2, r0
 800a4bc:	d009      	beq.n	800a4d2 <dir_sdi+0x9a>
 800a4be:	2801      	cmp	r0, #1
 800a4c0:	d9c3      	bls.n	800a44a <dir_sdi+0x12>
 800a4c2:	f8d4 3200 	ldr.w	r3, [r4, #512]	; 0x200
 800a4c6:	f8d3 3214 	ldr.w	r3, [r3, #532]	; 0x214
 800a4ca:	4283      	cmp	r3, r0
 800a4cc:	d9bd      	bls.n	800a44a <dir_sdi+0x12>
 800a4ce:	1bad      	subs	r5, r5, r6
 800a4d0:	e7e8      	b.n	800a4a4 <dir_sdi+0x6c>
 800a4d2:	2001      	movs	r0, #1
 800a4d4:	e7ba      	b.n	800a44c <dir_sdi+0x14>

0800a4d6 <put_fat>:
 800a4d6:	2901      	cmp	r1, #1
 800a4d8:	e92d 41f0 	stmdb	sp!, {r4, r5, r6, r7, r8, lr}
 800a4dc:	4605      	mov	r5, r0
 800a4de:	460c      	mov	r4, r1
 800a4e0:	4616      	mov	r6, r2
 800a4e2:	d970      	bls.n	800a5c6 <put_fat+0xf0>
 800a4e4:	f8d0 3214 	ldr.w	r3, [r0, #532]	; 0x214
 800a4e8:	428b      	cmp	r3, r1
 800a4ea:	d96c      	bls.n	800a5c6 <put_fat+0xf0>
 800a4ec:	f890 3200 	ldrb.w	r3, [r0, #512]	; 0x200
 800a4f0:	2b02      	cmp	r3, #2
 800a4f2:	d03c      	beq.n	800a56e <put_fat+0x98>
 800a4f4:	2b03      	cmp	r3, #3
 800a4f6:	d04b      	beq.n	800a590 <put_fat+0xba>
 800a4f8:	2b01      	cmp	r3, #1
 800a4fa:	d164      	bne.n	800a5c6 <put_fat+0xf0>
 800a4fc:	eb01 0751 	add.w	r7, r1, r1, lsr #1
 800a500:	f8d0 1220 	ldr.w	r1, [r0, #544]	; 0x220
 800a504:	eb01 2157 	add.w	r1, r1, r7, lsr #9
 800a508:	f7ff fd7b 	bl	800a002 <move_window>
 800a50c:	bb28      	cbnz	r0, 800a55a <put_fat+0x84>
 800a50e:	f107 0801 	add.w	r8, r7, #1
 800a512:	f3c7 0708 	ubfx	r7, r7, #0, #9
 800a516:	f014 0401 	ands.w	r4, r4, #1
 800a51a:	bf1f      	itttt	ne
 800a51c:	5dea      	ldrbne	r2, [r5, r7]
 800a51e:	0133      	lslne	r3, r6, #4
 800a520:	f003 03f0 	andne.w	r3, r3, #240	; 0xf0
 800a524:	f002 020f 	andne.w	r2, r2, #15
 800a528:	bf14      	ite	ne
 800a52a:	4313      	orrne	r3, r2
 800a52c:	b2f3      	uxtbeq	r3, r6
 800a52e:	55eb      	strb	r3, [r5, r7]
 800a530:	f8d5 1220 	ldr.w	r1, [r5, #544]	; 0x220
 800a534:	2301      	movs	r3, #1
 800a536:	f885 3204 	strb.w	r3, [r5, #516]	; 0x204
 800a53a:	eb01 2158 	add.w	r1, r1, r8, lsr #9
 800a53e:	4628      	mov	r0, r5
 800a540:	f7ff fd5f 	bl	800a002 <move_window>
 800a544:	b948      	cbnz	r0, 800a55a <put_fat+0x84>
 800a546:	f3c8 0808 	ubfx	r8, r8, #0, #9
 800a54a:	b144      	cbz	r4, 800a55e <put_fat+0x88>
 800a54c:	f3c6 1607 	ubfx	r6, r6, #4, #8
 800a550:	f805 6008 	strb.w	r6, [r5, r8]
 800a554:	2301      	movs	r3, #1
 800a556:	f885 3204 	strb.w	r3, [r5, #516]	; 0x204
 800a55a:	e8bd 81f0 	ldmia.w	sp!, {r4, r5, r6, r7, r8, pc}
 800a55e:	f815 3008 	ldrb.w	r3, [r5, r8]
 800a562:	f3c6 2603 	ubfx	r6, r6, #8, #4
 800a566:	f023 030f 	bic.w	r3, r3, #15
 800a56a:	431e      	orrs	r6, r3
 800a56c:	e7f0      	b.n	800a550 <put_fat+0x7a>
 800a56e:	f8d0 1220 	ldr.w	r1, [r0, #544]	; 0x220
 800a572:	eb01 2114 	add.w	r1, r1, r4, lsr #8
 800a576:	f7ff fd44 	bl	800a002 <move_window>
 800a57a:	2800      	cmp	r0, #0
 800a57c:	d1ed      	bne.n	800a55a <put_fat+0x84>
 800a57e:	0064      	lsls	r4, r4, #1
 800a580:	f404 74ff 	and.w	r4, r4, #510	; 0x1fe
 800a584:	552e      	strb	r6, [r5, r4]
 800a586:	442c      	add	r4, r5
 800a588:	f3c6 2607 	ubfx	r6, r6, #8, #8
 800a58c:	7066      	strb	r6, [r4, #1]
 800a58e:	e7e1      	b.n	800a554 <put_fat+0x7e>
 800a590:	f8d0 1220 	ldr.w	r1, [r0, #544]	; 0x220
 800a594:	eb01 11d4 	add.w	r1, r1, r4, lsr #7
 800a598:	f7ff fd33 	bl	800a002 <move_window>
 800a59c:	2800      	cmp	r0, #0
 800a59e:	d1dc      	bne.n	800a55a <put_fat+0x84>
 800a5a0:	00a4      	lsls	r4, r4, #2
 800a5a2:	f404 74fe 	and.w	r4, r4, #508	; 0x1fc
 800a5a6:	1929      	adds	r1, r5, r4
 800a5a8:	78cb      	ldrb	r3, [r1, #3]
 800a5aa:	061b      	lsls	r3, r3, #24
 800a5ac:	f003 4370 	and.w	r3, r3, #4026531840	; 0xf0000000
 800a5b0:	ea43 0206 	orr.w	r2, r3, r6
 800a5b4:	f3c2 2307 	ubfx	r3, r2, #8, #8
 800a5b8:	552a      	strb	r2, [r5, r4]
 800a5ba:	704b      	strb	r3, [r1, #1]
 800a5bc:	0c13      	lsrs	r3, r2, #16
 800a5be:	0e12      	lsrs	r2, r2, #24
 800a5c0:	708b      	strb	r3, [r1, #2]
 800a5c2:	70ca      	strb	r2, [r1, #3]
 800a5c4:	e7c6      	b.n	800a554 <put_fat+0x7e>
 800a5c6:	2002      	movs	r0, #2
 800a5c8:	e7c7      	b.n	800a55a <put_fat+0x84>

0800a5ca <create_chain>:
 800a5ca:	b5f8      	push	{r3, r4, r5, r6, r7, lr}
 800a5cc:	4605      	mov	r5, r0
 800a5ce:	460f      	mov	r7, r1
 800a5d0:	b989      	cbnz	r1, 800a5f6 <create_chain+0x2c>
 800a5d2:	f8d0 620c 	ldr.w	r6, [r0, #524]	; 0x20c
 800a5d6:	b1f6      	cbz	r6, 800a616 <create_chain+0x4c>
 800a5d8:	f8d0 3214 	ldr.w	r3, [r0, #532]	; 0x214
 800a5dc:	429e      	cmp	r6, r3
 800a5de:	bf28      	it	cs
 800a5e0:	2601      	movcs	r6, #1
 800a5e2:	4634      	mov	r4, r6
 800a5e4:	f8d5 3214 	ldr.w	r3, [r5, #532]	; 0x214
 800a5e8:	3401      	adds	r4, #1
 800a5ea:	42a3      	cmp	r3, r4
 800a5ec:	d816      	bhi.n	800a61c <create_chain+0x52>
 800a5ee:	2e01      	cmp	r6, #1
 800a5f0:	d113      	bne.n	800a61a <create_chain+0x50>
 800a5f2:	2400      	movs	r4, #0
 800a5f4:	e005      	b.n	800a602 <create_chain+0x38>
 800a5f6:	f7ff febd 	bl	800a374 <get_fat>
 800a5fa:	2801      	cmp	r0, #1
 800a5fc:	4604      	mov	r4, r0
 800a5fe:	d802      	bhi.n	800a606 <create_chain+0x3c>
 800a600:	2401      	movs	r4, #1
 800a602:	4620      	mov	r0, r4
 800a604:	bdf8      	pop	{r3, r4, r5, r6, r7, pc}
 800a606:	1c60      	adds	r0, r4, #1
 800a608:	d035      	beq.n	800a676 <create_chain+0xac>
 800a60a:	f8d5 3214 	ldr.w	r3, [r5, #532]	; 0x214
 800a60e:	42a3      	cmp	r3, r4
 800a610:	d8f7      	bhi.n	800a602 <create_chain+0x38>
 800a612:	463e      	mov	r6, r7
 800a614:	e7e5      	b.n	800a5e2 <create_chain+0x18>
 800a616:	2601      	movs	r6, #1
 800a618:	e7e3      	b.n	800a5e2 <create_chain+0x18>
 800a61a:	2402      	movs	r4, #2
 800a61c:	4621      	mov	r1, r4
 800a61e:	4628      	mov	r0, r5
 800a620:	f7ff fea8 	bl	800a374 <get_fat>
 800a624:	b130      	cbz	r0, 800a634 <create_chain+0x6a>
 800a626:	1c41      	adds	r1, r0, #1
 800a628:	d025      	beq.n	800a676 <create_chain+0xac>
 800a62a:	2801      	cmp	r0, #1
 800a62c:	d0e8      	beq.n	800a600 <create_chain+0x36>
 800a62e:	42b4      	cmp	r4, r6
 800a630:	d1d8      	bne.n	800a5e4 <create_chain+0x1a>
 800a632:	e7de      	b.n	800a5f2 <create_chain+0x28>
 800a634:	f06f 4270 	mvn.w	r2, #4026531840	; 0xf0000000
 800a638:	4621      	mov	r1, r4
 800a63a:	4628      	mov	r0, r5
 800a63c:	f7ff ff4b 	bl	800a4d6 <put_fat>
 800a640:	b9b8      	cbnz	r0, 800a672 <create_chain+0xa8>
 800a642:	b97f      	cbnz	r7, 800a664 <create_chain+0x9a>
 800a644:	f8d5 3210 	ldr.w	r3, [r5, #528]	; 0x210
 800a648:	f8c5 420c 	str.w	r4, [r5, #524]	; 0x20c
 800a64c:	1c5a      	adds	r2, r3, #1
 800a64e:	d0d8      	beq.n	800a602 <create_chain+0x38>
 800a650:	3b01      	subs	r3, #1
 800a652:	f8c5 3210 	str.w	r3, [r5, #528]	; 0x210
 800a656:	f895 3205 	ldrb.w	r3, [r5, #517]	; 0x205
 800a65a:	f043 0301 	orr.w	r3, r3, #1
 800a65e:	f885 3205 	strb.w	r3, [r5, #517]	; 0x205
 800a662:	e7ce      	b.n	800a602 <create_chain+0x38>
 800a664:	4622      	mov	r2, r4
 800a666:	4639      	mov	r1, r7
 800a668:	4628      	mov	r0, r5
 800a66a:	f7ff ff34 	bl	800a4d6 <put_fat>
 800a66e:	2800      	cmp	r0, #0
 800a670:	d0e8      	beq.n	800a644 <create_chain+0x7a>
 800a672:	2801      	cmp	r0, #1
 800a674:	d1c4      	bne.n	800a600 <create_chain+0x36>
 800a676:	f04f 34ff 	mov.w	r4, #4294967295
 800a67a:	e7c2      	b.n	800a602 <create_chain+0x38>

0800a67c <dir_next>:
 800a67c:	e92d 43f8 	stmdb	sp!, {r3, r4, r5, r6, r7, r8, r9, lr}
 800a680:	f8b0 6206 	ldrh.w	r6, [r0, #518]	; 0x206
 800a684:	3601      	adds	r6, #1
 800a686:	b2b3      	uxth	r3, r6
 800a688:	4604      	mov	r4, r0
 800a68a:	4689      	mov	r9, r1
 800a68c:	b913      	cbnz	r3, 800a694 <dir_next+0x18>
 800a68e:	2004      	movs	r0, #4
 800a690:	e8bd 83f8 	ldmia.w	sp!, {r3, r4, r5, r6, r7, r8, r9, pc}
 800a694:	f8d0 3210 	ldr.w	r3, [r0, #528]	; 0x210
 800a698:	2b00      	cmp	r3, #0
 800a69a:	d0f8      	beq.n	800a68e <dir_next+0x12>
 800a69c:	f016 080f 	ands.w	r8, r6, #15
 800a6a0:	f8d0 0200 	ldr.w	r0, [r0, #512]	; 0x200
 800a6a4:	d109      	bne.n	800a6ba <dir_next+0x3e>
 800a6a6:	f8d4 120c 	ldr.w	r1, [r4, #524]	; 0x20c
 800a6aa:	3301      	adds	r3, #1
 800a6ac:	f8c4 3210 	str.w	r3, [r4, #528]	; 0x210
 800a6b0:	b969      	cbnz	r1, 800a6ce <dir_next+0x52>
 800a6b2:	f8b0 3208 	ldrh.w	r3, [r0, #520]	; 0x208
 800a6b6:	42b3      	cmp	r3, r6
 800a6b8:	d9e9      	bls.n	800a68e <dir_next+0x12>
 800a6ba:	f8d4 3200 	ldr.w	r3, [r4, #512]	; 0x200
 800a6be:	f8a4 6206 	strh.w	r6, [r4, #518]	; 0x206
 800a6c2:	eb03 1348 	add.w	r3, r3, r8, lsl #5
 800a6c6:	f8c4 3214 	str.w	r3, [r4, #532]	; 0x214
 800a6ca:	2000      	movs	r0, #0
 800a6cc:	e7e0      	b.n	800a690 <dir_next+0x14>
 800a6ce:	f890 7202 	ldrb.w	r7, [r0, #514]	; 0x202
 800a6d2:	3f01      	subs	r7, #1
 800a6d4:	ea17 1716 	ands.w	r7, r7, r6, lsr #4
 800a6d8:	d1ef      	bne.n	800a6ba <dir_next+0x3e>
 800a6da:	f7ff fe4b 	bl	800a374 <get_fat>
 800a6de:	2801      	cmp	r0, #1
 800a6e0:	4605      	mov	r5, r0
 800a6e2:	d801      	bhi.n	800a6e8 <dir_next+0x6c>
 800a6e4:	2002      	movs	r0, #2
 800a6e6:	e7d3      	b.n	800a690 <dir_next+0x14>
 800a6e8:	1c42      	adds	r2, r0, #1
 800a6ea:	d101      	bne.n	800a6f0 <dir_next+0x74>
 800a6ec:	2001      	movs	r0, #1
 800a6ee:	e7cf      	b.n	800a690 <dir_next+0x14>
 800a6f0:	f8d4 0200 	ldr.w	r0, [r4, #512]	; 0x200
 800a6f4:	f8d0 3214 	ldr.w	r3, [r0, #532]	; 0x214
 800a6f8:	42ab      	cmp	r3, r5
 800a6fa:	d82f      	bhi.n	800a75c <dir_next+0xe0>
 800a6fc:	f1b9 0f00 	cmp.w	r9, #0
 800a700:	d0c5      	beq.n	800a68e <dir_next+0x12>
 800a702:	f8d4 120c 	ldr.w	r1, [r4, #524]	; 0x20c
 800a706:	f7ff ff60 	bl	800a5ca <create_chain>
 800a70a:	4605      	mov	r5, r0
 800a70c:	2800      	cmp	r0, #0
 800a70e:	d03e      	beq.n	800a78e <dir_next+0x112>
 800a710:	2801      	cmp	r0, #1
 800a712:	d0e7      	beq.n	800a6e4 <dir_next+0x68>
 800a714:	1c43      	adds	r3, r0, #1
 800a716:	d0e9      	beq.n	800a6ec <dir_next+0x70>
 800a718:	f8d4 0200 	ldr.w	r0, [r4, #512]	; 0x200
 800a71c:	f7ff fc6a 	bl	8009ff4 <sync_window>
 800a720:	4601      	mov	r1, r0
 800a722:	2800      	cmp	r0, #0
 800a724:	d1e2      	bne.n	800a6ec <dir_next+0x70>
 800a726:	f8d4 0200 	ldr.w	r0, [r4, #512]	; 0x200
 800a72a:	f44f 7200 	mov.w	r2, #512	; 0x200
 800a72e:	f7ff fb33 	bl	8009d98 <mem_set>
 800a732:	f8d4 2200 	ldr.w	r2, [r4, #512]	; 0x200
 800a736:	4629      	mov	r1, r5
 800a738:	4610      	mov	r0, r2
 800a73a:	f7ff fe0d 	bl	800a358 <clust2sect>
 800a73e:	f04f 0901 	mov.w	r9, #1
 800a742:	f8c2 022c 	str.w	r0, [r2, #556]	; 0x22c
 800a746:	f8d4 0200 	ldr.w	r0, [r4, #512]	; 0x200
 800a74a:	f890 3202 	ldrb.w	r3, [r0, #514]	; 0x202
 800a74e:	42bb      	cmp	r3, r7
 800a750:	d80e      	bhi.n	800a770 <dir_next+0xf4>
 800a752:	f8d0 322c 	ldr.w	r3, [r0, #556]	; 0x22c
 800a756:	1bdb      	subs	r3, r3, r7
 800a758:	f8c0 322c 	str.w	r3, [r0, #556]	; 0x22c
 800a75c:	f8d4 0200 	ldr.w	r0, [r4, #512]	; 0x200
 800a760:	f8c4 520c 	str.w	r5, [r4, #524]	; 0x20c
 800a764:	4629      	mov	r1, r5
 800a766:	f7ff fdf7 	bl	800a358 <clust2sect>
 800a76a:	f8c4 0210 	str.w	r0, [r4, #528]	; 0x210
 800a76e:	e7a4      	b.n	800a6ba <dir_next+0x3e>
 800a770:	f880 9204 	strb.w	r9, [r0, #516]	; 0x204
 800a774:	f7ff fc14 	bl	8009fa0 <sync_window.part.0>
 800a778:	2800      	cmp	r0, #0
 800a77a:	d1b7      	bne.n	800a6ec <dir_next+0x70>
 800a77c:	f8d4 2200 	ldr.w	r2, [r4, #512]	; 0x200
 800a780:	f8d2 322c 	ldr.w	r3, [r2, #556]	; 0x22c
 800a784:	3301      	adds	r3, #1
 800a786:	f8c2 322c 	str.w	r3, [r2, #556]	; 0x22c
 800a78a:	3701      	adds	r7, #1
 800a78c:	e7db      	b.n	800a746 <dir_next+0xca>
 800a78e:	2007      	movs	r0, #7
 800a790:	e77e      	b.n	800a690 <dir_next+0x14>
	...

0800a794 <dir_find>:
 800a794:	e92d 4ff7 	stmdb	sp!, {r0, r1, r2, r4, r5, r6, r7, r8, r9, sl, fp, lr}
 800a798:	2100      	movs	r1, #0
 800a79a:	4606      	mov	r6, r0
 800a79c:	f7ff fe4c 	bl	800a438 <dir_sdi>
 800a7a0:	4604      	mov	r4, r0
 800a7a2:	2800      	cmp	r0, #0
 800a7a4:	d170      	bne.n	800a888 <dir_find+0xf4>
 800a7a6:	f64f 79ff 	movw	r9, #65535	; 0xffff
 800a7aa:	f04f 08ff 	mov.w	r8, #255	; 0xff
 800a7ae:	f8a6 9224 	strh.w	r9, [r6, #548]	; 0x224
 800a7b2:	4645      	mov	r5, r8
 800a7b4:	f8d6 1210 	ldr.w	r1, [r6, #528]	; 0x210
 800a7b8:	f8d6 0200 	ldr.w	r0, [r6, #512]	; 0x200
 800a7bc:	f7ff fc21 	bl	800a002 <move_window>
 800a7c0:	4604      	mov	r4, r0
 800a7c2:	2800      	cmp	r0, #0
 800a7c4:	d160      	bne.n	800a888 <dir_find+0xf4>
 800a7c6:	f8d6 7214 	ldr.w	r7, [r6, #532]	; 0x214
 800a7ca:	783b      	ldrb	r3, [r7, #0]
 800a7cc:	2b00      	cmp	r3, #0
 800a7ce:	d07d      	beq.n	800a8cc <dir_find+0x138>
 800a7d0:	2be5      	cmp	r3, #229	; 0xe5
 800a7d2:	7af9      	ldrb	r1, [r7, #11]
 800a7d4:	d005      	beq.n	800a7e2 <dir_find+0x4e>
 800a7d6:	f001 023f 	and.w	r2, r1, #63	; 0x3f
 800a7da:	0709      	lsls	r1, r1, #28
 800a7dc:	d504      	bpl.n	800a7e8 <dir_find+0x54>
 800a7de:	2a0f      	cmp	r2, #15
 800a7e0:	d004      	beq.n	800a7ec <dir_find+0x58>
 800a7e2:	f8a6 9224 	strh.w	r9, [r6, #548]	; 0x224
 800a7e6:	e055      	b.n	800a894 <dir_find+0x100>
 800a7e8:	2a0f      	cmp	r2, #15
 800a7ea:	d158      	bne.n	800a89e <dir_find+0x10a>
 800a7ec:	f8d6 4220 	ldr.w	r4, [r6, #544]	; 0x220
 800a7f0:	2c00      	cmp	r4, #0
 800a7f2:	d042      	beq.n	800a87a <dir_find+0xe6>
 800a7f4:	065a      	lsls	r2, r3, #25
 800a7f6:	d54b      	bpl.n	800a890 <dir_find+0xfc>
 800a7f8:	f003 05bf 	and.w	r5, r3, #191	; 0xbf
 800a7fc:	f8b6 3206 	ldrh.w	r3, [r6, #518]	; 0x206
 800a800:	f897 800d 	ldrb.w	r8, [r7, #13]
 800a804:	f8a6 3224 	strh.w	r3, [r6, #548]	; 0x224
 800a808:	7b7b      	ldrb	r3, [r7, #13]
 800a80a:	4543      	cmp	r3, r8
 800a80c:	d142      	bne.n	800a894 <dir_find+0x100>
 800a80e:	783b      	ldrb	r3, [r7, #0]
 800a810:	f8df a0c0 	ldr.w	sl, [pc, #192]	; 800a8d4 <dir_find+0x140>
 800a814:	f023 0340 	bic.w	r3, r3, #64	; 0x40
 800a818:	3b01      	subs	r3, #1
 800a81a:	220d      	movs	r2, #13
 800a81c:	fb02 fb03 	mul.w	fp, r2, r3
 800a820:	f04f 0c01 	mov.w	ip, #1
 800a824:	f81a 2b01 	ldrb.w	r2, [sl], #1
 800a828:	18b9      	adds	r1, r7, r2
 800a82a:	5cba      	ldrb	r2, [r7, r2]
 800a82c:	7849      	ldrb	r1, [r1, #1]
 800a82e:	ea42 2001 	orr.w	r0, r2, r1, lsl #8
 800a832:	f1bc 0f00 	cmp.w	ip, #0
 800a836:	d02f      	beq.n	800a898 <dir_find+0x104>
 800a838:	f000 fea6 	bl	800b588 <ff_wtoupper>
 800a83c:	f1bb 0ffe 	cmp.w	fp, #254	; 0xfe
 800a840:	9001      	str	r0, [sp, #4]
 800a842:	d827      	bhi.n	800a894 <dir_find+0x100>
 800a844:	f10b 0101 	add.w	r1, fp, #1
 800a848:	f834 001b 	ldrh.w	r0, [r4, fp, lsl #1]
 800a84c:	9100      	str	r1, [sp, #0]
 800a84e:	f000 fe9b 	bl	800b588 <ff_wtoupper>
 800a852:	9a01      	ldr	r2, [sp, #4]
 800a854:	4282      	cmp	r2, r0
 800a856:	4684      	mov	ip, r0
 800a858:	d11c      	bne.n	800a894 <dir_find+0x100>
 800a85a:	9900      	ldr	r1, [sp, #0]
 800a85c:	468b      	mov	fp, r1
 800a85e:	4b1c      	ldr	r3, [pc, #112]	; (800a8d0 <dir_find+0x13c>)
 800a860:	4553      	cmp	r3, sl
 800a862:	d1df      	bne.n	800a824 <dir_find+0x90>
 800a864:	783b      	ldrb	r3, [r7, #0]
 800a866:	065b      	lsls	r3, r3, #25
 800a868:	d505      	bpl.n	800a876 <dir_find+0xe2>
 800a86a:	f1bc 0f00 	cmp.w	ip, #0
 800a86e:	d002      	beq.n	800a876 <dir_find+0xe2>
 800a870:	f834 301b 	ldrh.w	r3, [r4, fp, lsl #1]
 800a874:	b973      	cbnz	r3, 800a894 <dir_find+0x100>
 800a876:	3d01      	subs	r5, #1
 800a878:	b2ed      	uxtb	r5, r5
 800a87a:	2100      	movs	r1, #0
 800a87c:	4630      	mov	r0, r6
 800a87e:	f7ff fefd 	bl	800a67c <dir_next>
 800a882:	4604      	mov	r4, r0
 800a884:	2800      	cmp	r0, #0
 800a886:	d095      	beq.n	800a7b4 <dir_find+0x20>
 800a888:	4620      	mov	r0, r4
 800a88a:	b003      	add	sp, #12
 800a88c:	e8bd 8ff0 	ldmia.w	sp!, {r4, r5, r6, r7, r8, r9, sl, fp, pc}
 800a890:	42ab      	cmp	r3, r5
 800a892:	d0b9      	beq.n	800a808 <dir_find+0x74>
 800a894:	25ff      	movs	r5, #255	; 0xff
 800a896:	e7f0      	b.n	800a87a <dir_find+0xe6>
 800a898:	4548      	cmp	r0, r9
 800a89a:	d0e0      	beq.n	800a85e <dir_find+0xca>
 800a89c:	e7fa      	b.n	800a894 <dir_find+0x100>
 800a89e:	b925      	cbnz	r5, 800a8aa <dir_find+0x116>
 800a8a0:	4638      	mov	r0, r7
 800a8a2:	f7ff fb3f 	bl	8009f24 <sum_sfn>
 800a8a6:	4540      	cmp	r0, r8
 800a8a8:	d0ee      	beq.n	800a888 <dir_find+0xf4>
 800a8aa:	f8d6 3218 	ldr.w	r3, [r6, #536]	; 0x218
 800a8ae:	7adc      	ldrb	r4, [r3, #11]
 800a8b0:	f014 0401 	ands.w	r4, r4, #1
 800a8b4:	d195      	bne.n	800a7e2 <dir_find+0x4e>
 800a8b6:	f107 000b 	add.w	r0, r7, #11
 800a8ba:	4287      	cmp	r7, r0
 800a8bc:	d0e4      	beq.n	800a888 <dir_find+0xf4>
 800a8be:	f817 1b01 	ldrb.w	r1, [r7], #1
 800a8c2:	f813 2b01 	ldrb.w	r2, [r3], #1
 800a8c6:	4291      	cmp	r1, r2
 800a8c8:	d0f7      	beq.n	800a8ba <dir_find+0x126>
 800a8ca:	e78a      	b.n	800a7e2 <dir_find+0x4e>
 800a8cc:	2404      	movs	r4, #4
 800a8ce:	e7db      	b.n	800a888 <dir_find+0xf4>
 800a8d0:	08010805 	.word	0x08010805
 800a8d4:	080107f8 	.word	0x080107f8

0800a8d8 <follow_path>:
 800a8d8:	e92d 4ff7 	stmdb	sp!, {r0, r1, r2, r4, r5, r6, r7, r8, r9, sl, fp, lr}
 800a8dc:	780b      	ldrb	r3, [r1, #0]
 800a8de:	2b2f      	cmp	r3, #47	; 0x2f
 800a8e0:	4607      	mov	r7, r0
 800a8e2:	4688      	mov	r8, r1
 800a8e4:	d001      	beq.n	800a8ea <follow_path+0x12>
 800a8e6:	2b5c      	cmp	r3, #92	; 0x5c
 800a8e8:	d101      	bne.n	800a8ee <follow_path+0x16>
 800a8ea:	f108 0801 	add.w	r8, r8, #1
 800a8ee:	2400      	movs	r4, #0
 800a8f0:	f8c7 4208 	str.w	r4, [r7, #520]	; 0x208
 800a8f4:	f898 3000 	ldrb.w	r3, [r8]
 800a8f8:	2b1f      	cmp	r3, #31
 800a8fa:	f200 80c1 	bhi.w	800aa80 <follow_path+0x1a8>
 800a8fe:	4621      	mov	r1, r4
 800a900:	4638      	mov	r0, r7
 800a902:	f7ff fd99 	bl	800a438 <dir_sdi>
 800a906:	f8c7 4214 	str.w	r4, [r7, #532]	; 0x214
 800a90a:	b003      	add	sp, #12
 800a90c:	e8bd 8ff0 	ldmia.w	sp!, {r4, r5, r6, r7, r8, r9, sl, fp, pc}
 800a910:	f82b 0f02 	strh.w	r0, [fp, #2]!
 800a914:	4646      	mov	r6, r8
 800a916:	e0c4      	b.n	800aaa2 <follow_path+0x1ca>
 800a918:	44c8      	add	r8, r9
 800a91a:	2e00      	cmp	r6, #0
 800a91c:	f000 80e4 	beq.w	800aae8 <follow_path+0x210>
 800a920:	f835 3016 	ldrh.w	r3, [r5, r6, lsl #1]
 800a924:	2b20      	cmp	r3, #32
 800a926:	d002      	beq.n	800a92e <follow_path+0x56>
 800a928:	2b2e      	cmp	r3, #46	; 0x2e
 800a92a:	f040 80e1 	bne.w	800aaf0 <follow_path+0x218>
 800a92e:	3e01      	subs	r6, #1
 800a930:	e7f3      	b.n	800a91a <follow_path+0x42>
 800a932:	3101      	adds	r1, #1
 800a934:	f83a 3011 	ldrh.w	r3, [sl, r1, lsl #1]
 800a938:	2b20      	cmp	r3, #32
 800a93a:	d0fa      	beq.n	800a932 <follow_path+0x5a>
 800a93c:	2b2e      	cmp	r3, #46	; 0x2e
 800a93e:	d0f8      	beq.n	800a932 <follow_path+0x5a>
 800a940:	2c1f      	cmp	r4, #31
 800a942:	bf8c      	ite	hi
 800a944:	2400      	movhi	r4, #0
 800a946:	2401      	movls	r4, #1
 800a948:	00a4      	lsls	r4, r4, #2
 800a94a:	b109      	cbz	r1, 800a950 <follow_path+0x78>
 800a94c:	f044 0403 	orr.w	r4, r4, #3
 800a950:	f835 3016 	ldrh.w	r3, [r5, r6, lsl #1]
 800a954:	2b2e      	cmp	r3, #46	; 0x2e
 800a956:	d001      	beq.n	800a95c <follow_path+0x84>
 800a958:	3e01      	subs	r6, #1
 800a95a:	d1f9      	bne.n	800a950 <follow_path+0x78>
 800a95c:	2300      	movs	r3, #0
 800a95e:	f04f 0908 	mov.w	r9, #8
 800a962:	461d      	mov	r5, r3
 800a964:	f83a 0011 	ldrh.w	r0, [sl, r1, lsl #1]
 800a968:	f101 0b01 	add.w	fp, r1, #1
 800a96c:	b1c0      	cbz	r0, 800a9a0 <follow_path+0xc8>
 800a96e:	2820      	cmp	r0, #32
 800a970:	d003      	beq.n	800a97a <follow_path+0xa2>
 800a972:	282e      	cmp	r0, #46	; 0x2e
 800a974:	d105      	bne.n	800a982 <follow_path+0xaa>
 800a976:	45b3      	cmp	fp, r6
 800a978:	d007      	beq.n	800a98a <follow_path+0xb2>
 800a97a:	f044 0403 	orr.w	r4, r4, #3
 800a97e:	4659      	mov	r1, fp
 800a980:	e7f0      	b.n	800a964 <follow_path+0x8c>
 800a982:	454b      	cmp	r3, r9
 800a984:	d205      	bcs.n	800a992 <follow_path+0xba>
 800a986:	45b3      	cmp	fp, r6
 800a988:	d149      	bne.n	800aa1e <follow_path+0x146>
 800a98a:	f1b9 0f0b 	cmp.w	r9, #11
 800a98e:	d13f      	bne.n	800aa10 <follow_path+0x138>
 800a990:	e002      	b.n	800a998 <follow_path+0xc0>
 800a992:	f1b9 0f0b 	cmp.w	r9, #11
 800a996:	d136      	bne.n	800aa06 <follow_path+0x12e>
 800a998:	f044 0403 	orr.w	r4, r4, #3
 800a99c:	f04f 090b 	mov.w	r9, #11
 800a9a0:	f8d7 3218 	ldr.w	r3, [r7, #536]	; 0x218
 800a9a4:	781a      	ldrb	r2, [r3, #0]
 800a9a6:	2ae5      	cmp	r2, #229	; 0xe5
 800a9a8:	bf04      	itt	eq
 800a9aa:	2205      	moveq	r2, #5
 800a9ac:	701a      	strbeq	r2, [r3, #0]
 800a9ae:	f1b9 0f08 	cmp.w	r9, #8
 800a9b2:	bf04      	itt	eq
 800a9b4:	00ad      	lsleq	r5, r5, #2
 800a9b6:	b2ed      	uxtbeq	r5, r5
 800a9b8:	f005 030c 	and.w	r3, r5, #12
 800a9bc:	2b0c      	cmp	r3, #12
 800a9be:	d003      	beq.n	800a9c8 <follow_path+0xf0>
 800a9c0:	f005 0203 	and.w	r2, r5, #3
 800a9c4:	2a03      	cmp	r2, #3
 800a9c6:	d101      	bne.n	800a9cc <follow_path+0xf4>
 800a9c8:	f044 0402 	orr.w	r4, r4, #2
 800a9cc:	07a1      	lsls	r1, r4, #30
 800a9ce:	d409      	bmi.n	800a9e4 <follow_path+0x10c>
 800a9d0:	f005 0503 	and.w	r5, r5, #3
 800a9d4:	2d01      	cmp	r5, #1
 800a9d6:	bf08      	it	eq
 800a9d8:	f044 0410 	orreq.w	r4, r4, #16
 800a9dc:	2b04      	cmp	r3, #4
 800a9de:	bf08      	it	eq
 800a9e0:	f044 0408 	orreq.w	r4, r4, #8
 800a9e4:	f8d7 3218 	ldr.w	r3, [r7, #536]	; 0x218
 800a9e8:	4638      	mov	r0, r7
 800a9ea:	72dc      	strb	r4, [r3, #11]
 800a9ec:	f7ff fed2 	bl	800a794 <dir_find>
 800a9f0:	f8d7 3218 	ldr.w	r3, [r7, #536]	; 0x218
 800a9f4:	7adb      	ldrb	r3, [r3, #11]
 800a9f6:	b398      	cbz	r0, 800aa60 <follow_path+0x188>
 800a9f8:	2804      	cmp	r0, #4
 800a9fa:	d186      	bne.n	800a90a <follow_path+0x32>
 800a9fc:	f013 0f04 	tst.w	r3, #4
 800aa00:	bf08      	it	eq
 800aa02:	2005      	moveq	r0, #5
 800aa04:	e781      	b.n	800a90a <follow_path+0x32>
 800aa06:	45b3      	cmp	fp, r6
 800aa08:	d002      	beq.n	800aa10 <follow_path+0x138>
 800aa0a:	f044 0403 	orr.w	r4, r4, #3
 800aa0e:	d8c7      	bhi.n	800a9a0 <follow_path+0xc8>
 800aa10:	00ad      	lsls	r5, r5, #2
 800aa12:	b2ed      	uxtb	r5, r5
 800aa14:	46b3      	mov	fp, r6
 800aa16:	f04f 090b 	mov.w	r9, #11
 800aa1a:	2308      	movs	r3, #8
 800aa1c:	e7af      	b.n	800a97e <follow_path+0xa6>
 800aa1e:	287f      	cmp	r0, #127	; 0x7f
 800aa20:	d90c      	bls.n	800aa3c <follow_path+0x164>
 800aa22:	2100      	movs	r1, #0
 800aa24:	9300      	str	r3, [sp, #0]
 800aa26:	f000 fd93 	bl	800b550 <ff_convert>
 800aa2a:	f044 0402 	orr.w	r4, r4, #2
 800aa2e:	9b00      	ldr	r3, [sp, #0]
 800aa30:	b158      	cbz	r0, 800aa4a <follow_path+0x172>
 800aa32:	4a3b      	ldr	r2, [pc, #236]	; (800ab20 <follow_path+0x248>)
 800aa34:	4410      	add	r0, r2
 800aa36:	f810 0c80 	ldrb.w	r0, [r0, #-128]
 800aa3a:	b130      	cbz	r0, 800aa4a <follow_path+0x172>
 800aa3c:	4a39      	ldr	r2, [pc, #228]	; (800ab24 <follow_path+0x24c>)
 800aa3e:	f812 1b01 	ldrb.w	r1, [r2], #1
 800aa42:	2900      	cmp	r1, #0
 800aa44:	d05f      	beq.n	800ab06 <follow_path+0x22e>
 800aa46:	4281      	cmp	r1, r0
 800aa48:	d1f9      	bne.n	800aa3e <follow_path+0x166>
 800aa4a:	f044 0403 	orr.w	r4, r4, #3
 800aa4e:	205f      	movs	r0, #95	; 0x5f
 800aa50:	f8d7 1218 	ldr.w	r1, [r7, #536]	; 0x218
 800aa54:	54c8      	strb	r0, [r1, r3]
 800aa56:	3301      	adds	r3, #1
 800aa58:	e791      	b.n	800a97e <follow_path+0xa6>
 800aa5a:	f045 0502 	orr.w	r5, r5, #2
 800aa5e:	e7f7      	b.n	800aa50 <follow_path+0x178>
 800aa60:	075a      	lsls	r2, r3, #29
 800aa62:	f53f af52 	bmi.w	800a90a <follow_path+0x32>
 800aa66:	f8d7 1214 	ldr.w	r1, [r7, #532]	; 0x214
 800aa6a:	7acb      	ldrb	r3, [r1, #11]
 800aa6c:	06db      	lsls	r3, r3, #27
 800aa6e:	d53d      	bpl.n	800aaec <follow_path+0x214>
 800aa70:	f8d7 3200 	ldr.w	r3, [r7, #512]	; 0x200
 800aa74:	f893 0200 	ldrb.w	r0, [r3, #512]	; 0x200
 800aa78:	f7ff fc66 	bl	800a348 <ld_clust.isra.0>
 800aa7c:	f8c7 0208 	str.w	r0, [r7, #520]	; 0x208
 800aa80:	f898 3000 	ldrb.w	r3, [r8]
 800aa84:	2b2f      	cmp	r3, #47	; 0x2f
 800aa86:	46c1      	mov	r9, r8
 800aa88:	f108 0801 	add.w	r8, r8, #1
 800aa8c:	d0f8      	beq.n	800aa80 <follow_path+0x1a8>
 800aa8e:	2b5c      	cmp	r3, #92	; 0x5c
 800aa90:	d0f6      	beq.n	800aa80 <follow_path+0x1a8>
 800aa92:	f8d7 a220 	ldr.w	sl, [r7, #544]	; 0x220
 800aa96:	f1aa 0502 	sub.w	r5, sl, #2
 800aa9a:	f109 32ff 	add.w	r2, r9, #4294967295
 800aa9e:	46ab      	mov	fp, r5
 800aaa0:	2600      	movs	r6, #0
 800aaa2:	f812 4f01 	ldrb.w	r4, [r2, #1]!
 800aaa6:	2c1f      	cmp	r4, #31
 800aaa8:	e9cd 2200 	strd	r2, r2, [sp]
 800aaac:	f106 0801 	add.w	r8, r6, #1
 800aab0:	f67f af32 	bls.w	800a918 <follow_path+0x40>
 800aab4:	2c2f      	cmp	r4, #47	; 0x2f
 800aab6:	f43f af2f 	beq.w	800a918 <follow_path+0x40>
 800aaba:	2c5c      	cmp	r4, #92	; 0x5c
 800aabc:	f43f af2c 	beq.w	800a918 <follow_path+0x40>
 800aac0:	f5b8 7f80 	cmp.w	r8, #256	; 0x100
 800aac4:	d010      	beq.n	800aae8 <follow_path+0x210>
 800aac6:	2101      	movs	r1, #1
 800aac8:	4620      	mov	r0, r4
 800aaca:	f000 fd41 	bl	800b550 <ff_convert>
 800aace:	b158      	cbz	r0, 800aae8 <follow_path+0x210>
 800aad0:	287f      	cmp	r0, #127	; 0x7f
 800aad2:	9a00      	ldr	r2, [sp, #0]
 800aad4:	f63f af1c 	bhi.w	800a910 <follow_path+0x38>
 800aad8:	4c13      	ldr	r4, [pc, #76]	; (800ab28 <follow_path+0x250>)
 800aada:	f814 1b01 	ldrb.w	r1, [r4], #1
 800aade:	2900      	cmp	r1, #0
 800aae0:	f43f af16 	beq.w	800a910 <follow_path+0x38>
 800aae4:	4281      	cmp	r1, r0
 800aae6:	d1f8      	bne.n	800aada <follow_path+0x202>
 800aae8:	2006      	movs	r0, #6
 800aaea:	e70e      	b.n	800a90a <follow_path+0x32>
 800aaec:	2005      	movs	r0, #5
 800aaee:	e70c      	b.n	800a90a <follow_path+0x32>
 800aaf0:	2300      	movs	r3, #0
 800aaf2:	2120      	movs	r1, #32
 800aaf4:	f82a 3016 	strh.w	r3, [sl, r6, lsl #1]
 800aaf8:	f8d7 0218 	ldr.w	r0, [r7, #536]	; 0x218
 800aafc:	220b      	movs	r2, #11
 800aafe:	f7ff f94b 	bl	8009d98 <mem_set>
 800ab02:	4619      	mov	r1, r3
 800ab04:	e716      	b.n	800a934 <follow_path+0x5c>
 800ab06:	f1a0 0141 	sub.w	r1, r0, #65	; 0x41
 800ab0a:	2919      	cmp	r1, #25
 800ab0c:	d9a5      	bls.n	800aa5a <follow_path+0x182>
 800ab0e:	f1a0 0161 	sub.w	r1, r0, #97	; 0x61
 800ab12:	2919      	cmp	r1, #25
 800ab14:	bf9e      	ittt	ls
 800ab16:	3820      	subls	r0, #32
 800ab18:	f045 0501 	orrls.w	r5, r5, #1
 800ab1c:	b280      	uxthls	r0, r0
 800ab1e:	e797      	b.n	800aa50 <follow_path+0x178>
 800ab20:	08010778 	.word	0x08010778
 800ab24:	08010771 	.word	0x08010771
 800ab28:	08010768 	.word	0x08010768

0800ab2c <dir_register>:
 800ab2c:	e92d 4ff0 	stmdb	sp!, {r4, r5, r6, r7, r8, r9, sl, fp, lr}
 800ab30:	f8d0 6218 	ldr.w	r6, [r0, #536]	; 0x218
 800ab34:	f8d0 7220 	ldr.w	r7, [r0, #544]	; 0x220
 800ab38:	b087      	sub	sp, #28
 800ab3a:	220c      	movs	r2, #12
 800ab3c:	4605      	mov	r5, r0
 800ab3e:	4631      	mov	r1, r6
 800ab40:	eb0d 0002 	add.w	r0, sp, r2
 800ab44:	f7ff f91e 	bl	8009d84 <mem_cpy>
 800ab48:	f89d 3017 	ldrb.w	r3, [sp, #23]
 800ab4c:	07db      	lsls	r3, r3, #31
 800ab4e:	f140 8087 	bpl.w	800ac60 <dir_register+0x134>
 800ab52:	2300      	movs	r3, #0
 800ab54:	f8df 8244 	ldr.w	r8, [pc, #580]	; 800ad9c <dir_register+0x270>
 800ab58:	72f3      	strb	r3, [r6, #11]
 800ab5a:	f04f 0901 	mov.w	r9, #1
 800ab5e:	f8c5 3220 	str.w	r3, [r5, #544]	; 0x220
 800ab62:	220b      	movs	r2, #11
 800ab64:	a903      	add	r1, sp, #12
 800ab66:	4630      	mov	r0, r6
 800ab68:	f7ff f90c 	bl	8009d84 <mem_cpy>
 800ab6c:	f1b9 0f05 	cmp.w	r9, #5
 800ab70:	d953      	bls.n	800ac1a <dir_register+0xee>
 800ab72:	1eb8      	subs	r0, r7, #2
 800ab74:	464b      	mov	r3, r9
 800ab76:	f830 2f02 	ldrh.w	r2, [r0, #2]!
 800ab7a:	2a00      	cmp	r2, #0
 800ab7c:	d13f      	bne.n	800abfe <dir_register+0xd2>
 800ab7e:	a803      	add	r0, sp, #12
 800ab80:	2207      	movs	r2, #7
 800ab82:	f003 040f 	and.w	r4, r3, #15
 800ab86:	f104 0130 	add.w	r1, r4, #48	; 0x30
 800ab8a:	2939      	cmp	r1, #57	; 0x39
 800ab8c:	bf88      	it	hi
 800ab8e:	f104 0137 	addhi.w	r1, r4, #55	; 0x37
 800ab92:	2b0f      	cmp	r3, #15
 800ab94:	f800 1d01 	strb.w	r1, [r0, #-1]!
 800ab98:	f102 32ff 	add.w	r2, r2, #4294967295
 800ab9c:	ea4f 1113 	mov.w	r1, r3, lsr #4
 800aba0:	d83d      	bhi.n	800ac1e <dir_register+0xf2>
 800aba2:	f102 0318 	add.w	r3, r2, #24
 800aba6:	446b      	add	r3, sp
 800aba8:	217e      	movs	r1, #126	; 0x7e
 800abaa:	f803 1c14 	strb.w	r1, [r3, #-20]
 800abae:	1e74      	subs	r4, r6, #1
 800abb0:	2300      	movs	r3, #0
 800abb2:	429a      	cmp	r2, r3
 800abb4:	d003      	beq.n	800abbe <dir_register+0x92>
 800abb6:	1c59      	adds	r1, r3, #1
 800abb8:	5c60      	ldrb	r0, [r4, r1]
 800abba:	2820      	cmp	r0, #32
 800abbc:	d131      	bne.n	800ac22 <dir_register+0xf6>
 800abbe:	4433      	add	r3, r6
 800abc0:	2a07      	cmp	r2, #7
 800abc2:	bf9b      	ittet	ls
 800abc4:	f102 0118 	addls.w	r1, r2, #24
 800abc8:	4469      	addls	r1, sp
 800abca:	2120      	movhi	r1, #32
 800abcc:	f811 1c14 	ldrbls.w	r1, [r1, #-20]
 800abd0:	f803 1b01 	strb.w	r1, [r3], #1
 800abd4:	eba3 0106 	sub.w	r1, r3, r6
 800abd8:	bf98      	it	ls
 800abda:	3201      	addls	r2, #1
 800abdc:	2907      	cmp	r1, #7
 800abde:	d9ef      	bls.n	800abc0 <dir_register+0x94>
 800abe0:	4628      	mov	r0, r5
 800abe2:	f7ff fdd7 	bl	800a794 <dir_find>
 800abe6:	4604      	mov	r4, r0
 800abe8:	bb98      	cbnz	r0, 800ac52 <dir_register+0x126>
 800abea:	f109 0901 	add.w	r9, r9, #1
 800abee:	f1b9 0f64 	cmp.w	r9, #100	; 0x64
 800abf2:	d1b6      	bne.n	800ab62 <dir_register+0x36>
 800abf4:	2407      	movs	r4, #7
 800abf6:	4620      	mov	r0, r4
 800abf8:	b007      	add	sp, #28
 800abfa:	e8bd 8ff0 	ldmia.w	sp!, {r4, r5, r6, r7, r8, r9, sl, fp, pc}
 800abfe:	2110      	movs	r1, #16
 800ac00:	f002 0401 	and.w	r4, r2, #1
 800ac04:	eb04 0343 	add.w	r3, r4, r3, lsl #1
 800ac08:	03dc      	lsls	r4, r3, #15
 800ac0a:	bf48      	it	mi
 800ac0c:	ea83 0308 	eormi.w	r3, r3, r8
 800ac10:	3901      	subs	r1, #1
 800ac12:	ea4f 0252 	mov.w	r2, r2, lsr #1
 800ac16:	d1f3      	bne.n	800ac00 <dir_register+0xd4>
 800ac18:	e7ad      	b.n	800ab76 <dir_register+0x4a>
 800ac1a:	464b      	mov	r3, r9
 800ac1c:	e7af      	b.n	800ab7e <dir_register+0x52>
 800ac1e:	460b      	mov	r3, r1
 800ac20:	e7af      	b.n	800ab82 <dir_register+0x56>
 800ac22:	460b      	mov	r3, r1
 800ac24:	e7c5      	b.n	800abb2 <dir_register+0x86>
 800ac26:	3601      	adds	r6, #1
 800ac28:	f837 3016 	ldrh.w	r3, [r7, r6, lsl #1]
 800ac2c:	2b00      	cmp	r3, #0
 800ac2e:	d1fa      	bne.n	800ac26 <dir_register+0xfa>
 800ac30:	3619      	adds	r6, #25
 800ac32:	230d      	movs	r3, #13
 800ac34:	fbb6 f6f3 	udiv	r6, r6, r3
 800ac38:	e017      	b.n	800ac6a <dir_register+0x13e>
 800ac3a:	2600      	movs	r6, #0
 800ac3c:	e7f4      	b.n	800ac28 <dir_register+0xfc>
 800ac3e:	4607      	mov	r7, r0
 800ac40:	2101      	movs	r1, #1
 800ac42:	4628      	mov	r0, r5
 800ac44:	f7ff fd1a 	bl	800a67c <dir_next>
 800ac48:	4604      	mov	r4, r0
 800ac4a:	b1b0      	cbz	r0, 800ac7a <dir_register+0x14e>
 800ac4c:	2c04      	cmp	r4, #4
 800ac4e:	d0d1      	beq.n	800abf4 <dir_register+0xc8>
 800ac50:	e7d1      	b.n	800abf6 <dir_register+0xca>
 800ac52:	2804      	cmp	r0, #4
 800ac54:	d1cf      	bne.n	800abf6 <dir_register+0xca>
 800ac56:	f89d 3017 	ldrb.w	r3, [sp, #23]
 800ac5a:	72f3      	strb	r3, [r6, #11]
 800ac5c:	f8c5 7220 	str.w	r7, [r5, #544]	; 0x220
 800ac60:	f89d 3017 	ldrb.w	r3, [sp, #23]
 800ac64:	079b      	lsls	r3, r3, #30
 800ac66:	d4e8      	bmi.n	800ac3a <dir_register+0x10e>
 800ac68:	2601      	movs	r6, #1
 800ac6a:	2100      	movs	r1, #0
 800ac6c:	4628      	mov	r0, r5
 800ac6e:	f7ff fbe3 	bl	800a438 <dir_sdi>
 800ac72:	4604      	mov	r4, r0
 800ac74:	2800      	cmp	r0, #0
 800ac76:	d1e9      	bne.n	800ac4c <dir_register+0x120>
 800ac78:	4607      	mov	r7, r0
 800ac7a:	f8d5 1210 	ldr.w	r1, [r5, #528]	; 0x210
 800ac7e:	f8d5 0200 	ldr.w	r0, [r5, #512]	; 0x200
 800ac82:	f7ff f9be 	bl	800a002 <move_window>
 800ac86:	4604      	mov	r4, r0
 800ac88:	2800      	cmp	r0, #0
 800ac8a:	d1df      	bne.n	800ac4c <dir_register+0x120>
 800ac8c:	f8d5 3214 	ldr.w	r3, [r5, #532]	; 0x214
 800ac90:	781b      	ldrb	r3, [r3, #0]
 800ac92:	2be5      	cmp	r3, #229	; 0xe5
 800ac94:	d001      	beq.n	800ac9a <dir_register+0x16e>
 800ac96:	2b00      	cmp	r3, #0
 800ac98:	d1d1      	bne.n	800ac3e <dir_register+0x112>
 800ac9a:	3701      	adds	r7, #1
 800ac9c:	42be      	cmp	r6, r7
 800ac9e:	d1cf      	bne.n	800ac40 <dir_register+0x114>
 800aca0:	3e01      	subs	r6, #1
 800aca2:	d059      	beq.n	800ad58 <dir_register+0x22c>
 800aca4:	f8b5 1206 	ldrh.w	r1, [r5, #518]	; 0x206
 800aca8:	4628      	mov	r0, r5
 800acaa:	1b89      	subs	r1, r1, r6
 800acac:	f7ff fbc4 	bl	800a438 <dir_sdi>
 800acb0:	4604      	mov	r4, r0
 800acb2:	2800      	cmp	r0, #0
 800acb4:	d19f      	bne.n	800abf6 <dir_register+0xca>
 800acb6:	f8d5 0218 	ldr.w	r0, [r5, #536]	; 0x218
 800acba:	f7ff f933 	bl	8009f24 <sum_sfn>
 800acbe:	f04f 080f 	mov.w	r8, #15
 800acc2:	4607      	mov	r7, r0
 800acc4:	f64f 79ff 	movw	r9, #65535	; 0xffff
 800acc8:	f8d5 1210 	ldr.w	r1, [r5, #528]	; 0x210
 800accc:	f8d5 0200 	ldr.w	r0, [r5, #512]	; 0x200
 800acd0:	f7ff f997 	bl	800a002 <move_window>
 800acd4:	4603      	mov	r3, r0
 800acd6:	4604      	mov	r4, r0
 800acd8:	2800      	cmp	r0, #0
 800acda:	d18c      	bne.n	800abf6 <dir_register+0xca>
 800acdc:	f8d5 2214 	ldr.w	r2, [r5, #532]	; 0x214
 800ace0:	f8df e0bc 	ldr.w	lr, [pc, #188]	; 800ada0 <dir_register+0x274>
 800ace4:	f8d5 c220 	ldr.w	ip, [r5, #544]	; 0x220
 800ace8:	7357      	strb	r7, [r2, #13]
 800acea:	b2f0      	uxtb	r0, r6
 800acec:	1e41      	subs	r1, r0, #1
 800acee:	240d      	movs	r4, #13
 800acf0:	f882 800b 	strb.w	r8, [r2, #11]
 800acf4:	7313      	strb	r3, [r2, #12]
 800acf6:	7693      	strb	r3, [r2, #26]
 800acf8:	76d3      	strb	r3, [r2, #27]
 800acfa:	4361      	muls	r1, r4
 800acfc:	469a      	mov	sl, r3
 800acfe:	454b      	cmp	r3, r9
 800ad00:	f81e 4b01 	ldrb.w	r4, [lr], #1
 800ad04:	bf18      	it	ne
 800ad06:	f83c 3011 	ldrhne.w	r3, [ip, r1, lsl #1]
 800ad0a:	5513      	strb	r3, [r2, r4]
 800ad0c:	f10a 0a01 	add.w	sl, sl, #1
 800ad10:	4414      	add	r4, r2
 800ad12:	bf18      	it	ne
 800ad14:	3101      	addne	r1, #1
 800ad16:	ea4f 2b13 	mov.w	fp, r3, lsr #8
 800ad1a:	2b00      	cmp	r3, #0
 800ad1c:	bf08      	it	eq
 800ad1e:	464b      	moveq	r3, r9
 800ad20:	f1ba 0f0d 	cmp.w	sl, #13
 800ad24:	f884 b001 	strb.w	fp, [r4, #1]
 800ad28:	d1e9      	bne.n	800acfe <dir_register+0x1d2>
 800ad2a:	454b      	cmp	r3, r9
 800ad2c:	d002      	beq.n	800ad34 <dir_register+0x208>
 800ad2e:	f83c 3011 	ldrh.w	r3, [ip, r1, lsl #1]
 800ad32:	b90b      	cbnz	r3, 800ad38 <dir_register+0x20c>
 800ad34:	f040 0040 	orr.w	r0, r0, #64	; 0x40
 800ad38:	7010      	strb	r0, [r2, #0]
 800ad3a:	f8d5 3200 	ldr.w	r3, [r5, #512]	; 0x200
 800ad3e:	2201      	movs	r2, #1
 800ad40:	f883 2204 	strb.w	r2, [r3, #516]	; 0x204
 800ad44:	2100      	movs	r1, #0
 800ad46:	4628      	mov	r0, r5
 800ad48:	f7ff fc98 	bl	800a67c <dir_next>
 800ad4c:	4604      	mov	r4, r0
 800ad4e:	2800      	cmp	r0, #0
 800ad50:	f47f af51 	bne.w	800abf6 <dir_register+0xca>
 800ad54:	3e01      	subs	r6, #1
 800ad56:	d1b7      	bne.n	800acc8 <dir_register+0x19c>
 800ad58:	f8d5 1210 	ldr.w	r1, [r5, #528]	; 0x210
 800ad5c:	f8d5 0200 	ldr.w	r0, [r5, #512]	; 0x200
 800ad60:	f7ff f94f 	bl	800a002 <move_window>
 800ad64:	4604      	mov	r4, r0
 800ad66:	2800      	cmp	r0, #0
 800ad68:	f47f af45 	bne.w	800abf6 <dir_register+0xca>
 800ad6c:	4601      	mov	r1, r0
 800ad6e:	2220      	movs	r2, #32
 800ad70:	f8d5 0214 	ldr.w	r0, [r5, #532]	; 0x214
 800ad74:	f7ff f810 	bl	8009d98 <mem_set>
 800ad78:	220b      	movs	r2, #11
 800ad7a:	e9d5 0185 	ldrd	r0, r1, [r5, #532]	; 0x214
 800ad7e:	f7ff f801 	bl	8009d84 <mem_cpy>
 800ad82:	e9d5 2385 	ldrd	r2, r3, [r5, #532]	; 0x214
 800ad86:	7adb      	ldrb	r3, [r3, #11]
 800ad88:	f003 0318 	and.w	r3, r3, #24
 800ad8c:	7313      	strb	r3, [r2, #12]
 800ad8e:	f8d5 3200 	ldr.w	r3, [r5, #512]	; 0x200
 800ad92:	2201      	movs	r2, #1
 800ad94:	f883 2204 	strb.w	r2, [r3, #516]	; 0x204
 800ad98:	e72d      	b.n	800abf6 <dir_register+0xca>
 800ad9a:	bf00      	nop
 800ad9c:	00011021 	.word	0x00011021
 800ada0:	080107f8 	.word	0x080107f8

0800ada4 <remove_chain>:
 800ada4:	2901      	cmp	r1, #1
 800ada6:	b537      	push	{r0, r1, r2, r4, r5, lr}
 800ada8:	4605      	mov	r5, r0
 800adaa:	460c      	mov	r4, r1
 800adac:	d92a      	bls.n	800ae04 <remove_chain+0x60>
 800adae:	f8d0 3214 	ldr.w	r3, [r0, #532]	; 0x214
 800adb2:	428b      	cmp	r3, r1
 800adb4:	d926      	bls.n	800ae04 <remove_chain+0x60>
 800adb6:	4621      	mov	r1, r4
 800adb8:	4628      	mov	r0, r5
 800adba:	9401      	str	r4, [sp, #4]
 800adbc:	f7ff fada 	bl	800a374 <get_fat>
 800adc0:	9901      	ldr	r1, [sp, #4]
 800adc2:	4604      	mov	r4, r0
 800adc4:	b910      	cbnz	r0, 800adcc <remove_chain+0x28>
 800adc6:	2000      	movs	r0, #0
 800adc8:	b003      	add	sp, #12
 800adca:	bd30      	pop	{r4, r5, pc}
 800adcc:	2801      	cmp	r0, #1
 800adce:	d019      	beq.n	800ae04 <remove_chain+0x60>
 800add0:	1c60      	adds	r0, r4, #1
 800add2:	d019      	beq.n	800ae08 <remove_chain+0x64>
 800add4:	2200      	movs	r2, #0
 800add6:	4628      	mov	r0, r5
 800add8:	f7ff fb7d 	bl	800a4d6 <put_fat>
 800addc:	2800      	cmp	r0, #0
 800adde:	d1f3      	bne.n	800adc8 <remove_chain+0x24>
 800ade0:	f8d5 3210 	ldr.w	r3, [r5, #528]	; 0x210
 800ade4:	1c5a      	adds	r2, r3, #1
 800ade6:	d008      	beq.n	800adfa <remove_chain+0x56>
 800ade8:	3301      	adds	r3, #1
 800adea:	f8c5 3210 	str.w	r3, [r5, #528]	; 0x210
 800adee:	f895 3205 	ldrb.w	r3, [r5, #517]	; 0x205
 800adf2:	f043 0301 	orr.w	r3, r3, #1
 800adf6:	f885 3205 	strb.w	r3, [r5, #517]	; 0x205
 800adfa:	f8d5 3214 	ldr.w	r3, [r5, #532]	; 0x214
 800adfe:	429c      	cmp	r4, r3
 800ae00:	d3d9      	bcc.n	800adb6 <remove_chain+0x12>
 800ae02:	e7e0      	b.n	800adc6 <remove_chain+0x22>
 800ae04:	2002      	movs	r0, #2
 800ae06:	e7df      	b.n	800adc8 <remove_chain+0x24>
 800ae08:	2001      	movs	r0, #1
 800ae0a:	e7dd      	b.n	800adc8 <remove_chain+0x24>

0800ae0c <f_mount>:
 800ae0c:	b57f      	push	{r0, r1, r2, r3, r4, r5, r6, lr}
 800ae0e:	e9cd 1000 	strd	r1, r0, [sp]
 800ae12:	a803      	add	r0, sp, #12
 800ae14:	4615      	mov	r5, r2
 800ae16:	9103      	str	r1, [sp, #12]
 800ae18:	f7ff f893 	bl	8009f42 <get_ldnumber>
 800ae1c:	1e04      	subs	r4, r0, #0
 800ae1e:	db19      	blt.n	800ae54 <f_mount+0x48>
 800ae20:	4e0e      	ldr	r6, [pc, #56]	; (800ae5c <f_mount+0x50>)
 800ae22:	f856 0024 	ldr.w	r0, [r6, r4, lsl #2]
 800ae26:	b120      	cbz	r0, 800ae32 <f_mount+0x26>
 800ae28:	f7ff f858 	bl	8009edc <clear_lock>
 800ae2c:	2300      	movs	r3, #0
 800ae2e:	f880 3200 	strb.w	r3, [r0, #512]	; 0x200
 800ae32:	9801      	ldr	r0, [sp, #4]
 800ae34:	b110      	cbz	r0, 800ae3c <f_mount+0x30>
 800ae36:	2300      	movs	r3, #0
 800ae38:	f880 3200 	strb.w	r3, [r0, #512]	; 0x200
 800ae3c:	f846 0024 	str.w	r0, [r6, r4, lsl #2]
 800ae40:	b130      	cbz	r0, 800ae50 <f_mount+0x44>
 800ae42:	2d01      	cmp	r5, #1
 800ae44:	d108      	bne.n	800ae58 <f_mount+0x4c>
 800ae46:	2200      	movs	r2, #0
 800ae48:	4669      	mov	r1, sp
 800ae4a:	a801      	add	r0, sp, #4
 800ae4c:	f7ff f91c 	bl	800a088 <find_volume>
 800ae50:	b004      	add	sp, #16
 800ae52:	bd70      	pop	{r4, r5, r6, pc}
 800ae54:	200b      	movs	r0, #11
 800ae56:	e7fb      	b.n	800ae50 <f_mount+0x44>
 800ae58:	2000      	movs	r0, #0
 800ae5a:	e7f9      	b.n	800ae50 <f_mount+0x44>
 800ae5c:	200098e8 	.word	0x200098e8

0800ae60 <f_open>:
 800ae60:	e92d 43f0 	stmdb	sp!, {r4, r5, r6, r7, r8, r9, lr}
 800ae64:	f5ad 7d11 	sub.w	sp, sp, #580	; 0x244
 800ae68:	4617      	mov	r7, r2
 800ae6a:	9101      	str	r1, [sp, #4]
 800ae6c:	4605      	mov	r5, r0
 800ae6e:	2800      	cmp	r0, #0
 800ae70:	f000 809f 	beq.w	800afb2 <f_open+0x152>
 800ae74:	2300      	movs	r3, #0
 800ae76:	f8c0 3200 	str.w	r3, [r0, #512]	; 0x200
 800ae7a:	f002 021e 	and.w	r2, r2, #30
 800ae7e:	a901      	add	r1, sp, #4
 800ae80:	a886      	add	r0, sp, #536	; 0x218
 800ae82:	f7ff f901 	bl	800a088 <find_volume>
 800ae86:	4606      	mov	r6, r0
 800ae88:	2800      	cmp	r0, #0
 800ae8a:	f040 8082 	bne.w	800af92 <f_open+0x132>
 800ae8e:	ab03      	add	r3, sp, #12
 800ae90:	938c      	str	r3, [sp, #560]	; 0x230
 800ae92:	9901      	ldr	r1, [sp, #4]
 800ae94:	4b57      	ldr	r3, [pc, #348]	; (800aff4 <f_open+0x194>)
 800ae96:	938e      	str	r3, [sp, #568]	; 0x238
 800ae98:	a806      	add	r0, sp, #24
 800ae9a:	f7ff fd1d 	bl	800a8d8 <follow_path>
 800ae9e:	f007 081f 	and.w	r8, r7, #31
 800aea2:	9c8b      	ldr	r4, [sp, #556]	; 0x22c
 800aea4:	b940      	cbnz	r0, 800aeb8 <f_open+0x58>
 800aea6:	b1d4      	cbz	r4, 800aede <f_open+0x7e>
 800aea8:	f018 0f1e 	tst.w	r8, #30
 800aeac:	bf14      	ite	ne
 800aeae:	2101      	movne	r1, #1
 800aeb0:	2100      	moveq	r1, #0
 800aeb2:	a806      	add	r0, sp, #24
 800aeb4:	f7fe ff78 	bl	8009da8 <chk_lock>
 800aeb8:	f017 0f1c 	tst.w	r7, #28
 800aebc:	d06e      	beq.n	800af9c <f_open+0x13c>
 800aebe:	b1a8      	cbz	r0, 800aeec <f_open+0x8c>
 800aec0:	2804      	cmp	r0, #4
 800aec2:	d10a      	bne.n	800aeda <f_open+0x7a>
 800aec4:	494c      	ldr	r1, [pc, #304]	; (800aff8 <f_open+0x198>)
 800aec6:	2300      	movs	r3, #0
 800aec8:	200c      	movs	r0, #12
 800aeca:	fb00 f203 	mul.w	r2, r0, r3
 800aece:	5852      	ldr	r2, [r2, r1]
 800aed0:	b93a      	cbnz	r2, 800aee2 <f_open+0x82>
 800aed2:	a806      	add	r0, sp, #24
 800aed4:	f7ff fe2a 	bl	800ab2c <dir_register>
 800aed8:	b188      	cbz	r0, 800aefe <f_open+0x9e>
 800aeda:	4606      	mov	r6, r0
 800aedc:	e059      	b.n	800af92 <f_open+0x132>
 800aede:	2006      	movs	r0, #6
 800aee0:	e7ea      	b.n	800aeb8 <f_open+0x58>
 800aee2:	3301      	adds	r3, #1
 800aee4:	2b1e      	cmp	r3, #30
 800aee6:	d1f0      	bne.n	800aeca <f_open+0x6a>
 800aee8:	2012      	movs	r0, #18
 800aeea:	e7f6      	b.n	800aeda <f_open+0x7a>
 800aeec:	7ae3      	ldrb	r3, [r4, #11]
 800aeee:	f013 0f11 	tst.w	r3, #17
 800aef2:	d15c      	bne.n	800afae <f_open+0x14e>
 800aef4:	0778      	lsls	r0, r7, #29
 800aef6:	d45e      	bmi.n	800afb6 <f_open+0x156>
 800aef8:	073b      	lsls	r3, r7, #28
 800aefa:	d534      	bpl.n	800af66 <f_open+0x106>
 800aefc:	e002      	b.n	800af04 <f_open+0xa4>
 800aefe:	9c8b      	ldr	r4, [sp, #556]	; 0x22c
 800af00:	f048 0808 	orr.w	r8, r8, #8
 800af04:	f7fd f8f0 	bl	80080e8 <get_fattime>
 800af08:	f3c0 2307 	ubfx	r3, r0, #8, #8
 800af0c:	2700      	movs	r7, #0
 800af0e:	73a0      	strb	r0, [r4, #14]
 800af10:	73e3      	strb	r3, [r4, #15]
 800af12:	0c03      	lsrs	r3, r0, #16
 800af14:	0e00      	lsrs	r0, r0, #24
 800af16:	72e7      	strb	r7, [r4, #11]
 800af18:	7727      	strb	r7, [r4, #28]
 800af1a:	7767      	strb	r7, [r4, #29]
 800af1c:	77a7      	strb	r7, [r4, #30]
 800af1e:	77e7      	strb	r7, [r4, #31]
 800af20:	7423      	strb	r3, [r4, #16]
 800af22:	7460      	strb	r0, [r4, #17]
 800af24:	9b86      	ldr	r3, [sp, #536]	; 0x218
 800af26:	4621      	mov	r1, r4
 800af28:	f893 0200 	ldrb.w	r0, [r3, #512]	; 0x200
 800af2c:	f7ff fa0c 	bl	800a348 <ld_clust.isra.0>
 800af30:	76a7      	strb	r7, [r4, #26]
 800af32:	76e7      	strb	r7, [r4, #27]
 800af34:	7527      	strb	r7, [r4, #20]
 800af36:	7567      	strb	r7, [r4, #21]
 800af38:	9b86      	ldr	r3, [sp, #536]	; 0x218
 800af3a:	2201      	movs	r2, #1
 800af3c:	f883 2204 	strb.w	r2, [r3, #516]	; 0x204
 800af40:	4607      	mov	r7, r0
 800af42:	b180      	cbz	r0, 800af66 <f_open+0x106>
 800af44:	4601      	mov	r1, r0
 800af46:	4618      	mov	r0, r3
 800af48:	f8d3 922c 	ldr.w	r9, [r3, #556]	; 0x22c
 800af4c:	f7ff ff2a 	bl	800ada4 <remove_chain>
 800af50:	2800      	cmp	r0, #0
 800af52:	d1c2      	bne.n	800aeda <f_open+0x7a>
 800af54:	9886      	ldr	r0, [sp, #536]	; 0x218
 800af56:	3f01      	subs	r7, #1
 800af58:	f8c0 720c 	str.w	r7, [r0, #524]	; 0x20c
 800af5c:	4649      	mov	r1, r9
 800af5e:	f7ff f850 	bl	800a002 <move_window>
 800af62:	2800      	cmp	r0, #0
 800af64:	d1b9      	bne.n	800aeda <f_open+0x7a>
 800af66:	9f86      	ldr	r7, [sp, #536]	; 0x218
 800af68:	f018 0f08 	tst.w	r8, #8
 800af6c:	f8d7 322c 	ldr.w	r3, [r7, #556]	; 0x22c
 800af70:	bf18      	it	ne
 800af72:	f048 0820 	orrne.w	r8, r8, #32
 800af76:	f018 0ffe 	tst.w	r8, #254	; 0xfe
 800af7a:	e9c5 3487 	strd	r3, r4, [r5, #540]	; 0x21c
 800af7e:	bf14      	ite	ne
 800af80:	2101      	movne	r1, #1
 800af82:	2100      	moveq	r1, #0
 800af84:	a806      	add	r0, sp, #24
 800af86:	f7fe ff41 	bl	8009e0c <inc_lock>
 800af8a:	f8c5 0228 	str.w	r0, [r5, #552]	; 0x228
 800af8e:	b9b0      	cbnz	r0, 800afbe <f_open+0x15e>
 800af90:	2602      	movs	r6, #2
 800af92:	4630      	mov	r0, r6
 800af94:	f50d 7d11 	add.w	sp, sp, #580	; 0x244
 800af98:	e8bd 83f0 	ldmia.w	sp!, {r4, r5, r6, r7, r8, r9, pc}
 800af9c:	2800      	cmp	r0, #0
 800af9e:	d19c      	bne.n	800aeda <f_open+0x7a>
 800afa0:	7ae3      	ldrb	r3, [r4, #11]
 800afa2:	06da      	lsls	r2, r3, #27
 800afa4:	d409      	bmi.n	800afba <f_open+0x15a>
 800afa6:	07b8      	lsls	r0, r7, #30
 800afa8:	d5dd      	bpl.n	800af66 <f_open+0x106>
 800afaa:	07da      	lsls	r2, r3, #31
 800afac:	d5db      	bpl.n	800af66 <f_open+0x106>
 800afae:	2607      	movs	r6, #7
 800afb0:	e7ef      	b.n	800af92 <f_open+0x132>
 800afb2:	2609      	movs	r6, #9
 800afb4:	e7ed      	b.n	800af92 <f_open+0x132>
 800afb6:	2608      	movs	r6, #8
 800afb8:	e7eb      	b.n	800af92 <f_open+0x132>
 800afba:	2604      	movs	r6, #4
 800afbc:	e7e9      	b.n	800af92 <f_open+0x132>
 800afbe:	f885 8206 	strb.w	r8, [r5, #518]	; 0x206
 800afc2:	f04f 0800 	mov.w	r8, #0
 800afc6:	f885 8207 	strb.w	r8, [r5, #519]	; 0x207
 800afca:	f897 0200 	ldrb.w	r0, [r7, #512]	; 0x200
 800afce:	4621      	mov	r1, r4
 800afd0:	f7ff f9ba 	bl	800a348 <ld_clust.isra.0>
 800afd4:	f8c5 0210 	str.w	r0, [r5, #528]	; 0x210
 800afd8:	69e3      	ldr	r3, [r4, #28]
 800afda:	f8c5 8218 	str.w	r8, [r5, #536]	; 0x218
 800afde:	e9c5 8382 	strd	r8, r3, [r5, #520]	; 0x208
 800afe2:	f8b7 3206 	ldrh.w	r3, [r7, #518]	; 0x206
 800afe6:	f8c5 8224 	str.w	r8, [r5, #548]	; 0x224
 800afea:	f8c5 7200 	str.w	r7, [r5, #512]	; 0x200
 800afee:	f8a5 3204 	strh.w	r3, [r5, #516]	; 0x204
 800aff2:	e7ce      	b.n	800af92 <f_open+0x132>
 800aff4:	20009a56 	.word	0x20009a56
 800aff8:	200098ec 	.word	0x200098ec

0800affc <f_read>:
 800affc:	e92d 4ff7 	stmdb	sp!, {r0, r1, r2, r4, r5, r6, r7, r8, r9, sl, fp, lr}
 800b000:	469a      	mov	sl, r3
 800b002:	2300      	movs	r3, #0
 800b004:	f8ca 3000 	str.w	r3, [sl]
 800b008:	4604      	mov	r4, r0
 800b00a:	4689      	mov	r9, r1
 800b00c:	4617      	mov	r7, r2
 800b00e:	f7fe ffb0 	bl	8009f72 <validate>
 800b012:	4605      	mov	r5, r0
 800b014:	bb50      	cbnz	r0, 800b06c <f_read+0x70>
 800b016:	f894 5207 	ldrb.w	r5, [r4, #519]	; 0x207
 800b01a:	bb3d      	cbnz	r5, 800b06c <f_read+0x70>
 800b01c:	f894 3206 	ldrb.w	r3, [r4, #518]	; 0x206
 800b020:	f013 0301 	ands.w	r3, r3, #1
 800b024:	9300      	str	r3, [sp, #0]
 800b026:	f000 80ae 	beq.w	800b186 <f_read+0x18a>
 800b02a:	e9d4 3682 	ldrd	r3, r6, [r4, #520]	; 0x208
 800b02e:	1af6      	subs	r6, r6, r3
 800b030:	42be      	cmp	r6, r7
 800b032:	bf28      	it	cs
 800b034:	463e      	movcs	r6, r7
 800b036:	b1ce      	cbz	r6, 800b06c <f_read+0x70>
 800b038:	f8d4 1208 	ldr.w	r1, [r4, #520]	; 0x208
 800b03c:	f3c1 0308 	ubfx	r3, r1, #0, #9
 800b040:	2b00      	cmp	r3, #0
 800b042:	f040 8091 	bne.w	800b168 <f_read+0x16c>
 800b046:	f8d4 0200 	ldr.w	r0, [r4, #512]	; 0x200
 800b04a:	f890 8202 	ldrb.w	r8, [r0, #514]	; 0x202
 800b04e:	f108 38ff 	add.w	r8, r8, #4294967295
 800b052:	ea08 2851 	and.w	r8, r8, r1, lsr #9
 800b056:	f018 08ff 	ands.w	r8, r8, #255	; 0xff
 800b05a:	d120      	bne.n	800b09e <f_read+0xa2>
 800b05c:	b951      	cbnz	r1, 800b074 <f_read+0x78>
 800b05e:	f8d4 0210 	ldr.w	r0, [r4, #528]	; 0x210
 800b062:	2801      	cmp	r0, #1
 800b064:	d812      	bhi.n	800b08c <f_read+0x90>
 800b066:	2502      	movs	r5, #2
 800b068:	f884 5207 	strb.w	r5, [r4, #519]	; 0x207
 800b06c:	4628      	mov	r0, r5
 800b06e:	b003      	add	sp, #12
 800b070:	e8bd 8ff0 	ldmia.w	sp!, {r4, r5, r6, r7, r8, r9, sl, fp, pc}
 800b074:	f8d4 3224 	ldr.w	r3, [r4, #548]	; 0x224
 800b078:	b11b      	cbz	r3, 800b082 <f_read+0x86>
 800b07a:	4620      	mov	r0, r4
 800b07c:	f7fe ff3e 	bl	8009efc <clmt_clust>
 800b080:	e7ef      	b.n	800b062 <f_read+0x66>
 800b082:	f8d4 1214 	ldr.w	r1, [r4, #532]	; 0x214
 800b086:	f7ff f975 	bl	800a374 <get_fat>
 800b08a:	e7ea      	b.n	800b062 <f_read+0x66>
 800b08c:	1c42      	adds	r2, r0, #1
 800b08e:	d104      	bne.n	800b09a <f_read+0x9e>
 800b090:	2301      	movs	r3, #1
 800b092:	9d00      	ldr	r5, [sp, #0]
 800b094:	f884 3207 	strb.w	r3, [r4, #519]	; 0x207
 800b098:	e7e8      	b.n	800b06c <f_read+0x70>
 800b09a:	f8c4 0214 	str.w	r0, [r4, #532]	; 0x214
 800b09e:	f8d4 b200 	ldr.w	fp, [r4, #512]	; 0x200
 800b0a2:	f8d4 1214 	ldr.w	r1, [r4, #532]	; 0x214
 800b0a6:	4658      	mov	r0, fp
 800b0a8:	f7ff f956 	bl	800a358 <clust2sect>
 800b0ac:	2800      	cmp	r0, #0
 800b0ae:	d0da      	beq.n	800b066 <f_read+0x6a>
 800b0b0:	f5b6 7f00 	cmp.w	r6, #512	; 0x200
 800b0b4:	eb00 0708 	add.w	r7, r0, r8
 800b0b8:	d333      	bcc.n	800b122 <f_read+0x126>
 800b0ba:	f89b 2202 	ldrb.w	r2, [fp, #514]	; 0x202
 800b0be:	f89b 0201 	ldrb.w	r0, [fp, #513]	; 0x201
 800b0c2:	eb08 2156 	add.w	r1, r8, r6, lsr #9
 800b0c6:	4291      	cmp	r1, r2
 800b0c8:	ea4f 2356 	mov.w	r3, r6, lsr #9
 800b0cc:	4649      	mov	r1, r9
 800b0ce:	bf88      	it	hi
 800b0d0:	eba2 0308 	subhi.w	r3, r2, r8
 800b0d4:	463a      	mov	r2, r7
 800b0d6:	9301      	str	r3, [sp, #4]
 800b0d8:	f7fe fe2a 	bl	8009d30 <disk_read>
 800b0dc:	2800      	cmp	r0, #0
 800b0de:	d1d7      	bne.n	800b090 <f_read+0x94>
 800b0e0:	f894 2206 	ldrb.w	r2, [r4, #518]	; 0x206
 800b0e4:	9b01      	ldr	r3, [sp, #4]
 800b0e6:	f012 0f40 	tst.w	r2, #64	; 0x40
 800b0ea:	d00c      	beq.n	800b106 <f_read+0x10a>
 800b0ec:	f8d4 0218 	ldr.w	r0, [r4, #536]	; 0x218
 800b0f0:	1bc0      	subs	r0, r0, r7
 800b0f2:	4283      	cmp	r3, r0
 800b0f4:	d907      	bls.n	800b106 <f_read+0x10a>
 800b0f6:	f44f 7200 	mov.w	r2, #512	; 0x200
 800b0fa:	4621      	mov	r1, r4
 800b0fc:	eb09 2040 	add.w	r0, r9, r0, lsl #9
 800b100:	f7fe fe40 	bl	8009d84 <mem_cpy>
 800b104:	9b01      	ldr	r3, [sp, #4]
 800b106:	025f      	lsls	r7, r3, #9
 800b108:	f8d4 3208 	ldr.w	r3, [r4, #520]	; 0x208
 800b10c:	443b      	add	r3, r7
 800b10e:	f8c4 3208 	str.w	r3, [r4, #520]	; 0x208
 800b112:	f8da 3000 	ldr.w	r3, [sl]
 800b116:	443b      	add	r3, r7
 800b118:	44b9      	add	r9, r7
 800b11a:	f8ca 3000 	str.w	r3, [sl]
 800b11e:	1bf6      	subs	r6, r6, r7
 800b120:	e789      	b.n	800b036 <f_read+0x3a>
 800b122:	f8d4 2218 	ldr.w	r2, [r4, #536]	; 0x218
 800b126:	4297      	cmp	r7, r2
 800b128:	d01c      	beq.n	800b164 <f_read+0x168>
 800b12a:	f894 3206 	ldrb.w	r3, [r4, #518]	; 0x206
 800b12e:	f89b 0201 	ldrb.w	r0, [fp, #513]	; 0x201
 800b132:	065b      	lsls	r3, r3, #25
 800b134:	d50b      	bpl.n	800b14e <f_read+0x152>
 800b136:	2301      	movs	r3, #1
 800b138:	4621      	mov	r1, r4
 800b13a:	f7fe fe07 	bl	8009d4c <disk_write>
 800b13e:	2800      	cmp	r0, #0
 800b140:	d1a6      	bne.n	800b090 <f_read+0x94>
 800b142:	f894 3206 	ldrb.w	r3, [r4, #518]	; 0x206
 800b146:	f023 0340 	bic.w	r3, r3, #64	; 0x40
 800b14a:	f884 3206 	strb.w	r3, [r4, #518]	; 0x206
 800b14e:	f8d4 0200 	ldr.w	r0, [r4, #512]	; 0x200
 800b152:	2301      	movs	r3, #1
 800b154:	f890 0201 	ldrb.w	r0, [r0, #513]	; 0x201
 800b158:	463a      	mov	r2, r7
 800b15a:	4621      	mov	r1, r4
 800b15c:	f7fe fde8 	bl	8009d30 <disk_read>
 800b160:	2800      	cmp	r0, #0
 800b162:	d195      	bne.n	800b090 <f_read+0x94>
 800b164:	f8c4 7218 	str.w	r7, [r4, #536]	; 0x218
 800b168:	f8d4 1208 	ldr.w	r1, [r4, #520]	; 0x208
 800b16c:	f3c1 0108 	ubfx	r1, r1, #0, #9
 800b170:	f5c1 7700 	rsb	r7, r1, #512	; 0x200
 800b174:	42b7      	cmp	r7, r6
 800b176:	bf28      	it	cs
 800b178:	4637      	movcs	r7, r6
 800b17a:	463a      	mov	r2, r7
 800b17c:	4421      	add	r1, r4
 800b17e:	4648      	mov	r0, r9
 800b180:	f7fe fe00 	bl	8009d84 <mem_cpy>
 800b184:	e7c0      	b.n	800b108 <f_read+0x10c>
 800b186:	2507      	movs	r5, #7
 800b188:	e770      	b.n	800b06c <f_read+0x70>

0800b18a <f_sync>:
 800b18a:	b570      	push	{r4, r5, r6, lr}
 800b18c:	4604      	mov	r4, r0
 800b18e:	f7fe fef0 	bl	8009f72 <validate>
 800b192:	2800      	cmp	r0, #0
 800b194:	d159      	bne.n	800b24a <f_sync+0xc0>
 800b196:	f894 3206 	ldrb.w	r3, [r4, #518]	; 0x206
 800b19a:	f013 0020 	ands.w	r0, r3, #32
 800b19e:	d054      	beq.n	800b24a <f_sync+0xc0>
 800b1a0:	065b      	lsls	r3, r3, #25
 800b1a2:	f8d4 0200 	ldr.w	r0, [r4, #512]	; 0x200
 800b1a6:	d50f      	bpl.n	800b1c8 <f_sync+0x3e>
 800b1a8:	f8d4 2218 	ldr.w	r2, [r4, #536]	; 0x218
 800b1ac:	f890 0201 	ldrb.w	r0, [r0, #513]	; 0x201
 800b1b0:	2301      	movs	r3, #1
 800b1b2:	4621      	mov	r1, r4
 800b1b4:	f7fe fdca 	bl	8009d4c <disk_write>
 800b1b8:	2800      	cmp	r0, #0
 800b1ba:	d145      	bne.n	800b248 <f_sync+0xbe>
 800b1bc:	f894 3206 	ldrb.w	r3, [r4, #518]	; 0x206
 800b1c0:	f023 0340 	bic.w	r3, r3, #64	; 0x40
 800b1c4:	f884 3206 	strb.w	r3, [r4, #518]	; 0x206
 800b1c8:	f8d4 121c 	ldr.w	r1, [r4, #540]	; 0x21c
 800b1cc:	f8d4 0200 	ldr.w	r0, [r4, #512]	; 0x200
 800b1d0:	f7fe ff17 	bl	800a002 <move_window>
 800b1d4:	4606      	mov	r6, r0
 800b1d6:	bbc0      	cbnz	r0, 800b24a <f_sync+0xc0>
 800b1d8:	f8d4 5220 	ldr.w	r5, [r4, #544]	; 0x220
 800b1dc:	7aeb      	ldrb	r3, [r5, #11]
 800b1de:	f043 0320 	orr.w	r3, r3, #32
 800b1e2:	72eb      	strb	r3, [r5, #11]
 800b1e4:	f8d4 320c 	ldr.w	r3, [r4, #524]	; 0x20c
 800b1e8:	772b      	strb	r3, [r5, #28]
 800b1ea:	f8b4 320c 	ldrh.w	r3, [r4, #524]	; 0x20c
 800b1ee:	0a1b      	lsrs	r3, r3, #8
 800b1f0:	776b      	strb	r3, [r5, #29]
 800b1f2:	f8b4 320e 	ldrh.w	r3, [r4, #526]	; 0x20e
 800b1f6:	77ab      	strb	r3, [r5, #30]
 800b1f8:	f894 320f 	ldrb.w	r3, [r4, #527]	; 0x20f
 800b1fc:	77eb      	strb	r3, [r5, #31]
 800b1fe:	f8d4 3210 	ldr.w	r3, [r4, #528]	; 0x210
 800b202:	76ab      	strb	r3, [r5, #26]
 800b204:	f3c3 2207 	ubfx	r2, r3, #8, #8
 800b208:	0c1b      	lsrs	r3, r3, #16
 800b20a:	752b      	strb	r3, [r5, #20]
 800b20c:	0a1b      	lsrs	r3, r3, #8
 800b20e:	756b      	strb	r3, [r5, #21]
 800b210:	76ea      	strb	r2, [r5, #27]
 800b212:	f7fc ff69 	bl	80080e8 <get_fattime>
 800b216:	f3c0 2307 	ubfx	r3, r0, #8, #8
 800b21a:	75eb      	strb	r3, [r5, #23]
 800b21c:	0c03      	lsrs	r3, r0, #16
 800b21e:	762b      	strb	r3, [r5, #24]
 800b220:	0e03      	lsrs	r3, r0, #24
 800b222:	75a8      	strb	r0, [r5, #22]
 800b224:	766b      	strb	r3, [r5, #25]
 800b226:	74ae      	strb	r6, [r5, #18]
 800b228:	74ee      	strb	r6, [r5, #19]
 800b22a:	f894 3206 	ldrb.w	r3, [r4, #518]	; 0x206
 800b22e:	f8d4 0200 	ldr.w	r0, [r4, #512]	; 0x200
 800b232:	f023 0320 	bic.w	r3, r3, #32
 800b236:	f884 3206 	strb.w	r3, [r4, #518]	; 0x206
 800b23a:	2301      	movs	r3, #1
 800b23c:	f880 3204 	strb.w	r3, [r0, #516]	; 0x204
 800b240:	e8bd 4070 	ldmia.w	sp!, {r4, r5, r6, lr}
 800b244:	f7ff b83e 	b.w	800a2c4 <sync_fs>
 800b248:	2001      	movs	r0, #1
 800b24a:	bd70      	pop	{r4, r5, r6, pc}

0800b24c <f_close>:
 800b24c:	b510      	push	{r4, lr}
 800b24e:	4604      	mov	r4, r0
 800b250:	f7ff ff9b 	bl	800b18a <f_sync>
 800b254:	b950      	cbnz	r0, 800b26c <f_close+0x20>
 800b256:	4620      	mov	r0, r4
 800b258:	f7fe fe8b 	bl	8009f72 <validate>
 800b25c:	b930      	cbnz	r0, 800b26c <f_close+0x20>
 800b25e:	f8d4 0228 	ldr.w	r0, [r4, #552]	; 0x228
 800b262:	f7fe fe1b 	bl	8009e9c <dec_lock>
 800b266:	b908      	cbnz	r0, 800b26c <f_close+0x20>
 800b268:	f8c4 0200 	str.w	r0, [r4, #512]	; 0x200
 800b26c:	bd10      	pop	{r4, pc}

0800b26e <f_lseek>:
 800b26e:	e92d 4ff8 	stmdb	sp!, {r3, r4, r5, r6, r7, r8, r9, sl, fp, lr}
 800b272:	4604      	mov	r4, r0
 800b274:	460e      	mov	r6, r1
 800b276:	f7fe fe7c 	bl	8009f72 <validate>
 800b27a:	4605      	mov	r5, r0
 800b27c:	bb10      	cbnz	r0, 800b2c4 <f_lseek+0x56>
 800b27e:	f894 5207 	ldrb.w	r5, [r4, #519]	; 0x207
 800b282:	b9fd      	cbnz	r5, 800b2c4 <f_lseek+0x56>
 800b284:	f8d4 3224 	ldr.w	r3, [r4, #548]	; 0x224
 800b288:	2b00      	cmp	r3, #0
 800b28a:	f000 8089 	beq.w	800b3a0 <f_lseek+0x132>
 800b28e:	1c72      	adds	r2, r6, #1
 800b290:	d13d      	bne.n	800b30e <f_lseek+0xa0>
 800b292:	461e      	mov	r6, r3
 800b294:	f8d4 8210 	ldr.w	r8, [r4, #528]	; 0x210
 800b298:	f856 bb04 	ldr.w	fp, [r6], #4
 800b29c:	2702      	movs	r7, #2
 800b29e:	f1b8 0f00 	cmp.w	r8, #0
 800b2a2:	d02b      	beq.n	800b2fc <f_lseek+0x8e>
 800b2a4:	4640      	mov	r0, r8
 800b2a6:	f04f 0a00 	mov.w	sl, #0
 800b2aa:	4601      	mov	r1, r0
 800b2ac:	4681      	mov	r9, r0
 800b2ae:	f8d4 0200 	ldr.w	r0, [r4, #512]	; 0x200
 800b2b2:	f7ff f85f 	bl	800a374 <get_fat>
 800b2b6:	2801      	cmp	r0, #1
 800b2b8:	f10a 0a01 	add.w	sl, sl, #1
 800b2bc:	d807      	bhi.n	800b2ce <f_lseek+0x60>
 800b2be:	2502      	movs	r5, #2
 800b2c0:	f884 5207 	strb.w	r5, [r4, #519]	; 0x207
 800b2c4:	4628      	mov	r0, r5
 800b2c6:	e8bd 8ff8 	ldmia.w	sp!, {r3, r4, r5, r6, r7, r8, r9, sl, fp, pc}
 800b2ca:	4680      	mov	r8, r0
 800b2cc:	e7ea      	b.n	800b2a4 <f_lseek+0x36>
 800b2ce:	1c43      	adds	r3, r0, #1
 800b2d0:	d101      	bne.n	800b2d6 <f_lseek+0x68>
 800b2d2:	2501      	movs	r5, #1
 800b2d4:	e7f4      	b.n	800b2c0 <f_lseek+0x52>
 800b2d6:	f109 0901 	add.w	r9, r9, #1
 800b2da:	4581      	cmp	r9, r0
 800b2dc:	d0e5      	beq.n	800b2aa <f_lseek+0x3c>
 800b2de:	3702      	adds	r7, #2
 800b2e0:	45bb      	cmp	fp, r7
 800b2e2:	bf21      	itttt	cs
 800b2e4:	4633      	movcs	r3, r6
 800b2e6:	f843 ab08 	strcs.w	sl, [r3], #8
 800b2ea:	f8c6 8004 	strcs.w	r8, [r6, #4]
 800b2ee:	461e      	movcs	r6, r3
 800b2f0:	f8d4 3200 	ldr.w	r3, [r4, #512]	; 0x200
 800b2f4:	f8d3 3214 	ldr.w	r3, [r3, #532]	; 0x214
 800b2f8:	4283      	cmp	r3, r0
 800b2fa:	d8e6      	bhi.n	800b2ca <f_lseek+0x5c>
 800b2fc:	f8d4 3224 	ldr.w	r3, [r4, #548]	; 0x224
 800b300:	455f      	cmp	r7, fp
 800b302:	601f      	str	r7, [r3, #0]
 800b304:	f200 80fb 	bhi.w	800b4fe <f_lseek+0x290>
 800b308:	2300      	movs	r3, #0
 800b30a:	6033      	str	r3, [r6, #0]
 800b30c:	e7da      	b.n	800b2c4 <f_lseek+0x56>
 800b30e:	f8d4 720c 	ldr.w	r7, [r4, #524]	; 0x20c
 800b312:	42b7      	cmp	r7, r6
 800b314:	bf28      	it	cs
 800b316:	4637      	movcs	r7, r6
 800b318:	f8c4 7208 	str.w	r7, [r4, #520]	; 0x208
 800b31c:	2f00      	cmp	r7, #0
 800b31e:	d0d1      	beq.n	800b2c4 <f_lseek+0x56>
 800b320:	f107 38ff 	add.w	r8, r7, #4294967295
 800b324:	4641      	mov	r1, r8
 800b326:	4620      	mov	r0, r4
 800b328:	f7fe fde8 	bl	8009efc <clmt_clust>
 800b32c:	f8d4 2200 	ldr.w	r2, [r4, #512]	; 0x200
 800b330:	f8c4 0214 	str.w	r0, [r4, #532]	; 0x214
 800b334:	4601      	mov	r1, r0
 800b336:	4610      	mov	r0, r2
 800b338:	f7ff f80e 	bl	800a358 <clust2sect>
 800b33c:	2800      	cmp	r0, #0
 800b33e:	d0be      	beq.n	800b2be <f_lseek+0x50>
 800b340:	f3c7 0708 	ubfx	r7, r7, #0, #9
 800b344:	f892 6202 	ldrb.w	r6, [r2, #514]	; 0x202
 800b348:	2f00      	cmp	r7, #0
 800b34a:	d0bb      	beq.n	800b2c4 <f_lseek+0x56>
 800b34c:	3e01      	subs	r6, #1
 800b34e:	f8d4 1218 	ldr.w	r1, [r4, #536]	; 0x218
 800b352:	ea06 2658 	and.w	r6, r6, r8, lsr #9
 800b356:	4406      	add	r6, r0
 800b358:	42b1      	cmp	r1, r6
 800b35a:	d0b3      	beq.n	800b2c4 <f_lseek+0x56>
 800b35c:	f894 3206 	ldrb.w	r3, [r4, #518]	; 0x206
 800b360:	f892 0201 	ldrb.w	r0, [r2, #513]	; 0x201
 800b364:	065d      	lsls	r5, r3, #25
 800b366:	d50c      	bpl.n	800b382 <f_lseek+0x114>
 800b368:	460a      	mov	r2, r1
 800b36a:	2301      	movs	r3, #1
 800b36c:	4621      	mov	r1, r4
 800b36e:	f7fe fced 	bl	8009d4c <disk_write>
 800b372:	2800      	cmp	r0, #0
 800b374:	d1ad      	bne.n	800b2d2 <f_lseek+0x64>
 800b376:	f894 3206 	ldrb.w	r3, [r4, #518]	; 0x206
 800b37a:	f023 0340 	bic.w	r3, r3, #64	; 0x40
 800b37e:	f884 3206 	strb.w	r3, [r4, #518]	; 0x206
 800b382:	f8d4 0200 	ldr.w	r0, [r4, #512]	; 0x200
 800b386:	2301      	movs	r3, #1
 800b388:	f890 0201 	ldrb.w	r0, [r0, #513]	; 0x201
 800b38c:	4632      	mov	r2, r6
 800b38e:	4621      	mov	r1, r4
 800b390:	f7fe fcce 	bl	8009d30 <disk_read>
 800b394:	4605      	mov	r5, r0
 800b396:	2800      	cmp	r0, #0
 800b398:	d19b      	bne.n	800b2d2 <f_lseek+0x64>
 800b39a:	f8c4 6218 	str.w	r6, [r4, #536]	; 0x218
 800b39e:	e791      	b.n	800b2c4 <f_lseek+0x56>
 800b3a0:	f8d4 320c 	ldr.w	r3, [r4, #524]	; 0x20c
 800b3a4:	42b3      	cmp	r3, r6
 800b3a6:	d205      	bcs.n	800b3b4 <f_lseek+0x146>
 800b3a8:	f894 2206 	ldrb.w	r2, [r4, #518]	; 0x206
 800b3ac:	f012 0f02 	tst.w	r2, #2
 800b3b0:	bf08      	it	eq
 800b3b2:	461e      	moveq	r6, r3
 800b3b4:	2200      	movs	r2, #0
 800b3b6:	f8d4 3208 	ldr.w	r3, [r4, #520]	; 0x208
 800b3ba:	f8c4 2208 	str.w	r2, [r4, #520]	; 0x208
 800b3be:	b96e      	cbnz	r6, 800b3dc <f_lseek+0x16e>
 800b3c0:	e9d4 3282 	ldrd	r3, r2, [r4, #520]	; 0x208
 800b3c4:	4293      	cmp	r3, r2
 800b3c6:	f67f af7d 	bls.w	800b2c4 <f_lseek+0x56>
 800b3ca:	f8c4 320c 	str.w	r3, [r4, #524]	; 0x20c
 800b3ce:	f894 3206 	ldrb.w	r3, [r4, #518]	; 0x206
 800b3d2:	f043 0320 	orr.w	r3, r3, #32
 800b3d6:	f884 3206 	strb.w	r3, [r4, #518]	; 0x206
 800b3da:	e773      	b.n	800b2c4 <f_lseek+0x56>
 800b3dc:	f8d4 0200 	ldr.w	r0, [r4, #512]	; 0x200
 800b3e0:	f890 7202 	ldrb.w	r7, [r0, #514]	; 0x202
 800b3e4:	027f      	lsls	r7, r7, #9
 800b3e6:	2b00      	cmp	r3, #0
 800b3e8:	d03f      	beq.n	800b46a <f_lseek+0x1fc>
 800b3ea:	3b01      	subs	r3, #1
 800b3ec:	1e72      	subs	r2, r6, #1
 800b3ee:	fbb3 f1f7 	udiv	r1, r3, r7
 800b3f2:	fbb2 f2f7 	udiv	r2, r2, r7
 800b3f6:	428a      	cmp	r2, r1
 800b3f8:	d337      	bcc.n	800b46a <f_lseek+0x1fc>
 800b3fa:	427a      	negs	r2, r7
 800b3fc:	4013      	ands	r3, r2
 800b3fe:	f8d4 1214 	ldr.w	r1, [r4, #532]	; 0x214
 800b402:	f8c4 3208 	str.w	r3, [r4, #520]	; 0x208
 800b406:	1af6      	subs	r6, r6, r3
 800b408:	2900      	cmp	r1, #0
 800b40a:	d163      	bne.n	800b4d4 <f_lseek+0x266>
 800b40c:	2600      	movs	r6, #0
 800b40e:	f8d4 3208 	ldr.w	r3, [r4, #520]	; 0x208
 800b412:	f3c3 0308 	ubfx	r3, r3, #0, #9
 800b416:	2b00      	cmp	r3, #0
 800b418:	d0d2      	beq.n	800b3c0 <f_lseek+0x152>
 800b41a:	f8d4 2218 	ldr.w	r2, [r4, #536]	; 0x218
 800b41e:	42b2      	cmp	r2, r6
 800b420:	d0ce      	beq.n	800b3c0 <f_lseek+0x152>
 800b422:	f8d4 3200 	ldr.w	r3, [r4, #512]	; 0x200
 800b426:	f893 0201 	ldrb.w	r0, [r3, #513]	; 0x201
 800b42a:	f894 3206 	ldrb.w	r3, [r4, #518]	; 0x206
 800b42e:	065b      	lsls	r3, r3, #25
 800b430:	d50c      	bpl.n	800b44c <f_lseek+0x1de>
 800b432:	2301      	movs	r3, #1
 800b434:	4621      	mov	r1, r4
 800b436:	f7fe fc89 	bl	8009d4c <disk_write>
 800b43a:	2800      	cmp	r0, #0
 800b43c:	f47f af49 	bne.w	800b2d2 <f_lseek+0x64>
 800b440:	f894 3206 	ldrb.w	r3, [r4, #518]	; 0x206
 800b444:	f023 0340 	bic.w	r3, r3, #64	; 0x40
 800b448:	f884 3206 	strb.w	r3, [r4, #518]	; 0x206
 800b44c:	f8d4 0200 	ldr.w	r0, [r4, #512]	; 0x200
 800b450:	2301      	movs	r3, #1
 800b452:	f890 0201 	ldrb.w	r0, [r0, #513]	; 0x201
 800b456:	4632      	mov	r2, r6
 800b458:	4621      	mov	r1, r4
 800b45a:	f7fe fc69 	bl	8009d30 <disk_read>
 800b45e:	2800      	cmp	r0, #0
 800b460:	f47f af37 	bne.w	800b2d2 <f_lseek+0x64>
 800b464:	f8c4 6218 	str.w	r6, [r4, #536]	; 0x218
 800b468:	e7aa      	b.n	800b3c0 <f_lseek+0x152>
 800b46a:	f8d4 1210 	ldr.w	r1, [r4, #528]	; 0x210
 800b46e:	b951      	cbnz	r1, 800b486 <f_lseek+0x218>
 800b470:	f7ff f8ab 	bl	800a5ca <create_chain>
 800b474:	2801      	cmp	r0, #1
 800b476:	4601      	mov	r1, r0
 800b478:	f43f af21 	beq.w	800b2be <f_lseek+0x50>
 800b47c:	1c42      	adds	r2, r0, #1
 800b47e:	f43f af28 	beq.w	800b2d2 <f_lseek+0x64>
 800b482:	f8c4 0210 	str.w	r0, [r4, #528]	; 0x210
 800b486:	f8c4 1214 	str.w	r1, [r4, #532]	; 0x214
 800b48a:	e7bd      	b.n	800b408 <f_lseek+0x19a>
 800b48c:	f894 3206 	ldrb.w	r3, [r4, #518]	; 0x206
 800b490:	f8d4 0200 	ldr.w	r0, [r4, #512]	; 0x200
 800b494:	079b      	lsls	r3, r3, #30
 800b496:	d505      	bpl.n	800b4a4 <f_lseek+0x236>
 800b498:	f7ff f897 	bl	800a5ca <create_chain>
 800b49c:	4601      	mov	r1, r0
 800b49e:	b920      	cbnz	r0, 800b4aa <f_lseek+0x23c>
 800b4a0:	463e      	mov	r6, r7
 800b4a2:	e019      	b.n	800b4d8 <f_lseek+0x26a>
 800b4a4:	f7fe ff66 	bl	800a374 <get_fat>
 800b4a8:	4601      	mov	r1, r0
 800b4aa:	1c4a      	adds	r2, r1, #1
 800b4ac:	f43f af11 	beq.w	800b2d2 <f_lseek+0x64>
 800b4b0:	2901      	cmp	r1, #1
 800b4b2:	f67f af04 	bls.w	800b2be <f_lseek+0x50>
 800b4b6:	f8d4 3200 	ldr.w	r3, [r4, #512]	; 0x200
 800b4ba:	f8d3 3214 	ldr.w	r3, [r3, #532]	; 0x214
 800b4be:	428b      	cmp	r3, r1
 800b4c0:	f67f aefd 	bls.w	800b2be <f_lseek+0x50>
 800b4c4:	f8d4 3208 	ldr.w	r3, [r4, #520]	; 0x208
 800b4c8:	f8c4 1214 	str.w	r1, [r4, #532]	; 0x214
 800b4cc:	443b      	add	r3, r7
 800b4ce:	f8c4 3208 	str.w	r3, [r4, #520]	; 0x208
 800b4d2:	1bf6      	subs	r6, r6, r7
 800b4d4:	42be      	cmp	r6, r7
 800b4d6:	d8d9      	bhi.n	800b48c <f_lseek+0x21e>
 800b4d8:	f8d4 3208 	ldr.w	r3, [r4, #520]	; 0x208
 800b4dc:	4433      	add	r3, r6
 800b4de:	f8c4 3208 	str.w	r3, [r4, #520]	; 0x208
 800b4e2:	f3c6 0308 	ubfx	r3, r6, #0, #9
 800b4e6:	2b00      	cmp	r3, #0
 800b4e8:	d090      	beq.n	800b40c <f_lseek+0x19e>
 800b4ea:	f8d4 0200 	ldr.w	r0, [r4, #512]	; 0x200
 800b4ee:	f7fe ff33 	bl	800a358 <clust2sect>
 800b4f2:	2800      	cmp	r0, #0
 800b4f4:	f43f aee3 	beq.w	800b2be <f_lseek+0x50>
 800b4f8:	eb00 2656 	add.w	r6, r0, r6, lsr #9
 800b4fc:	e787      	b.n	800b40e <f_lseek+0x1a0>
 800b4fe:	2511      	movs	r5, #17
 800b500:	e6e0      	b.n	800b2c4 <f_lseek+0x56>
	...

0800b504 <FATFS_LinkDriverEx>:
 800b504:	b530      	push	{r4, r5, lr}
 800b506:	4b0f      	ldr	r3, [pc, #60]	; (800b544 <FATFS_LinkDriverEx+0x40>)
 800b508:	7a5c      	ldrb	r4, [r3, #9]
 800b50a:	2c01      	cmp	r4, #1
 800b50c:	d817      	bhi.n	800b53e <FATFS_LinkDriverEx+0x3a>
 800b50e:	7a5d      	ldrb	r5, [r3, #9]
 800b510:	b2ed      	uxtb	r5, r5
 800b512:	2400      	movs	r4, #0
 800b514:	555c      	strb	r4, [r3, r5]
 800b516:	7a5d      	ldrb	r5, [r3, #9]
 800b518:	eb03 0585 	add.w	r5, r3, r5, lsl #2
 800b51c:	6068      	str	r0, [r5, #4]
 800b51e:	7a58      	ldrb	r0, [r3, #9]
 800b520:	4418      	add	r0, r3
 800b522:	7202      	strb	r2, [r0, #8]
 800b524:	7a5a      	ldrb	r2, [r3, #9]
 800b526:	1c50      	adds	r0, r2, #1
 800b528:	b2c0      	uxtb	r0, r0
 800b52a:	7258      	strb	r0, [r3, #9]
 800b52c:	233a      	movs	r3, #58	; 0x3a
 800b52e:	3230      	adds	r2, #48	; 0x30
 800b530:	704b      	strb	r3, [r1, #1]
 800b532:	232f      	movs	r3, #47	; 0x2f
 800b534:	700a      	strb	r2, [r1, #0]
 800b536:	708b      	strb	r3, [r1, #2]
 800b538:	70cc      	strb	r4, [r1, #3]
 800b53a:	4620      	mov	r0, r4
 800b53c:	bd30      	pop	{r4, r5, pc}
 800b53e:	2001      	movs	r0, #1
 800b540:	e7fc      	b.n	800b53c <FATFS_LinkDriverEx+0x38>
 800b542:	bf00      	nop
 800b544:	20009c58 	.word	0x20009c58

0800b548 <FATFS_LinkDriver>:
 800b548:	2200      	movs	r2, #0
 800b54a:	f7ff bfdb 	b.w	800b504 <FATFS_LinkDriverEx>
	...

0800b550 <ff_convert>:
 800b550:	287f      	cmp	r0, #127	; 0x7f
 800b552:	b510      	push	{r4, lr}
 800b554:	d906      	bls.n	800b564 <ff_convert+0x14>
 800b556:	b131      	cbz	r1, 800b566 <ff_convert+0x16>
 800b558:	28ff      	cmp	r0, #255	; 0xff
 800b55a:	d811      	bhi.n	800b580 <ff_convert+0x30>
 800b55c:	4b09      	ldr	r3, [pc, #36]	; (800b584 <ff_convert+0x34>)
 800b55e:	3880      	subs	r0, #128	; 0x80
 800b560:	f833 0010 	ldrh.w	r0, [r3, r0, lsl #1]
 800b564:	bd10      	pop	{r4, pc}
 800b566:	4a07      	ldr	r2, [pc, #28]	; (800b584 <ff_convert+0x34>)
 800b568:	f832 4b02 	ldrh.w	r4, [r2], #2
 800b56c:	4284      	cmp	r4, r0
 800b56e:	b28b      	uxth	r3, r1
 800b570:	d003      	beq.n	800b57a <ff_convert+0x2a>
 800b572:	3101      	adds	r1, #1
 800b574:	2980      	cmp	r1, #128	; 0x80
 800b576:	d1f7      	bne.n	800b568 <ff_convert+0x18>
 800b578:	460b      	mov	r3, r1
 800b57a:	3380      	adds	r3, #128	; 0x80
 800b57c:	b2d8      	uxtb	r0, r3
 800b57e:	e7f1      	b.n	800b564 <ff_convert+0x14>
 800b580:	2000      	movs	r0, #0
 800b582:	e7ef      	b.n	800b564 <ff_convert+0x14>
 800b584:	08010806 	.word	0x08010806

0800b588 <ff_wtoupper>:
 800b588:	4906      	ldr	r1, [pc, #24]	; (800b5a4 <ff_wtoupper+0x1c>)
 800b58a:	2300      	movs	r3, #0
 800b58c:	f831 2b02 	ldrh.w	r2, [r1], #2
 800b590:	b122      	cbz	r2, 800b59c <ff_wtoupper+0x14>
 800b592:	4282      	cmp	r2, r0
 800b594:	d103      	bne.n	800b59e <ff_wtoupper+0x16>
 800b596:	4a04      	ldr	r2, [pc, #16]	; (800b5a8 <ff_wtoupper+0x20>)
 800b598:	f832 0013 	ldrh.w	r0, [r2, r3, lsl #1]
 800b59c:	4770      	bx	lr
 800b59e:	3301      	adds	r3, #1
 800b5a0:	e7f4      	b.n	800b58c <ff_wtoupper+0x4>
 800b5a2:	bf00      	nop
 800b5a4:	08010906 	.word	0x08010906
 800b5a8:	08010ae6 	.word	0x08010ae6

0800b5ac <f_PEL_open>:
 800b5ac:	e92d 47f0 	stmdb	sp!, {r4, r5, r6, r7, r8, r9, sl, lr}
 800b5b0:	4607      	mov	r7, r0
 800b5b2:	b090      	sub	sp, #64	; 0x40
 800b5b4:	4818      	ldr	r0, [pc, #96]	; (800b618 <f_PEL_open+0x6c>)
 800b5b6:	f8df 9068 	ldr.w	r9, [pc, #104]	; 800b620 <f_PEL_open+0x74>
 800b5ba:	4688      	mov	r8, r1
 800b5bc:	4615      	mov	r5, r2
 800b5be:	f44f 5100 	mov.w	r1, #8192	; 0x2000
 800b5c2:	2201      	movs	r2, #1
 800b5c4:	461e      	mov	r6, r3
 800b5c6:	f7f8 feab 	bl	8004320 <HAL_GPIO_WritePin>
 800b5ca:	4814      	ldr	r0, [pc, #80]	; (800b61c <f_PEL_open+0x70>)
 800b5cc:	2201      	movs	r2, #1
 800b5ce:	2180      	movs	r1, #128	; 0x80
 800b5d0:	f7f8 fea6 	bl	8004320 <HAL_GPIO_WritePin>
 800b5d4:	4811      	ldr	r0, [pc, #68]	; (800b61c <f_PEL_open+0x70>)
 800b5d6:	2200      	movs	r2, #0
 800b5d8:	2108      	movs	r1, #8
 800b5da:	f7f8 fea1 	bl	8004320 <HAL_GPIO_WritePin>
 800b5de:	2400      	movs	r4, #0
 800b5e0:	f44f 7a0b 	mov.w	sl, #556	; 0x22c
 800b5e4:	42a6      	cmp	r6, r4
 800b5e6:	d207      	bcs.n	800b5f8 <f_PEL_open+0x4c>
 800b5e8:	480c      	ldr	r0, [pc, #48]	; (800b61c <f_PEL_open+0x70>)
 800b5ea:	2201      	movs	r2, #1
 800b5ec:	2108      	movs	r1, #8
 800b5ee:	f7f8 fe97 	bl	8004320 <HAL_GPIO_WritePin>
 800b5f2:	b010      	add	sp, #64	; 0x40
 800b5f4:	e8bd 87f0 	ldmia.w	sp!, {r4, r5, r6, r7, r8, r9, sl, pc}
 800b5f8:	e9cd 5400 	strd	r5, r4, [sp]
 800b5fc:	462b      	mov	r3, r5
 800b5fe:	4642      	mov	r2, r8
 800b600:	4649      	mov	r1, r9
 800b602:	a803      	add	r0, sp, #12
 800b604:	f001 fe7e 	bl	800d304 <siprintf>
 800b608:	fb0a 7004 	mla	r0, sl, r4, r7
 800b60c:	2201      	movs	r2, #1
 800b60e:	a903      	add	r1, sp, #12
 800b610:	f7ff fc26 	bl	800ae60 <f_open>
 800b614:	3401      	adds	r4, #1
 800b616:	e7e5      	b.n	800b5e4 <f_PEL_open+0x38>
 800b618:	48000400 	.word	0x48000400
 800b61c:	48000800 	.word	0x48000800
 800b620:	08010cc6 	.word	0x08010cc6

0800b624 <f_PIC_open>:
 800b624:	b570      	push	{r4, r5, r6, lr}
 800b626:	4c0f      	ldr	r4, [pc, #60]	; (800b664 <f_PIC_open+0x40>)
 800b628:	4605      	mov	r5, r0
 800b62a:	460e      	mov	r6, r1
 800b62c:	480e      	ldr	r0, [pc, #56]	; (800b668 <f_PIC_open+0x44>)
 800b62e:	2201      	movs	r2, #1
 800b630:	f44f 5100 	mov.w	r1, #8192	; 0x2000
 800b634:	f7f8 fe74 	bl	8004320 <HAL_GPIO_WritePin>
 800b638:	4620      	mov	r0, r4
 800b63a:	2201      	movs	r2, #1
 800b63c:	2180      	movs	r1, #128	; 0x80
 800b63e:	f7f8 fe6f 	bl	8004320 <HAL_GPIO_WritePin>
 800b642:	4620      	mov	r0, r4
 800b644:	2200      	movs	r2, #0
 800b646:	2108      	movs	r1, #8
 800b648:	f7f8 fe6a 	bl	8004320 <HAL_GPIO_WritePin>
 800b64c:	4631      	mov	r1, r6
 800b64e:	2201      	movs	r2, #1
 800b650:	4628      	mov	r0, r5
 800b652:	f7ff fc05 	bl	800ae60 <f_open>
 800b656:	4620      	mov	r0, r4
 800b658:	2201      	movs	r2, #1
 800b65a:	e8bd 4070 	ldmia.w	sp!, {r4, r5, r6, lr}
 800b65e:	2108      	movs	r1, #8
 800b660:	f7f8 be5e 	b.w	8004320 <HAL_GPIO_WritePin>
 800b664:	48000800 	.word	0x48000800
 800b668:	48000400 	.word	0x48000400

0800b66c <f_PIC>:
 800b66c:	e92d 4ff0 	stmdb	sp!, {r4, r5, r6, r7, r8, r9, sl, fp, lr}
 800b670:	4604      	mov	r4, r0
 800b672:	f2ad 7d14 	subw	sp, sp, #1812	; 0x714
 800b676:	4867      	ldr	r0, [pc, #412]	; (800b814 <f_PIC+0x1a8>)
 800b678:	460e      	mov	r6, r1
 800b67a:	4690      	mov	r8, r2
 800b67c:	2180      	movs	r1, #128	; 0x80
 800b67e:	2201      	movs	r2, #1
 800b680:	f7f8 fe4e 	bl	8004320 <HAL_GPIO_WritePin>
 800b684:	2200      	movs	r2, #0
 800b686:	4863      	ldr	r0, [pc, #396]	; (800b814 <f_PIC+0x1a8>)
 800b688:	2108      	movs	r1, #8
 800b68a:	f7f8 fe49 	bl	8004320 <HAL_GPIO_WritePin>
 800b68e:	2100      	movs	r1, #0
 800b690:	4620      	mov	r0, r4
 800b692:	f7ff fdec 	bl	800b26e <f_lseek>
 800b696:	ab03      	add	r3, sp, #12
 800b698:	2236      	movs	r2, #54	; 0x36
 800b69a:	a904      	add	r1, sp, #16
 800b69c:	4620      	mov	r0, r4
 800b69e:	f7ff fcad 	bl	800affc <f_read>
 800b6a2:	f89d 3023 	ldrb.w	r3, [sp, #35]	; 0x23
 800b6a6:	f89d 5022 	ldrb.w	r5, [sp, #34]	; 0x22
 800b6aa:	f89d 7026 	ldrb.w	r7, [sp, #38]	; 0x26
 800b6ae:	f89d 901a 	ldrb.w	r9, [sp, #26]
 800b6b2:	f89d 203f 	ldrb.w	r2, [sp, #63]	; 0x3f
 800b6b6:	eb05 2503 	add.w	r5, r5, r3, lsl #8
 800b6ba:	f89d 3027 	ldrb.w	r3, [sp, #39]	; 0x27
 800b6be:	eb07 2703 	add.w	r7, r7, r3, lsl #8
 800b6c2:	f89d 301b 	ldrb.w	r3, [sp, #27]
 800b6c6:	eb09 2903 	add.w	r9, r9, r3, lsl #8
 800b6ca:	f89d 303e 	ldrb.w	r3, [sp, #62]	; 0x3e
 800b6ce:	eb03 2302 	add.w	r3, r3, r2, lsl #8
 800b6d2:	9301      	str	r3, [sp, #4]
 800b6d4:	f50d 7b44 	add.w	fp, sp, #784	; 0x310
 800b6d8:	f04f 0a00 	mov.w	sl, #0
 800b6dc:	9b01      	ldr	r3, [sp, #4]
 800b6de:	459a      	cmp	sl, r3
 800b6e0:	d135      	bne.n	800b74e <f_PIC+0xe2>
 800b6e2:	4649      	mov	r1, r9
 800b6e4:	4620      	mov	r0, r4
 800b6e6:	f7ff fdc2 	bl	800b26e <f_lseek>
 800b6ea:	484a      	ldr	r0, [pc, #296]	; (800b814 <f_PIC+0x1a8>)
 800b6ec:	2201      	movs	r2, #1
 800b6ee:	2108      	movs	r1, #8
 800b6f0:	f7f8 fe16 	bl	8004320 <HAL_GPIO_WritePin>
 800b6f4:	2200      	movs	r2, #0
 800b6f6:	2180      	movs	r1, #128	; 0x80
 800b6f8:	4846      	ldr	r0, [pc, #280]	; (800b814 <f_PIC+0x1a8>)
 800b6fa:	f7f8 fe11 	bl	8004320 <HAL_GPIO_WritePin>
 800b6fe:	2004      	movs	r0, #4
 800b700:	f7fd fa44 	bl	8008b8c <ILI9341_Set_Rotation>
 800b704:	19aa      	adds	r2, r5, r6
 800b706:	f1c8 01f0 	rsb	r1, r8, #240	; 0xf0
 800b70a:	f1c8 03ef 	rsb	r3, r8, #239	; 0xef
 800b70e:	1bc9      	subs	r1, r1, r7
 800b710:	3a01      	subs	r2, #1
 800b712:	4630      	mov	r0, r6
 800b714:	f7fd fa78 	bl	8008c08 <ILI9341_Set_Address>
 800b718:	483e      	ldr	r0, [pc, #248]	; (800b814 <f_PIC+0x1a8>)
 800b71a:	4e3e      	ldr	r6, [pc, #248]	; (800b814 <f_PIC+0x1a8>)
 800b71c:	2200      	movs	r2, #0
 800b71e:	f44f 7100 	mov.w	r1, #512	; 0x200
 800b722:	f7f8 fdfd 	bl	8004320 <HAL_GPIO_WritePin>
 800b726:	232c      	movs	r3, #44	; 0x2c
 800b728:	f88d 3010 	strb.w	r3, [sp, #16]
 800b72c:	2301      	movs	r3, #1
 800b72e:	483a      	ldr	r0, [pc, #232]	; (800b818 <f_PIC+0x1ac>)
 800b730:	461a      	mov	r2, r3
 800b732:	a904      	add	r1, sp, #16
 800b734:	f7fa fa51 	bl	8005bda <HAL_SPI_Transmit>
 800b738:	fb07 f905 	mul.w	r9, r7, r5
 800b73c:	f50d 7844 	add.w	r8, sp, #784	; 0x310
 800b740:	2700      	movs	r7, #0
 800b742:	454f      	cmp	r7, r9
 800b744:	d31b      	bcc.n	800b77e <f_PIC+0x112>
 800b746:	f20d 7d14 	addw	sp, sp, #1812	; 0x714
 800b74a:	e8bd 8ff0 	ldmia.w	sp!, {r4, r5, r6, r7, r8, r9, sl, fp, pc}
 800b74e:	ab03      	add	r3, sp, #12
 800b750:	2204      	movs	r2, #4
 800b752:	a902      	add	r1, sp, #8
 800b754:	4620      	mov	r0, r4
 800b756:	f7ff fc51 	bl	800affc <f_read>
 800b75a:	f89d 300a 	ldrb.w	r3, [sp, #10]
 800b75e:	f89d 2009 	ldrb.w	r2, [sp, #9]
 800b762:	08db      	lsrs	r3, r3, #3
 800b764:	0892      	lsrs	r2, r2, #2
 800b766:	eb02 1283 	add.w	r2, r2, r3, lsl #6
 800b76a:	f89d 3008 	ldrb.w	r3, [sp, #8]
 800b76e:	08db      	lsrs	r3, r3, #3
 800b770:	eb03 1342 	add.w	r3, r3, r2, lsl #5
 800b774:	f84b 3b04 	str.w	r3, [fp], #4
 800b778:	f10a 0a01 	add.w	sl, sl, #1
 800b77c:	e7ae      	b.n	800b6dc <f_PIC+0x70>
 800b77e:	2201      	movs	r2, #1
 800b780:	2180      	movs	r1, #128	; 0x80
 800b782:	4630      	mov	r0, r6
 800b784:	f7f8 fdcc 	bl	8004320 <HAL_GPIO_WritePin>
 800b788:	eba9 0507 	sub.w	r5, r9, r7
 800b78c:	2200      	movs	r2, #0
 800b78e:	2108      	movs	r1, #8
 800b790:	4630      	mov	r0, r6
 800b792:	f7f8 fdc5 	bl	8004320 <HAL_GPIO_WritePin>
 800b796:	f5b5 7f80 	cmp.w	r5, #256	; 0x100
 800b79a:	bf28      	it	cs
 800b79c:	f44f 7580 	movcs.w	r5, #256	; 0x100
 800b7a0:	ab03      	add	r3, sp, #12
 800b7a2:	462a      	mov	r2, r5
 800b7a4:	a904      	add	r1, sp, #16
 800b7a6:	4620      	mov	r0, r4
 800b7a8:	f7ff fc28 	bl	800affc <f_read>
 800b7ac:	ab44      	add	r3, sp, #272	; 0x110
 800b7ae:	a904      	add	r1, sp, #16
 800b7b0:	2200      	movs	r2, #0
 800b7b2:	469a      	mov	sl, r3
 800b7b4:	4295      	cmp	r5, r2
 800b7b6:	f103 0302 	add.w	r3, r3, #2
 800b7ba:	d11f      	bne.n	800b7fc <f_PIC+0x190>
 800b7bc:	2201      	movs	r2, #1
 800b7be:	2108      	movs	r1, #8
 800b7c0:	4630      	mov	r0, r6
 800b7c2:	f7f8 fdad 	bl	8004320 <HAL_GPIO_WritePin>
 800b7c6:	2200      	movs	r2, #0
 800b7c8:	2180      	movs	r1, #128	; 0x80
 800b7ca:	4630      	mov	r0, r6
 800b7cc:	f7f8 fda8 	bl	8004320 <HAL_GPIO_WritePin>
 800b7d0:	2201      	movs	r2, #1
 800b7d2:	f44f 7100 	mov.w	r1, #512	; 0x200
 800b7d6:	4630      	mov	r0, r6
 800b7d8:	f7f8 fda2 	bl	8004320 <HAL_GPIO_WritePin>
 800b7dc:	006a      	lsls	r2, r5, #1
 800b7de:	b292      	uxth	r2, r2
 800b7e0:	f44f 7396 	mov.w	r3, #300	; 0x12c
 800b7e4:	4651      	mov	r1, sl
 800b7e6:	480c      	ldr	r0, [pc, #48]	; (800b818 <f_PIC+0x1ac>)
 800b7e8:	f7fa f9f7 	bl	8005bda <HAL_SPI_Transmit>
 800b7ec:	2201      	movs	r2, #1
 800b7ee:	2180      	movs	r1, #128	; 0x80
 800b7f0:	4630      	mov	r0, r6
 800b7f2:	f7f8 fd95 	bl	8004320 <HAL_GPIO_WritePin>
 800b7f6:	f507 7780 	add.w	r7, r7, #256	; 0x100
 800b7fa:	e7a2      	b.n	800b742 <f_PIC+0xd6>
 800b7fc:	f811 0b01 	ldrb.w	r0, [r1], #1
 800b800:	f858 0020 	ldr.w	r0, [r8, r0, lsl #2]
 800b804:	f803 0c01 	strb.w	r0, [r3, #-1]
 800b808:	ea4f 2c10 	mov.w	ip, r0, lsr #8
 800b80c:	f803 cc02 	strb.w	ip, [r3, #-2]
 800b810:	3201      	adds	r2, #1
 800b812:	e7cf      	b.n	800b7b4 <f_PIC+0x148>
 800b814:	48000800 	.word	0x48000800
 800b818:	20009880 	.word	0x20009880

0800b81c <f_PEL>:
 800b81c:	b430      	push	{r4, r5}
 800b81e:	f89d 400c 	ldrb.w	r4, [sp, #12]
 800b822:	9d02      	ldr	r5, [sp, #8]
 800b824:	b10c      	cbz	r4, 800b82a <f_PEL+0xe>
 800b826:	4419      	add	r1, r3
 800b828:	442a      	add	r2, r5
 800b82a:	f44f 730b 	mov.w	r3, #556	; 0x22c
 800b82e:	fb03 0004 	mla	r0, r3, r4, r0
 800b832:	bc30      	pop	{r4, r5}
 800b834:	f7ff bf1a 	b.w	800b66c <f_PIC>

0800b838 <f_TECLADO_ALFA_fondo>:
 800b838:	e92d 47f0 	stmdb	sp!, {r4, r5, r6, r7, r8, r9, sl, lr}
 800b83c:	4c35      	ldr	r4, [pc, #212]	; (800b914 <f_TECLADO_ALFA_fondo+0xdc>)
 800b83e:	7823      	ldrb	r3, [r4, #0]
 800b840:	b08e      	sub	sp, #56	; 0x38
 800b842:	4605      	mov	r5, r0
 800b844:	b91b      	cbnz	r3, 800b84e <f_TECLADO_ALFA_fondo+0x16>
 800b846:	4934      	ldr	r1, [pc, #208]	; (800b918 <f_TECLADO_ALFA_fondo+0xe0>)
 800b848:	a803      	add	r0, sp, #12
 800b84a:	f001 fdaf 	bl	800d3ac <strcpy>
 800b84e:	7823      	ldrb	r3, [r4, #0]
 800b850:	2b01      	cmp	r3, #1
 800b852:	d103      	bne.n	800b85c <f_TECLADO_ALFA_fondo+0x24>
 800b854:	4931      	ldr	r1, [pc, #196]	; (800b91c <f_TECLADO_ALFA_fondo+0xe4>)
 800b856:	a803      	add	r0, sp, #12
 800b858:	f001 fda8 	bl	800d3ac <strcpy>
 800b85c:	7823      	ldrb	r3, [r4, #0]
 800b85e:	2b02      	cmp	r3, #2
 800b860:	d109      	bne.n	800b876 <f_TECLADO_ALFA_fondo+0x3e>
 800b862:	235c      	movs	r3, #92	; 0x5c
 800b864:	2222      	movs	r2, #34	; 0x22
 800b866:	e9cd 3200 	strd	r3, r2, [sp]
 800b86a:	492d      	ldr	r1, [pc, #180]	; (800b920 <f_TECLADO_ALFA_fondo+0xe8>)
 800b86c:	232f      	movs	r3, #47	; 0x2f
 800b86e:	2225      	movs	r2, #37	; 0x25
 800b870:	a803      	add	r0, sp, #12
 800b872:	f001 fd47 	bl	800d304 <siprintf>
 800b876:	f04f 0800 	mov.w	r8, #0
 800b87a:	2450      	movs	r4, #80	; 0x50
 800b87c:	2704      	movs	r7, #4
 800b87e:	ab03      	add	r3, sp, #12
 800b880:	f1c4 0ad0 	rsb	sl, r4, #208	; 0xd0
 800b884:	eb03 0908 	add.w	r9, r3, r8
 800b888:	2600      	movs	r6, #0
 800b88a:	4631      	mov	r1, r6
 800b88c:	4622      	mov	r2, r4
 800b88e:	4628      	mov	r0, r5
 800b890:	f7ff feec 	bl	800b66c <f_PIC>
 800b894:	f819 3b01 	ldrb.w	r3, [r9], #1
 800b898:	f106 000c 	add.w	r0, r6, #12
 800b89c:	e9cd 3700 	strd	r3, r7, [sp]
 800b8a0:	f64f 72ff 	movw	r2, #65535	; 0xffff
 800b8a4:	2310      	movs	r3, #16
 800b8a6:	4651      	mov	r1, sl
 800b8a8:	3620      	adds	r6, #32
 800b8aa:	f7fd fbc1 	bl	8009030 <ILI9341_Draw_Char>
 800b8ae:	f5b6 7fa0 	cmp.w	r6, #320	; 0x140
 800b8b2:	d1ea      	bne.n	800b88a <f_TECLADO_ALFA_fondo+0x52>
 800b8b4:	3420      	adds	r4, #32
 800b8b6:	2cd0      	cmp	r4, #208	; 0xd0
 800b8b8:	f108 080a 	add.w	r8, r8, #10
 800b8bc:	d1df      	bne.n	800b87e <f_TECLADO_ALFA_fondo+0x46>
 800b8be:	f605 5608 	addw	r6, r5, #3336	; 0xd08
 800b8c2:	4622      	mov	r2, r4
 800b8c4:	4630      	mov	r0, r6
 800b8c6:	2100      	movs	r1, #0
 800b8c8:	f7ff fed0 	bl	800b66c <f_PIC>
 800b8cc:	4b15      	ldr	r3, [pc, #84]	; (800b924 <f_TECLADO_ALFA_fondo+0xec>)
 800b8ce:	9300      	str	r3, [sp, #0]
 800b8d0:	9701      	str	r7, [sp, #4]
 800b8d2:	2310      	movs	r3, #16
 800b8d4:	f64f 72ff 	movw	r2, #65535	; 0xffff
 800b8d8:	21cf      	movs	r1, #207	; 0xcf
 800b8da:	201a      	movs	r0, #26
 800b8dc:	f7fd fc8e 	bl	80091fc <ILI9341_Draw_String>
 800b8e0:	4622      	mov	r2, r4
 800b8e2:	f505 600b 	add.w	r0, r5, #2224	; 0x8b0
 800b8e6:	2150      	movs	r1, #80	; 0x50
 800b8e8:	f7ff fec0 	bl	800b66c <f_PIC>
 800b8ec:	4622      	mov	r2, r4
 800b8ee:	4630      	mov	r0, r6
 800b8f0:	21f0      	movs	r1, #240	; 0xf0
 800b8f2:	f7ff febb 	bl	800b66c <f_PIC>
 800b8f6:	4b0c      	ldr	r3, [pc, #48]	; (800b928 <f_TECLADO_ALFA_fondo+0xf0>)
 800b8f8:	9300      	str	r3, [sp, #0]
 800b8fa:	9701      	str	r7, [sp, #4]
 800b8fc:	2310      	movs	r3, #16
 800b8fe:	f64f 72ff 	movw	r2, #65535	; 0xffff
 800b902:	21cf      	movs	r1, #207	; 0xcf
 800b904:	f44f 7085 	mov.w	r0, #266	; 0x10a
 800b908:	f7fd fc78 	bl	80091fc <ILI9341_Draw_String>
 800b90c:	b00e      	add	sp, #56	; 0x38
 800b90e:	e8bd 87f0 	ldmia.w	sp!, {r4, r5, r6, r7, r8, r9, sl, pc}
 800b912:	bf00      	nop
 800b914:	20009f64 	.word	0x20009f64
 800b918:	08010cde 	.word	0x08010cde
 800b91c:	08010d07 	.word	0x08010d07
 800b920:	08010d30 	.word	0x08010d30
 800b924:	08010d5d 	.word	0x08010d5d
 800b928:	0800ef4c 	.word	0x0800ef4c

0800b92c <f_TECLADO_ALFA_open>:
 800b92c:	4b17      	ldr	r3, [pc, #92]	; (800b98c <f_TECLADO_ALFA_open+0x60>)
 800b92e:	4918      	ldr	r1, [pc, #96]	; (800b990 <f_TECLADO_ALFA_open+0x64>)
 800b930:	b510      	push	{r4, lr}
 800b932:	2200      	movs	r2, #0
 800b934:	4604      	mov	r4, r0
 800b936:	601a      	str	r2, [r3, #0]
 800b938:	f7ff fe74 	bl	800b624 <f_PIC_open>
 800b93c:	f504 700b 	add.w	r0, r4, #556	; 0x22c
 800b940:	4914      	ldr	r1, [pc, #80]	; (800b994 <f_TECLADO_ALFA_open+0x68>)
 800b942:	f7ff fe6f 	bl	800b624 <f_PIC_open>
 800b946:	f504 608b 	add.w	r0, r4, #1112	; 0x458
 800b94a:	4913      	ldr	r1, [pc, #76]	; (800b998 <f_TECLADO_ALFA_open+0x6c>)
 800b94c:	f7ff fe6a 	bl	800b624 <f_PIC_open>
 800b950:	f204 6084 	addw	r0, r4, #1668	; 0x684
 800b954:	4911      	ldr	r1, [pc, #68]	; (800b99c <f_TECLADO_ALFA_open+0x70>)
 800b956:	f7ff fe65 	bl	800b624 <f_PIC_open>
 800b95a:	f504 600b 	add.w	r0, r4, #2224	; 0x8b0
 800b95e:	4910      	ldr	r1, [pc, #64]	; (800b9a0 <f_TECLADO_ALFA_open+0x74>)
 800b960:	f7ff fe60 	bl	800b624 <f_PIC_open>
 800b964:	f604 20dc 	addw	r0, r4, #2780	; 0xadc
 800b968:	490e      	ldr	r1, [pc, #56]	; (800b9a4 <f_TECLADO_ALFA_open+0x78>)
 800b96a:	f7ff fe5b 	bl	800b624 <f_PIC_open>
 800b96e:	f604 5008 	addw	r0, r4, #3336	; 0xd08
 800b972:	490d      	ldr	r1, [pc, #52]	; (800b9a8 <f_TECLADO_ALFA_open+0x7c>)
 800b974:	f7ff fe56 	bl	800b624 <f_PIC_open>
 800b978:	f604 7034 	addw	r0, r4, #3892	; 0xf34
 800b97c:	490b      	ldr	r1, [pc, #44]	; (800b9ac <f_TECLADO_ALFA_open+0x80>)
 800b97e:	f7ff fe51 	bl	800b624 <f_PIC_open>
 800b982:	4620      	mov	r0, r4
 800b984:	e8bd 4010 	ldmia.w	sp!, {r4, lr}
 800b988:	f7ff bf56 	b.w	800b838 <f_TECLADO_ALFA_fondo>
 800b98c:	20009f68 	.word	0x20009f68
 800b990:	08010d60 	.word	0x08010d60
 800b994:	08010d82 	.word	0x08010d82
 800b998:	08010da4 	.word	0x08010da4
 800b99c:	08010dc7 	.word	0x08010dc7
 800b9a0:	08010dea 	.word	0x08010dea
 800b9a4:	08010e09 	.word	0x08010e09
 800b9a8:	08010e28 	.word	0x08010e28
 800b9ac:	08010e4a 	.word	0x08010e4a

0800b9b0 <f_TECLADO_ALFA_Input>:
 800b9b0:	e92d 4ff0 	stmdb	sp!, {r4, r5, r6, r7, r8, r9, sl, fp, lr}
 800b9b4:	4da7      	ldr	r5, [pc, #668]	; (800bc54 <f_TECLADO_ALFA_Input+0x2a4>)
 800b9b6:	782b      	ldrb	r3, [r5, #0]
 800b9b8:	b09d      	sub	sp, #116	; 0x74
 800b9ba:	e9cd 1202 	strd	r1, r2, [sp, #8]
 800b9be:	4604      	mov	r4, r0
 800b9c0:	b91b      	cbnz	r3, 800b9ca <f_TECLADO_ALFA_Input+0x1a>
 800b9c2:	49a5      	ldr	r1, [pc, #660]	; (800bc58 <f_TECLADO_ALFA_Input+0x2a8>)
 800b9c4:	a804      	add	r0, sp, #16
 800b9c6:	f001 fcf1 	bl	800d3ac <strcpy>
 800b9ca:	782b      	ldrb	r3, [r5, #0]
 800b9cc:	2b01      	cmp	r3, #1
 800b9ce:	d103      	bne.n	800b9d8 <f_TECLADO_ALFA_Input+0x28>
 800b9d0:	49a2      	ldr	r1, [pc, #648]	; (800bc5c <f_TECLADO_ALFA_Input+0x2ac>)
 800b9d2:	a804      	add	r0, sp, #16
 800b9d4:	f001 fcea 	bl	800d3ac <strcpy>
 800b9d8:	782b      	ldrb	r3, [r5, #0]
 800b9da:	2b02      	cmp	r3, #2
 800b9dc:	d109      	bne.n	800b9f2 <f_TECLADO_ALFA_Input+0x42>
 800b9de:	235c      	movs	r3, #92	; 0x5c
 800b9e0:	2222      	movs	r2, #34	; 0x22
 800b9e2:	e9cd 3200 	strd	r3, r2, [sp]
 800b9e6:	499e      	ldr	r1, [pc, #632]	; (800bc60 <f_TECLADO_ALFA_Input+0x2b0>)
 800b9e8:	232f      	movs	r3, #47	; 0x2f
 800b9ea:	2225      	movs	r2, #37	; 0x25
 800b9ec:	a804      	add	r0, sp, #16
 800b9ee:	f001 fc89 	bl	800d304 <siprintf>
 800b9f2:	f04f 0900 	mov.w	r9, #0
 800b9f6:	2550      	movs	r5, #80	; 0x50
 800b9f8:	ab04      	add	r3, sp, #16
 800b9fa:	f1c5 0ad0 	rsb	sl, r5, #208	; 0xd0
 800b9fe:	eb03 0709 	add.w	r7, r3, r9
 800ba02:	46c8      	mov	r8, r9
 800ba04:	2600      	movs	r6, #0
 800ba06:	4b97      	ldr	r3, [pc, #604]	; (800bc64 <f_TECLADO_ALFA_Input+0x2b4>)
 800ba08:	681b      	ldr	r3, [r3, #0]
 800ba0a:	42b3      	cmp	r3, r6
 800ba0c:	d96f      	bls.n	800baee <f_TECLADO_ALFA_Input+0x13e>
 800ba0e:	f106 0220 	add.w	r2, r6, #32
 800ba12:	4293      	cmp	r3, r2
 800ba14:	d26b      	bcs.n	800baee <f_TECLADO_ALFA_Input+0x13e>
 800ba16:	4b94      	ldr	r3, [pc, #592]	; (800bc68 <f_TECLADO_ALFA_Input+0x2b8>)
 800ba18:	681b      	ldr	r3, [r3, #0]
 800ba1a:	429d      	cmp	r5, r3
 800ba1c:	d267      	bcs.n	800baee <f_TECLADO_ALFA_Input+0x13e>
 800ba1e:	f105 0220 	add.w	r2, r5, #32
 800ba22:	4293      	cmp	r3, r2
 800ba24:	d263      	bcs.n	800baee <f_TECLADO_ALFA_Input+0x13e>
 800ba26:	462a      	mov	r2, r5
 800ba28:	4631      	mov	r1, r6
 800ba2a:	f504 700b 	add.w	r0, r4, #556	; 0x22c
 800ba2e:	f7ff fe1d 	bl	800b66c <f_PIC>
 800ba32:	2304      	movs	r3, #4
 800ba34:	9301      	str	r3, [sp, #4]
 800ba36:	783b      	ldrb	r3, [r7, #0]
 800ba38:	9300      	str	r3, [sp, #0]
 800ba3a:	f106 0b0c 	add.w	fp, r6, #12
 800ba3e:	f645 23f7 	movw	r3, #23287	; 0x5af7
 800ba42:	f64f 72ff 	movw	r2, #65535	; 0xffff
 800ba46:	4651      	mov	r1, sl
 800ba48:	4658      	mov	r0, fp
 800ba4a:	f7fd faf1 	bl	8009030 <ILI9341_Draw_Char>
 800ba4e:	4887      	ldr	r0, [pc, #540]	; (800bc6c <f_TECLADO_ALFA_Input+0x2bc>)
 800ba50:	2102      	movs	r1, #2
 800ba52:	f7f8 fc5f 	bl	8004314 <HAL_GPIO_ReadPin>
 800ba56:	2800      	cmp	r0, #0
 800ba58:	d0f9      	beq.n	800ba4e <f_TECLADO_ALFA_Input+0x9e>
 800ba5a:	20ff      	movs	r0, #255	; 0xff
 800ba5c:	f7f7 fc28 	bl	80032b0 <HAL_Delay>
 800ba60:	462a      	mov	r2, r5
 800ba62:	4631      	mov	r1, r6
 800ba64:	4620      	mov	r0, r4
 800ba66:	f7ff fe01 	bl	800b66c <f_PIC>
 800ba6a:	2304      	movs	r3, #4
 800ba6c:	9301      	str	r3, [sp, #4]
 800ba6e:	783b      	ldrb	r3, [r7, #0]
 800ba70:	9300      	str	r3, [sp, #0]
 800ba72:	4651      	mov	r1, sl
 800ba74:	2310      	movs	r3, #16
 800ba76:	f64f 72ff 	movw	r2, #65535	; 0xffff
 800ba7a:	4658      	mov	r0, fp
 800ba7c:	f7fd fad8 	bl	8009030 <ILI9341_Draw_Char>
 800ba80:	f1a8 011e 	sub.w	r1, r8, #30
 800ba84:	2901      	cmp	r1, #1
 800ba86:	d911      	bls.n	800baac <f_TECLADO_ALFA_Input+0xfc>
 800ba88:	4a79      	ldr	r2, [pc, #484]	; (800bc70 <f_TECLADO_ALFA_Input+0x2c0>)
 800ba8a:	f1b8 0f27 	cmp.w	r8, #39	; 0x27
 800ba8e:	6813      	ldr	r3, [r2, #0]
 800ba90:	d027      	beq.n	800bae2 <f_TECLADO_ALFA_Input+0x132>
 800ba92:	2b15      	cmp	r3, #21
 800ba94:	d80a      	bhi.n	800baac <f_TECLADO_ALFA_Input+0xfc>
 800ba96:	4877      	ldr	r0, [pc, #476]	; (800bc74 <f_TECLADO_ALFA_Input+0x2c4>)
 800ba98:	f897 c000 	ldrb.w	ip, [r7]
 800ba9c:	f800 c003 	strb.w	ip, [r0, r3]
 800baa0:	3301      	adds	r3, #1
 800baa2:	f04f 0c00 	mov.w	ip, #0
 800baa6:	f800 c003 	strb.w	ip, [r0, r3]
 800baaa:	6013      	str	r3, [r2, #0]
 800baac:	f1b8 0f1f 	cmp.w	r8, #31
 800bab0:	d005      	beq.n	800babe <f_TECLADO_ALFA_Input+0x10e>
 800bab2:	f1b8 0f1e 	cmp.w	r8, #30
 800bab6:	d00c      	beq.n	800bad2 <f_TECLADO_ALFA_Input+0x122>
 800bab8:	2901      	cmp	r1, #1
 800baba:	d818      	bhi.n	800baee <f_TECLADO_ALFA_Input+0x13e>
 800babc:	e005      	b.n	800baca <f_TECLADO_ALFA_Input+0x11a>
 800babe:	4a65      	ldr	r2, [pc, #404]	; (800bc54 <f_TECLADO_ALFA_Input+0x2a4>)
 800bac0:	7813      	ldrb	r3, [r2, #0]
 800bac2:	fab3 f383 	clz	r3, r3
 800bac6:	095b      	lsrs	r3, r3, #5
 800bac8:	7013      	strb	r3, [r2, #0]
 800baca:	4620      	mov	r0, r4
 800bacc:	f7ff feb4 	bl	800b838 <f_TECLADO_ALFA_fondo>
 800bad0:	e00d      	b.n	800baee <f_TECLADO_ALFA_Input+0x13e>
 800bad2:	4b60      	ldr	r3, [pc, #384]	; (800bc54 <f_TECLADO_ALFA_Input+0x2a4>)
 800bad4:	781a      	ldrb	r2, [r3, #0]
 800bad6:	2a02      	cmp	r2, #2
 800bad8:	bf14      	ite	ne
 800bada:	2202      	movne	r2, #2
 800badc:	2200      	moveq	r2, #0
 800bade:	701a      	strb	r2, [r3, #0]
 800bae0:	e7f3      	b.n	800baca <f_TECLADO_ALFA_Input+0x11a>
 800bae2:	b123      	cbz	r3, 800baee <f_TECLADO_ALFA_Input+0x13e>
 800bae4:	3b01      	subs	r3, #1
 800bae6:	6013      	str	r3, [r2, #0]
 800bae8:	4a62      	ldr	r2, [pc, #392]	; (800bc74 <f_TECLADO_ALFA_Input+0x2c4>)
 800baea:	2100      	movs	r1, #0
 800baec:	54d1      	strb	r1, [r2, r3]
 800baee:	3620      	adds	r6, #32
 800baf0:	f5b6 7fa0 	cmp.w	r6, #320	; 0x140
 800baf4:	f108 0801 	add.w	r8, r8, #1
 800baf8:	f107 0701 	add.w	r7, r7, #1
 800bafc:	d183      	bne.n	800ba06 <f_TECLADO_ALFA_Input+0x56>
 800bafe:	3520      	adds	r5, #32
 800bb00:	2dd0      	cmp	r5, #208	; 0xd0
 800bb02:	f109 090a 	add.w	r9, r9, #10
 800bb06:	f47f af77 	bne.w	800b9f8 <f_TECLADO_ALFA_Input+0x48>
 800bb0a:	4e56      	ldr	r6, [pc, #344]	; (800bc64 <f_TECLADO_ALFA_Input+0x2b4>)
 800bb0c:	6833      	ldr	r3, [r6, #0]
 800bb0e:	2b4f      	cmp	r3, #79	; 0x4f
 800bb10:	d832      	bhi.n	800bb78 <f_TECLADO_ALFA_Input+0x1c8>
 800bb12:	4b55      	ldr	r3, [pc, #340]	; (800bc68 <f_TECLADO_ALFA_Input+0x2b8>)
 800bb14:	681b      	ldr	r3, [r3, #0]
 800bb16:	2bd0      	cmp	r3, #208	; 0xd0
 800bb18:	d92e      	bls.n	800bb78 <f_TECLADO_ALFA_Input+0x1c8>
 800bb1a:	462a      	mov	r2, r5
 800bb1c:	2100      	movs	r1, #0
 800bb1e:	f604 7034 	addw	r0, r4, #3892	; 0xf34
 800bb22:	f7ff fda3 	bl	800b66c <f_PIC>
 800bb26:	4d54      	ldr	r5, [pc, #336]	; (800bc78 <f_TECLADO_ALFA_Input+0x2c8>)
 800bb28:	9500      	str	r5, [sp, #0]
 800bb2a:	2304      	movs	r3, #4
 800bb2c:	9301      	str	r3, [sp, #4]
 800bb2e:	f64f 72ff 	movw	r2, #65535	; 0xffff
 800bb32:	f645 23f7 	movw	r3, #23287	; 0x5af7
 800bb36:	21cf      	movs	r1, #207	; 0xcf
 800bb38:	201a      	movs	r0, #26
 800bb3a:	f7fd fb5f 	bl	80091fc <ILI9341_Draw_String>
 800bb3e:	4f4b      	ldr	r7, [pc, #300]	; (800bc6c <f_TECLADO_ALFA_Input+0x2bc>)
 800bb40:	2102      	movs	r1, #2
 800bb42:	4638      	mov	r0, r7
 800bb44:	f7f8 fbe6 	bl	8004314 <HAL_GPIO_ReadPin>
 800bb48:	2800      	cmp	r0, #0
 800bb4a:	d0f9      	beq.n	800bb40 <f_TECLADO_ALFA_Input+0x190>
 800bb4c:	20ff      	movs	r0, #255	; 0xff
 800bb4e:	f7f7 fbaf 	bl	80032b0 <HAL_Delay>
 800bb52:	22d0      	movs	r2, #208	; 0xd0
 800bb54:	2100      	movs	r1, #0
 800bb56:	f604 5008 	addw	r0, r4, #3336	; 0xd08
 800bb5a:	f7ff fd87 	bl	800b66c <f_PIC>
 800bb5e:	2304      	movs	r3, #4
 800bb60:	e9cd 5300 	strd	r5, r3, [sp]
 800bb64:	f64f 72ff 	movw	r2, #65535	; 0xffff
 800bb68:	2310      	movs	r3, #16
 800bb6a:	21cf      	movs	r1, #207	; 0xcf
 800bb6c:	201a      	movs	r0, #26
 800bb6e:	f7fd fb45 	bl	80091fc <ILI9341_Draw_String>
 800bb72:	4b42      	ldr	r3, [pc, #264]	; (800bc7c <f_TECLADO_ALFA_Input+0x2cc>)
 800bb74:	9a03      	ldr	r2, [sp, #12]
 800bb76:	601a      	str	r2, [r3, #0]
 800bb78:	6833      	ldr	r3, [r6, #0]
 800bb7a:	3b51      	subs	r3, #81	; 0x51
 800bb7c:	2b9e      	cmp	r3, #158	; 0x9e
 800bb7e:	d819      	bhi.n	800bbb4 <f_TECLADO_ALFA_Input+0x204>
 800bb80:	4b39      	ldr	r3, [pc, #228]	; (800bc68 <f_TECLADO_ALFA_Input+0x2b8>)
 800bb82:	681b      	ldr	r3, [r3, #0]
 800bb84:	2bd0      	cmp	r3, #208	; 0xd0
 800bb86:	d94d      	bls.n	800bc24 <f_TECLADO_ALFA_Input+0x274>
 800bb88:	22d0      	movs	r2, #208	; 0xd0
 800bb8a:	2150      	movs	r1, #80	; 0x50
 800bb8c:	f604 20dc 	addw	r0, r4, #2780	; 0xadc
 800bb90:	f7ff fd6c 	bl	800b66c <f_PIC>
 800bb94:	4d35      	ldr	r5, [pc, #212]	; (800bc6c <f_TECLADO_ALFA_Input+0x2bc>)
 800bb96:	2102      	movs	r1, #2
 800bb98:	4628      	mov	r0, r5
 800bb9a:	f7f8 fbbb 	bl	8004314 <HAL_GPIO_ReadPin>
 800bb9e:	2800      	cmp	r0, #0
 800bba0:	d0f9      	beq.n	800bb96 <f_TECLADO_ALFA_Input+0x1e6>
 800bba2:	20ff      	movs	r0, #255	; 0xff
 800bba4:	f7f7 fb84 	bl	80032b0 <HAL_Delay>
 800bba8:	22d0      	movs	r2, #208	; 0xd0
 800bbaa:	2150      	movs	r1, #80	; 0x50
 800bbac:	f504 600b 	add.w	r0, r4, #2224	; 0x8b0
 800bbb0:	f7ff fd5c 	bl	800b66c <f_PIC>
 800bbb4:	6833      	ldr	r3, [r6, #0]
 800bbb6:	2bf0      	cmp	r3, #240	; 0xf0
 800bbb8:	d934      	bls.n	800bc24 <f_TECLADO_ALFA_Input+0x274>
 800bbba:	4b2b      	ldr	r3, [pc, #172]	; (800bc68 <f_TECLADO_ALFA_Input+0x2b8>)
 800bbbc:	681b      	ldr	r3, [r3, #0]
 800bbbe:	2bd0      	cmp	r3, #208	; 0xd0
 800bbc0:	d930      	bls.n	800bc24 <f_TECLADO_ALFA_Input+0x274>
 800bbc2:	22d0      	movs	r2, #208	; 0xd0
 800bbc4:	21f0      	movs	r1, #240	; 0xf0
 800bbc6:	f604 7034 	addw	r0, r4, #3892	; 0xf34
 800bbca:	f7ff fd4f 	bl	800b66c <f_PIC>
 800bbce:	4d2c      	ldr	r5, [pc, #176]	; (800bc80 <f_TECLADO_ALFA_Input+0x2d0>)
 800bbd0:	9500      	str	r5, [sp, #0]
 800bbd2:	2304      	movs	r3, #4
 800bbd4:	9301      	str	r3, [sp, #4]
 800bbd6:	f64f 72ff 	movw	r2, #65535	; 0xffff
 800bbda:	f645 23f7 	movw	r3, #23287	; 0x5af7
 800bbde:	21cf      	movs	r1, #207	; 0xcf
 800bbe0:	f44f 7085 	mov.w	r0, #266	; 0x10a
 800bbe4:	f7fd fb0a 	bl	80091fc <ILI9341_Draw_String>
 800bbe8:	4e20      	ldr	r6, [pc, #128]	; (800bc6c <f_TECLADO_ALFA_Input+0x2bc>)
 800bbea:	2102      	movs	r1, #2
 800bbec:	4630      	mov	r0, r6
 800bbee:	f7f8 fb91 	bl	8004314 <HAL_GPIO_ReadPin>
 800bbf2:	2800      	cmp	r0, #0
 800bbf4:	d0f9      	beq.n	800bbea <f_TECLADO_ALFA_Input+0x23a>
 800bbf6:	20ff      	movs	r0, #255	; 0xff
 800bbf8:	f7f7 fb5a 	bl	80032b0 <HAL_Delay>
 800bbfc:	22d0      	movs	r2, #208	; 0xd0
 800bbfe:	21f0      	movs	r1, #240	; 0xf0
 800bc00:	f604 5008 	addw	r0, r4, #3336	; 0xd08
 800bc04:	f7ff fd32 	bl	800b66c <f_PIC>
 800bc08:	2304      	movs	r3, #4
 800bc0a:	e9cd 5300 	strd	r5, r3, [sp]
 800bc0e:	f64f 72ff 	movw	r2, #65535	; 0xffff
 800bc12:	2310      	movs	r3, #16
 800bc14:	21cf      	movs	r1, #207	; 0xcf
 800bc16:	f44f 7085 	mov.w	r0, #266	; 0x10a
 800bc1a:	f7fd faef 	bl	80091fc <ILI9341_Draw_String>
 800bc1e:	4b17      	ldr	r3, [pc, #92]	; (800bc7c <f_TECLADO_ALFA_Input+0x2cc>)
 800bc20:	9a02      	ldr	r2, [sp, #8]
 800bc22:	601a      	str	r2, [r3, #0]
 800bc24:	4d13      	ldr	r5, [pc, #76]	; (800bc74 <f_TECLADO_ALFA_Input+0x2c4>)
 800bc26:	4917      	ldr	r1, [pc, #92]	; (800bc84 <f_TECLADO_ALFA_Input+0x2d4>)
 800bc28:	ac0f      	add	r4, sp, #60	; 0x3c
 800bc2a:	462a      	mov	r2, r5
 800bc2c:	4620      	mov	r0, r4
 800bc2e:	f001 fb69 	bl	800d304 <siprintf>
 800bc32:	2200      	movs	r2, #0
 800bc34:	2304      	movs	r3, #4
 800bc36:	75aa      	strb	r2, [r5, #22]
 800bc38:	2128      	movs	r1, #40	; 0x28
 800bc3a:	e9cd 4300 	strd	r4, r3, [sp]
 800bc3e:	4610      	mov	r0, r2
 800bc40:	f246 43df 	movw	r3, #25823	; 0x64df
 800bc44:	f88d 2051 	strb.w	r2, [sp, #81]	; 0x51
 800bc48:	f7fd fad8 	bl	80091fc <ILI9341_Draw_String>
 800bc4c:	b01d      	add	sp, #116	; 0x74
 800bc4e:	e8bd 8ff0 	ldmia.w	sp!, {r4, r5, r6, r7, r8, r9, sl, fp, pc}
 800bc52:	bf00      	nop
 800bc54:	20009f64 	.word	0x20009f64
 800bc58:	08010cde 	.word	0x08010cde
 800bc5c:	08010d07 	.word	0x08010d07
 800bc60:	08010d30 	.word	0x08010d30
 800bc64:	20009fa0 	.word	0x20009fa0
 800bc68:	20009fa4 	.word	0x20009fa4
 800bc6c:	48000400 	.word	0x48000400
 800bc70:	20009f68 	.word	0x20009f68
 800bc74:	20009f6c 	.word	0x20009f6c
 800bc78:	08010d5d 	.word	0x08010d5d
 800bc7c:	200047a8 	.word	0x200047a8
 800bc80:	0800ef4c 	.word	0x0800ef4c
 800bc84:	08010e6c 	.word	0x08010e6c

0800bc88 <BCO_Activo>:
 800bc88:	b5f0      	push	{r4, r5, r6, r7, lr}
 800bc8a:	4c1b      	ldr	r4, [pc, #108]	; (800bcf8 <BCO_Activo+0x70>)
 800bc8c:	6825      	ldr	r5, [r4, #0]
 800bc8e:	4c1b      	ldr	r4, [pc, #108]	; (800bcfc <BCO_Activo+0x74>)
 800bc90:	f100 0708 	add.w	r7, r0, #8
 800bc94:	6826      	ldr	r6, [r4, #0]
 800bc96:	bb5a      	cbnz	r2, 800bcf0 <BCO_Activo+0x68>
 800bc98:	3032      	adds	r0, #50	; 0x32
 800bc9a:	4614      	mov	r4, r2
 800bc9c:	f101 0c3e 	add.w	ip, r1, #62	; 0x3e
 800bca0:	b2a7      	uxth	r7, r4
 800bca2:	42bb      	cmp	r3, r7
 800bca4:	d90c      	bls.n	800bcc0 <BCO_Activo+0x38>
 800bca6:	f1a0 072a 	sub.w	r7, r0, #42	; 0x2a
 800bcaa:	42bd      	cmp	r5, r7
 800bcac:	f104 0401 	add.w	r4, r4, #1
 800bcb0:	d908      	bls.n	800bcc4 <BCO_Activo+0x3c>
 800bcb2:	4285      	cmp	r5, r0
 800bcb4:	d206      	bcs.n	800bcc4 <BCO_Activo+0x3c>
 800bcb6:	428e      	cmp	r6, r1
 800bcb8:	d904      	bls.n	800bcc4 <BCO_Activo+0x3c>
 800bcba:	45b4      	cmp	ip, r6
 800bcbc:	d902      	bls.n	800bcc4 <BCO_Activo+0x3c>
 800bcbe:	b2e2      	uxtb	r2, r4
 800bcc0:	4610      	mov	r0, r2
 800bcc2:	bdf0      	pop	{r4, r5, r6, r7, pc}
 800bcc4:	302a      	adds	r0, #42	; 0x2a
 800bcc6:	e7eb      	b.n	800bca0 <BCO_Activo+0x18>
 800bcc8:	42bd      	cmp	r5, r7
 800bcca:	f101 042a 	add.w	r4, r1, #42	; 0x2a
 800bcce:	f102 0201 	add.w	r2, r2, #1
 800bcd2:	d907      	bls.n	800bce4 <BCO_Activo+0x5c>
 800bcd4:	42a8      	cmp	r0, r5
 800bcd6:	d905      	bls.n	800bce4 <BCO_Activo+0x5c>
 800bcd8:	428e      	cmp	r6, r1
 800bcda:	d903      	bls.n	800bce4 <BCO_Activo+0x5c>
 800bcdc:	42a6      	cmp	r6, r4
 800bcde:	d201      	bcs.n	800bce4 <BCO_Activo+0x5c>
 800bce0:	b2d2      	uxtb	r2, r2
 800bce2:	e7ed      	b.n	800bcc0 <BCO_Activo+0x38>
 800bce4:	4621      	mov	r1, r4
 800bce6:	b294      	uxth	r4, r2
 800bce8:	42a3      	cmp	r3, r4
 800bcea:	d8ed      	bhi.n	800bcc8 <BCO_Activo+0x40>
 800bcec:	2200      	movs	r2, #0
 800bcee:	e7e7      	b.n	800bcc0 <BCO_Activo+0x38>
 800bcf0:	2200      	movs	r2, #0
 800bcf2:	3046      	adds	r0, #70	; 0x46
 800bcf4:	e7f7      	b.n	800bce6 <BCO_Activo+0x5e>
 800bcf6:	bf00      	nop
 800bcf8:	20009fa0 	.word	0x20009fa0
 800bcfc:	20009fa4 	.word	0x20009fa4

0800bd00 <CHECK_CIRC>:
 800bd00:	e92d 41ff 	stmdb	sp!, {r0, r1, r2, r3, r4, r5, r6, r7, r8, lr}
 800bd04:	f04f 0802 	mov.w	r8, #2
 800bd08:	4604      	mov	r4, r0
 800bd0a:	460d      	mov	r5, r1
 800bd0c:	e9cd 2800 	strd	r2, r8, [sp]
 800bd10:	461f      	mov	r7, r3
 800bd12:	f64f 72ff 	movw	r2, #65535	; 0xffff
 800bd16:	2310      	movs	r3, #16
 800bd18:	f89d 6028 	ldrb.w	r6, [sp, #40]	; 0x28
 800bd1c:	f7fd fa6e 	bl	80091fc <ILI9341_Draw_String>
 800bd20:	f105 010f 	add.w	r1, r5, #15
 800bd24:	4620      	mov	r0, r4
 800bd26:	e9cd 7800 	strd	r7, r8, [sp]
 800bd2a:	2310      	movs	r3, #16
 800bd2c:	f64f 72ff 	movw	r2, #65535	; 0xffff
 800bd30:	f7fd fa64 	bl	80091fc <ILI9341_Draw_String>
 800bd34:	f104 004c 	add.w	r0, r4, #76	; 0x4c
 800bd38:	f105 0110 	add.w	r1, r5, #16
 800bd3c:	b126      	cbz	r6, 800bd48 <CHECK_CIRC+0x48>
 800bd3e:	2e01      	cmp	r6, #1
 800bd40:	d015      	beq.n	800bd6e <CHECK_CIRC+0x6e>
 800bd42:	b004      	add	sp, #16
 800bd44:	e8bd 81f0 	ldmia.w	sp!, {r4, r5, r6, r7, r8, pc}
 800bd48:	2401      	movs	r4, #1
 800bd4a:	4633      	mov	r3, r6
 800bd4c:	2210      	movs	r2, #16
 800bd4e:	9400      	str	r4, [sp, #0]
 800bd50:	e9cd 0102 	strd	r0, r1, [sp, #8]
 800bd54:	f7fc fff0 	bl	8008d38 <ILI9341_Draw_Circle>
 800bd58:	940a      	str	r4, [sp, #40]	; 0x28
 800bd5a:	f64f 73ff 	movw	r3, #65535	; 0xffff
 800bd5e:	220c      	movs	r2, #12
 800bd60:	e9dd 0102 	ldrd	r0, r1, [sp, #8]
 800bd64:	b004      	add	sp, #16
 800bd66:	e8bd 41f0 	ldmia.w	sp!, {r4, r5, r6, r7, r8, lr}
 800bd6a:	f7fc bfe5 	b.w	8008d38 <ILI9341_Draw_Circle>
 800bd6e:	2300      	movs	r3, #0
 800bd70:	2210      	movs	r2, #16
 800bd72:	9600      	str	r6, [sp, #0]
 800bd74:	e9cd 0102 	strd	r0, r1, [sp, #8]
 800bd78:	f7fc ffde 	bl	8008d38 <ILI9341_Draw_Circle>
 800bd7c:	f64f 73ff 	movw	r3, #65535	; 0xffff
 800bd80:	220c      	movs	r2, #12
 800bd82:	e9dd 0102 	ldrd	r0, r1, [sp, #8]
 800bd86:	9600      	str	r6, [sp, #0]
 800bd88:	f7fc ffd6 	bl	8008d38 <ILI9341_Draw_Circle>
 800bd8c:	960a      	str	r6, [sp, #40]	; 0x28
 800bd8e:	2300      	movs	r3, #0
 800bd90:	2208      	movs	r2, #8
 800bd92:	e7e5      	b.n	800bd60 <CHECK_CIRC+0x60>

0800bd94 <CHECK_CIRC_Activo>:
 800bd94:	b508      	push	{r3, lr}
 800bd96:	4b0b      	ldr	r3, [pc, #44]	; (800bdc4 <CHECK_CIRC_Activo+0x30>)
 800bd98:	681b      	ldr	r3, [r3, #0]
 800bd9a:	f100 023c 	add.w	r2, r0, #60	; 0x3c
 800bd9e:	4293      	cmp	r3, r2
 800bda0:	d90e      	bls.n	800bdc0 <CHECK_CIRC_Activo+0x2c>
 800bda2:	305c      	adds	r0, #92	; 0x5c
 800bda4:	4283      	cmp	r3, r0
 800bda6:	d20b      	bcs.n	800bdc0 <CHECK_CIRC_Activo+0x2c>
 800bda8:	4b07      	ldr	r3, [pc, #28]	; (800bdc8 <CHECK_CIRC_Activo+0x34>)
 800bdaa:	681b      	ldr	r3, [r3, #0]
 800bdac:	428b      	cmp	r3, r1
 800bdae:	d907      	bls.n	800bdc0 <CHECK_CIRC_Activo+0x2c>
 800bdb0:	3120      	adds	r1, #32
 800bdb2:	428b      	cmp	r3, r1
 800bdb4:	d204      	bcs.n	800bdc0 <CHECK_CIRC_Activo+0x2c>
 800bdb6:	20c8      	movs	r0, #200	; 0xc8
 800bdb8:	f7f7 fa7a 	bl	80032b0 <HAL_Delay>
 800bdbc:	2001      	movs	r0, #1
 800bdbe:	bd08      	pop	{r3, pc}
 800bdc0:	2000      	movs	r0, #0
 800bdc2:	e7fc      	b.n	800bdbe <CHECK_CIRC_Activo+0x2a>
 800bdc4:	20009fa0 	.word	0x20009fa0
 800bdc8:	20009fa4 	.word	0x20009fa4

0800bdcc <SPI_TransmitReceive>:
 800bdcc:	6803      	ldr	r3, [r0, #0]
 800bdce:	7319      	strb	r1, [r3, #12]
 800bdd0:	6803      	ldr	r3, [r0, #0]
 800bdd2:	6898      	ldr	r0, [r3, #8]
 800bdd4:	f010 0001 	ands.w	r0, r0, #1
 800bdd8:	bf1c      	itt	ne
 800bdda:	7b18      	ldrbne	r0, [r3, #12]
 800bddc:	b2c0      	uxtbne	r0, r0
 800bdde:	4770      	bx	lr

0800bde0 <SPI_TxByte>:
 800bde0:	4601      	mov	r1, r0
 800bde2:	4801      	ldr	r0, [pc, #4]	; (800bde8 <SPI_TxByte+0x8>)
 800bde4:	f7ff bff2 	b.w	800bdcc <SPI_TransmitReceive>
 800bde8:	200093c0 	.word	0x200093c0

0800bdec <SPI_RxByte>:
 800bdec:	4801      	ldr	r0, [pc, #4]	; (800bdf4 <SPI_RxByte+0x8>)
 800bdee:	21ff      	movs	r1, #255	; 0xff
 800bdf0:	f7ff bfec 	b.w	800bdcc <SPI_TransmitReceive>
 800bdf4:	200093c0 	.word	0x200093c0

0800bdf8 <SPI_RxBytePtr>:
 800bdf8:	b508      	push	{r3, lr}
 800bdfa:	4602      	mov	r2, r0
 800bdfc:	f7ff fff6 	bl	800bdec <SPI_RxByte>
 800be00:	7010      	strb	r0, [r2, #0]
 800be02:	bd08      	pop	{r3, pc}

0800be04 <f_BMP>:
 800be04:	e92d 4ff0 	stmdb	sp!, {r4, r5, r6, r7, r8, r9, sl, fp, lr}
 800be08:	4604      	mov	r4, r0
 800be0a:	f6ad 1d3c 	subw	sp, sp, #2364	; 0x93c
 800be0e:	4872      	ldr	r0, [pc, #456]	; (800bfd8 <f_BMP+0x1d4>)
 800be10:	460d      	mov	r5, r1
 800be12:	4617      	mov	r7, r2
 800be14:	f44f 5100 	mov.w	r1, #8192	; 0x2000
 800be18:	2201      	movs	r2, #1
 800be1a:	f7f8 fa81 	bl	8004320 <HAL_GPIO_WritePin>
 800be1e:	486f      	ldr	r0, [pc, #444]	; (800bfdc <f_BMP+0x1d8>)
 800be20:	2201      	movs	r2, #1
 800be22:	2180      	movs	r1, #128	; 0x80
 800be24:	f7f8 fa7c 	bl	8004320 <HAL_GPIO_WritePin>
 800be28:	486c      	ldr	r0, [pc, #432]	; (800bfdc <f_BMP+0x1d8>)
 800be2a:	2200      	movs	r2, #0
 800be2c:	2108      	movs	r1, #8
 800be2e:	f7f8 fa77 	bl	8004320 <HAL_GPIO_WritePin>
 800be32:	4621      	mov	r1, r4
 800be34:	2201      	movs	r2, #1
 800be36:	a8c3      	add	r0, sp, #780	; 0x30c
 800be38:	f7ff f812 	bl	800ae60 <f_open>
 800be3c:	ab02      	add	r3, sp, #8
 800be3e:	2236      	movs	r2, #54	; 0x36
 800be40:	a903      	add	r1, sp, #12
 800be42:	a8c3      	add	r0, sp, #780	; 0x30c
 800be44:	f7ff f8da 	bl	800affc <f_read>
 800be48:	f89d 301f 	ldrb.w	r3, [sp, #31]
 800be4c:	f89d 401e 	ldrb.w	r4, [sp, #30]
 800be50:	f89d 6022 	ldrb.w	r6, [sp, #34]	; 0x22
 800be54:	f89d 8016 	ldrb.w	r8, [sp, #22]
 800be58:	f89d 903a 	ldrb.w	r9, [sp, #58]	; 0x3a
 800be5c:	eb04 2403 	add.w	r4, r4, r3, lsl #8
 800be60:	f89d 3023 	ldrb.w	r3, [sp, #35]	; 0x23
 800be64:	eb06 2603 	add.w	r6, r6, r3, lsl #8
 800be68:	f89d 3017 	ldrb.w	r3, [sp, #23]
 800be6c:	eb08 2803 	add.w	r8, r8, r3, lsl #8
 800be70:	f89d 303b 	ldrb.w	r3, [sp, #59]	; 0x3b
 800be74:	f50d 6ba7 	add.w	fp, sp, #1336	; 0x538
 800be78:	eb09 2903 	add.w	r9, r9, r3, lsl #8
 800be7c:	f04f 0a00 	mov.w	sl, #0
 800be80:	45ca      	cmp	sl, r9
 800be82:	d14d      	bne.n	800bf20 <f_BMP+0x11c>
 800be84:	4641      	mov	r1, r8
 800be86:	a8c3      	add	r0, sp, #780	; 0x30c
 800be88:	f7ff f9f1 	bl	800b26e <f_lseek>
 800be8c:	4853      	ldr	r0, [pc, #332]	; (800bfdc <f_BMP+0x1d8>)
 800be8e:	2201      	movs	r2, #1
 800be90:	2108      	movs	r1, #8
 800be92:	f7f8 fa45 	bl	8004320 <HAL_GPIO_WritePin>
 800be96:	2200      	movs	r2, #0
 800be98:	2180      	movs	r1, #128	; 0x80
 800be9a:	4850      	ldr	r0, [pc, #320]	; (800bfdc <f_BMP+0x1d8>)
 800be9c:	f7f8 fa40 	bl	8004320 <HAL_GPIO_WritePin>
 800bea0:	2004      	movs	r0, #4
 800bea2:	f7fc fe73 	bl	8008b8c <ILI9341_Set_Rotation>
 800bea6:	1962      	adds	r2, r4, r5
 800bea8:	f1c7 01f0 	rsb	r1, r7, #240	; 0xf0
 800beac:	f1c7 03ef 	rsb	r3, r7, #239	; 0xef
 800beb0:	1b89      	subs	r1, r1, r6
 800beb2:	3a01      	subs	r2, #1
 800beb4:	4628      	mov	r0, r5
 800beb6:	f7fc fea7 	bl	8008c08 <ILI9341_Set_Address>
 800beba:	4848      	ldr	r0, [pc, #288]	; (800bfdc <f_BMP+0x1d8>)
 800bebc:	2200      	movs	r2, #0
 800bebe:	f44f 7100 	mov.w	r1, #512	; 0x200
 800bec2:	f7f8 fa2d 	bl	8004320 <HAL_GPIO_WritePin>
 800bec6:	232c      	movs	r3, #44	; 0x2c
 800bec8:	f88d 300c 	strb.w	r3, [sp, #12]
 800becc:	2301      	movs	r3, #1
 800bece:	461a      	mov	r2, r3
 800bed0:	a903      	add	r1, sp, #12
 800bed2:	4843      	ldr	r0, [pc, #268]	; (800bfe0 <f_BMP+0x1dc>)
 800bed4:	f7f9 fe81 	bl	8005bda <HAL_SPI_Transmit>
 800bed8:	4840      	ldr	r0, [pc, #256]	; (800bfdc <f_BMP+0x1d8>)
 800beda:	2201      	movs	r2, #1
 800bedc:	2180      	movs	r1, #128	; 0x80
 800bede:	f7f8 fa1f 	bl	8004320 <HAL_GPIO_WritePin>
 800bee2:	fb06 f804 	mul.w	r8, r6, r4
 800bee6:	4c3d      	ldr	r4, [pc, #244]	; (800bfdc <f_BMP+0x1d8>)
 800bee8:	4e3d      	ldr	r6, [pc, #244]	; (800bfe0 <f_BMP+0x1dc>)
 800beea:	2500      	movs	r5, #0
 800beec:	4545      	cmp	r5, r8
 800beee:	f04f 0201 	mov.w	r2, #1
 800bef2:	f04f 0180 	mov.w	r1, #128	; 0x80
 800bef6:	d32c      	bcc.n	800bf52 <f_BMP+0x14e>
 800bef8:	4838      	ldr	r0, [pc, #224]	; (800bfdc <f_BMP+0x1d8>)
 800befa:	f7f8 fa11 	bl	8004320 <HAL_GPIO_WritePin>
 800befe:	2200      	movs	r2, #0
 800bf00:	2108      	movs	r1, #8
 800bf02:	4836      	ldr	r0, [pc, #216]	; (800bfdc <f_BMP+0x1d8>)
 800bf04:	f7f8 fa0c 	bl	8004320 <HAL_GPIO_WritePin>
 800bf08:	a8c3      	add	r0, sp, #780	; 0x30c
 800bf0a:	f7ff f99f 	bl	800b24c <f_close>
 800bf0e:	4833      	ldr	r0, [pc, #204]	; (800bfdc <f_BMP+0x1d8>)
 800bf10:	2201      	movs	r2, #1
 800bf12:	2108      	movs	r1, #8
 800bf14:	f7f8 fa04 	bl	8004320 <HAL_GPIO_WritePin>
 800bf18:	f60d 1d3c 	addw	sp, sp, #2364	; 0x93c
 800bf1c:	e8bd 8ff0 	ldmia.w	sp!, {r4, r5, r6, r7, r8, r9, sl, fp, pc}
 800bf20:	2204      	movs	r2, #4
 800bf22:	ab02      	add	r3, sp, #8
 800bf24:	eb0d 0102 	add.w	r1, sp, r2
 800bf28:	a8c3      	add	r0, sp, #780	; 0x30c
 800bf2a:	f7ff f867 	bl	800affc <f_read>
 800bf2e:	f89d 3006 	ldrb.w	r3, [sp, #6]
 800bf32:	f89d 2005 	ldrb.w	r2, [sp, #5]
 800bf36:	08db      	lsrs	r3, r3, #3
 800bf38:	0892      	lsrs	r2, r2, #2
 800bf3a:	eb02 1283 	add.w	r2, r2, r3, lsl #6
 800bf3e:	f89d 3004 	ldrb.w	r3, [sp, #4]
 800bf42:	08db      	lsrs	r3, r3, #3
 800bf44:	eb03 1342 	add.w	r3, r3, r2, lsl #5
 800bf48:	f84b 3b04 	str.w	r3, [fp], #4
 800bf4c:	f10a 0a01 	add.w	sl, sl, #1
 800bf50:	e796      	b.n	800be80 <f_BMP+0x7c>
 800bf52:	4620      	mov	r0, r4
 800bf54:	f7f8 f9e4 	bl	8004320 <HAL_GPIO_WritePin>
 800bf58:	2200      	movs	r2, #0
 800bf5a:	2108      	movs	r1, #8
 800bf5c:	4620      	mov	r0, r4
 800bf5e:	f7f8 f9df 	bl	8004320 <HAL_GPIO_WritePin>
 800bf62:	ab02      	add	r3, sp, #8
 800bf64:	f44f 7280 	mov.w	r2, #256	; 0x100
 800bf68:	a903      	add	r1, sp, #12
 800bf6a:	a8c3      	add	r0, sp, #780	; 0x30c
 800bf6c:	f7ff f846 	bl	800affc <f_read>
 800bf70:	ab43      	add	r3, sp, #268	; 0x10c
 800bf72:	a803      	add	r0, sp, #12
 800bf74:	2200      	movs	r2, #0
 800bf76:	461f      	mov	r7, r3
 800bf78:	f50d 6ea7 	add.w	lr, sp, #1336	; 0x538
 800bf7c:	f810 1b01 	ldrb.w	r1, [r0], #1
 800bf80:	f85e 1021 	ldr.w	r1, [lr, r1, lsl #2]
 800bf84:	7059      	strb	r1, [r3, #1]
 800bf86:	3201      	adds	r2, #1
 800bf88:	ea4f 2c11 	mov.w	ip, r1, lsr #8
 800bf8c:	f5b2 7f80 	cmp.w	r2, #256	; 0x100
 800bf90:	f883 c000 	strb.w	ip, [r3]
 800bf94:	f103 0302 	add.w	r3, r3, #2
 800bf98:	d1f0      	bne.n	800bf7c <f_BMP+0x178>
 800bf9a:	2201      	movs	r2, #1
 800bf9c:	2108      	movs	r1, #8
 800bf9e:	4620      	mov	r0, r4
 800bfa0:	f7f8 f9be 	bl	8004320 <HAL_GPIO_WritePin>
 800bfa4:	2200      	movs	r2, #0
 800bfa6:	2180      	movs	r1, #128	; 0x80
 800bfa8:	4620      	mov	r0, r4
 800bfaa:	f7f8 f9b9 	bl	8004320 <HAL_GPIO_WritePin>
 800bfae:	2201      	movs	r2, #1
 800bfb0:	f44f 7100 	mov.w	r1, #512	; 0x200
 800bfb4:	4620      	mov	r0, r4
 800bfb6:	f7f8 f9b3 	bl	8004320 <HAL_GPIO_WritePin>
 800bfba:	2364      	movs	r3, #100	; 0x64
 800bfbc:	f44f 7200 	mov.w	r2, #512	; 0x200
 800bfc0:	4639      	mov	r1, r7
 800bfc2:	4630      	mov	r0, r6
 800bfc4:	f7f9 fe09 	bl	8005bda <HAL_SPI_Transmit>
 800bfc8:	2201      	movs	r2, #1
 800bfca:	2180      	movs	r1, #128	; 0x80
 800bfcc:	4620      	mov	r0, r4
 800bfce:	f7f8 f9a7 	bl	8004320 <HAL_GPIO_WritePin>
 800bfd2:	f505 7580 	add.w	r5, r5, #256	; 0x100
 800bfd6:	e789      	b.n	800beec <f_BMP+0xe8>
 800bfd8:	48000400 	.word	0x48000400
 800bfdc:	48000800 	.word	0x48000800
 800bfe0:	20009880 	.word	0x20009880

0800bfe4 <FillReg>:
 800bfe4:	e92d 41f0 	stmdb	sp!, {r4, r5, r6, r7, r8, lr}
 800bfe8:	f5ad 7d20 	sub.w	sp, sp, #640	; 0x280
 800bfec:	4606      	mov	r6, r0
 800bfee:	460f      	mov	r7, r1
 800bff0:	4829      	ldr	r0, [pc, #164]	; (800c098 <FillReg+0xb4>)
 800bff2:	f8dd 8298 	ldr.w	r8, [sp, #664]	; 0x298
 800bff6:	4614      	mov	r4, r2
 800bff8:	2108      	movs	r1, #8
 800bffa:	2201      	movs	r2, #1
 800bffc:	461d      	mov	r5, r3
 800bffe:	f7f8 f98f 	bl	8004320 <HAL_GPIO_WritePin>
 800c002:	2200      	movs	r2, #0
 800c004:	2180      	movs	r1, #128	; 0x80
 800c006:	4824      	ldr	r0, [pc, #144]	; (800c098 <FillReg+0xb4>)
 800c008:	f7f8 f98a 	bl	8004320 <HAL_GPIO_WritePin>
 800c00c:	2004      	movs	r0, #4
 800c00e:	f7fc fdbd 	bl	8008b8c <ILI9341_Set_Rotation>
 800c012:	1e72      	subs	r2, r6, #1
 800c014:	f1c7 01f0 	rsb	r1, r7, #240	; 0xf0
 800c018:	f1c7 03ef 	rsb	r3, r7, #239	; 0xef
 800c01c:	4422      	add	r2, r4
 800c01e:	1b49      	subs	r1, r1, r5
 800c020:	4630      	mov	r0, r6
 800c022:	f7fc fdf1 	bl	8008c08 <ILI9341_Set_Address>
 800c026:	481c      	ldr	r0, [pc, #112]	; (800c098 <FillReg+0xb4>)
 800c028:	2200      	movs	r2, #0
 800c02a:	f44f 7100 	mov.w	r1, #512	; 0x200
 800c02e:	f7f8 f977 	bl	8004320 <HAL_GPIO_WritePin>
 800c032:	232c      	movs	r3, #44	; 0x2c
 800c034:	f88d 3000 	strb.w	r3, [sp]
 800c038:	2301      	movs	r3, #1
 800c03a:	461a      	mov	r2, r3
 800c03c:	4669      	mov	r1, sp
 800c03e:	4817      	ldr	r0, [pc, #92]	; (800c09c <FillReg+0xb8>)
 800c040:	f7f9 fdcb 	bl	8005bda <HAL_SPI_Transmit>
 800c044:	f3c8 2107 	ubfx	r1, r8, #8, #8
 800c048:	2200      	movs	r2, #0
 800c04a:	1c53      	adds	r3, r2, #1
 800c04c:	b292      	uxth	r2, r2
 800c04e:	4294      	cmp	r4, r2
 800c050:	d812      	bhi.n	800c078 <FillReg+0x94>
 800c052:	4811      	ldr	r0, [pc, #68]	; (800c098 <FillReg+0xb4>)
 800c054:	4f11      	ldr	r7, [pc, #68]	; (800c09c <FillReg+0xb8>)
 800c056:	2201      	movs	r2, #1
 800c058:	f44f 7100 	mov.w	r1, #512	; 0x200
 800c05c:	f7f8 f960 	bl	8004320 <HAL_GPIO_WritePin>
 800c060:	0064      	lsls	r4, r4, #1
 800c062:	b2a4      	uxth	r4, r4
 800c064:	2600      	movs	r6, #0
 800c066:	b2b3      	uxth	r3, r6
 800c068:	42ab      	cmp	r3, r5
 800c06a:	f106 0601 	add.w	r6, r6, #1
 800c06e:	d30b      	bcc.n	800c088 <FillReg+0xa4>
 800c070:	f50d 7d20 	add.w	sp, sp, #640	; 0x280
 800c074:	e8bd 81f0 	ldmia.w	sp!, {r4, r5, r6, r7, r8, pc}
 800c078:	f80d 1012 	strb.w	r1, [sp, r2, lsl #1]
 800c07c:	eb0d 0242 	add.w	r2, sp, r2, lsl #1
 800c080:	f882 8001 	strb.w	r8, [r2, #1]
 800c084:	461a      	mov	r2, r3
 800c086:	e7e0      	b.n	800c04a <FillReg+0x66>
 800c088:	230a      	movs	r3, #10
 800c08a:	4622      	mov	r2, r4
 800c08c:	4669      	mov	r1, sp
 800c08e:	4638      	mov	r0, r7
 800c090:	f7f9 fda3 	bl	8005bda <HAL_SPI_Transmit>
 800c094:	e7e7      	b.n	800c066 <FillReg+0x82>
 800c096:	bf00      	nop
 800c098:	48000800 	.word	0x48000800
 800c09c:	20009880 	.word	0x20009880

0800c0a0 <BOW>:
 800c0a0:	e92d 4ff0 	stmdb	sp!, {r4, r5, r6, r7, r8, r9, sl, fp, lr}
 800c0a4:	ed2d 8b04 	vpush	{d8-d9}
 800c0a8:	b085      	sub	sp, #20
 800c0aa:	461c      	mov	r4, r3
 800c0ac:	4606      	mov	r6, r0
 800c0ae:	9b12      	ldr	r3, [sp, #72]	; 0x48
 800c0b0:	48bd      	ldr	r0, [pc, #756]	; (800c3a8 <BOW+0x308>)
 800c0b2:	9302      	str	r3, [sp, #8]
 800c0b4:	460d      	mov	r5, r1
 800c0b6:	4617      	mov	r7, r2
 800c0b8:	f44f 5100 	mov.w	r1, #8192	; 0x2000
 800c0bc:	2201      	movs	r2, #1
 800c0be:	f7f8 f92f 	bl	8004320 <HAL_GPIO_WritePin>
 800c0c2:	48ba      	ldr	r0, [pc, #744]	; (800c3ac <BOW+0x30c>)
 800c0c4:	2201      	movs	r2, #1
 800c0c6:	2108      	movs	r1, #8
 800c0c8:	f7f8 f92a 	bl	8004320 <HAL_GPIO_WritePin>
 800c0cc:	48b7      	ldr	r0, [pc, #732]	; (800c3ac <BOW+0x30c>)
 800c0ce:	2200      	movs	r2, #0
 800c0d0:	2180      	movs	r1, #128	; 0x80
 800c0d2:	f7f8 f925 	bl	8004320 <HAL_GPIO_WritePin>
 800c0d6:	9802      	ldr	r0, [sp, #8]
 800c0d8:	f7f4 f882 	bl	80001e0 <strlen>
 800c0dc:	b2c0      	uxtb	r0, r0
 800c0de:	1a20      	subs	r0, r4, r0
 800c0e0:	ebc0 00c0 	rsb	r0, r0, r0, lsl #3
 800c0e4:	f106 0802 	add.w	r8, r6, #2
 800c0e8:	1ceb      	adds	r3, r5, #3
 800c0ea:	ebc4 04c4 	rsb	r4, r4, r4, lsl #3
 800c0ee:	4440      	add	r0, r8
 800c0f0:	b29b      	uxth	r3, r3
 800c0f2:	0064      	lsls	r4, r4, #1
 800c0f4:	2f01      	cmp	r7, #1
 800c0f6:	fa1f fb80 	uxth.w	fp, r0
 800c0fa:	9303      	str	r3, [sp, #12]
 800c0fc:	b2a4      	uxth	r4, r4
 800c0fe:	d04d      	beq.n	800c19c <BOW+0xfc>
 800c100:	2f02      	cmp	r7, #2
 800c102:	f000 8098 	beq.w	800c236 <BOW+0x196>
 800c106:	2f00      	cmp	r7, #0
 800c108:	f040 8148 	bne.w	800c39c <BOW+0x2fc>
 800c10c:	f105 0902 	add.w	r9, r5, #2
 800c110:	f24c 6a18 	movw	sl, #50712	; 0xc618
 800c114:	2323      	movs	r3, #35	; 0x23
 800c116:	1ea2      	subs	r2, r4, #2
 800c118:	4649      	mov	r1, r9
 800c11a:	4640      	mov	r0, r8
 800c11c:	f8cd a000 	str.w	sl, [sp]
 800c120:	f7ff ff60 	bl	800bfe4 <FillReg>
 800c124:	2304      	movs	r3, #4
 800c126:	9301      	str	r3, [sp, #4]
 800c128:	9b02      	ldr	r3, [sp, #8]
 800c12a:	9903      	ldr	r1, [sp, #12]
 800c12c:	9300      	str	r3, [sp, #0]
 800c12e:	463a      	mov	r2, r7
 800c130:	4653      	mov	r3, sl
 800c132:	4658      	mov	r0, fp
 800c134:	f7fd f862 	bl	80091fc <ILI9341_Draw_String>
 800c138:	4629      	mov	r1, r5
 800c13a:	2302      	movs	r3, #2
 800c13c:	4622      	mov	r2, r4
 800c13e:	4630      	mov	r0, r6
 800c140:	9700      	str	r7, [sp, #0]
 800c142:	f7ff ff4f 	bl	800bfe4 <FillReg>
 800c146:	4629      	mov	r1, r5
 800c148:	2325      	movs	r3, #37	; 0x25
 800c14a:	2202      	movs	r2, #2
 800c14c:	4630      	mov	r0, r6
 800c14e:	9700      	str	r7, [sp, #0]
 800c150:	f7ff ff48 	bl	800bfe4 <FillReg>
 800c154:	4629      	mov	r1, r5
 800c156:	2325      	movs	r3, #37	; 0x25
 800c158:	2202      	movs	r2, #2
 800c15a:	19a0      	adds	r0, r4, r6
 800c15c:	9700      	str	r7, [sp, #0]
 800c15e:	f7ff ff41 	bl	800bfe4 <FillReg>
 800c162:	f105 0123 	add.w	r1, r5, #35	; 0x23
 800c166:	2302      	movs	r3, #2
 800c168:	4622      	mov	r2, r4
 800c16a:	4630      	mov	r0, r6
 800c16c:	f64f 75ff 	movw	r5, #65535	; 0xffff
 800c170:	9700      	str	r7, [sp, #0]
 800c172:	f7ff ff37 	bl	800bfe4 <FillReg>
 800c176:	2302      	movs	r3, #2
 800c178:	1f22      	subs	r2, r4, #4
 800c17a:	4649      	mov	r1, r9
 800c17c:	4640      	mov	r0, r8
 800c17e:	9500      	str	r5, [sp, #0]
 800c180:	f7ff ff30 	bl	800bfe4 <FillReg>
 800c184:	9512      	str	r5, [sp, #72]	; 0x48
 800c186:	2321      	movs	r3, #33	; 0x21
 800c188:	2202      	movs	r2, #2
 800c18a:	4649      	mov	r1, r9
 800c18c:	4640      	mov	r0, r8
 800c18e:	b005      	add	sp, #20
 800c190:	ecbd 8b04 	vpop	{d8-d9}
 800c194:	e8bd 4ff0 	ldmia.w	sp!, {r4, r5, r6, r7, r8, r9, sl, fp, lr}
 800c198:	f7ff bf24 	b.w	800bfe4 <FillReg>
 800c19c:	f24c 6918 	movw	r9, #50712	; 0xc618
 800c1a0:	1caf      	adds	r7, r5, #2
 800c1a2:	f8cd 9000 	str.w	r9, [sp]
 800c1a6:	2323      	movs	r3, #35	; 0x23
 800c1a8:	1ea2      	subs	r2, r4, #2
 800c1aa:	4639      	mov	r1, r7
 800c1ac:	4640      	mov	r0, r8
 800c1ae:	f7ff ff19 	bl	800bfe4 <FillReg>
 800c1b2:	9903      	ldr	r1, [sp, #12]
 800c1b4:	2304      	movs	r3, #4
 800c1b6:	9301      	str	r3, [sp, #4]
 800c1b8:	9b02      	ldr	r3, [sp, #8]
 800c1ba:	9300      	str	r3, [sp, #0]
 800c1bc:	2200      	movs	r2, #0
 800c1be:	464b      	mov	r3, r9
 800c1c0:	3101      	adds	r1, #1
 800c1c2:	f04f 0900 	mov.w	r9, #0
 800c1c6:	f10b 0001 	add.w	r0, fp, #1
 800c1ca:	f7fd f817 	bl	80091fc <ILI9341_Draw_String>
 800c1ce:	4630      	mov	r0, r6
 800c1d0:	2302      	movs	r3, #2
 800c1d2:	4622      	mov	r2, r4
 800c1d4:	4629      	mov	r1, r5
 800c1d6:	f8cd 9000 	str.w	r9, [sp]
 800c1da:	f7ff ff03 	bl	800bfe4 <FillReg>
 800c1de:	eb04 0a06 	add.w	sl, r4, r6
 800c1e2:	4630      	mov	r0, r6
 800c1e4:	2325      	movs	r3, #37	; 0x25
 800c1e6:	2202      	movs	r2, #2
 800c1e8:	4629      	mov	r1, r5
 800c1ea:	f8cd 9000 	str.w	r9, [sp]
 800c1ee:	f7ff fef9 	bl	800bfe4 <FillReg>
 800c1f2:	2325      	movs	r3, #37	; 0x25
 800c1f4:	2202      	movs	r2, #2
 800c1f6:	4629      	mov	r1, r5
 800c1f8:	4650      	mov	r0, sl
 800c1fa:	f8cd 9000 	str.w	r9, [sp]
 800c1fe:	f7ff fef1 	bl	800bfe4 <FillReg>
 800c202:	4630      	mov	r0, r6
 800c204:	2302      	movs	r3, #2
 800c206:	4622      	mov	r2, r4
 800c208:	f105 0123 	add.w	r1, r5, #35	; 0x23
 800c20c:	f64f 76ff 	movw	r6, #65535	; 0xffff
 800c210:	f8cd 9000 	str.w	r9, [sp]
 800c214:	f7ff fee6 	bl	800bfe4 <FillReg>
 800c218:	2302      	movs	r3, #2
 800c21a:	1f22      	subs	r2, r4, #4
 800c21c:	f105 0121 	add.w	r1, r5, #33	; 0x21
 800c220:	4640      	mov	r0, r8
 800c222:	9600      	str	r6, [sp, #0]
 800c224:	f7ff fede 	bl	800bfe4 <FillReg>
 800c228:	9612      	str	r6, [sp, #72]	; 0x48
 800c22a:	2321      	movs	r3, #33	; 0x21
 800c22c:	2202      	movs	r2, #2
 800c22e:	4639      	mov	r1, r7
 800c230:	f1aa 0002 	sub.w	r0, sl, #2
 800c234:	e7ab      	b.n	800c18e <BOW+0xee>
 800c236:	1ea3      	subs	r3, r4, #2
 800c238:	ee08 3a90 	vmov	s17, r3
 800c23c:	f24c 6a18 	movw	sl, #50712	; 0xc618
 800c240:	f105 0902 	add.w	r9, r5, #2
 800c244:	ee18 2a90 	vmov	r2, s17
 800c248:	f8cd a000 	str.w	sl, [sp]
 800c24c:	2323      	movs	r3, #35	; 0x23
 800c24e:	4649      	mov	r1, r9
 800c250:	4640      	mov	r0, r8
 800c252:	f7ff fec7 	bl	800bfe4 <FillReg>
 800c256:	9903      	ldr	r1, [sp, #12]
 800c258:	2304      	movs	r3, #4
 800c25a:	9301      	str	r3, [sp, #4]
 800c25c:	9b02      	ldr	r3, [sp, #8]
 800c25e:	9300      	str	r3, [sp, #0]
 800c260:	2200      	movs	r2, #0
 800c262:	4653      	mov	r3, sl
 800c264:	3101      	adds	r1, #1
 800c266:	f04f 0a00 	mov.w	sl, #0
 800c26a:	f10b 0001 	add.w	r0, fp, #1
 800c26e:	f7fc ffc5 	bl	80091fc <ILI9341_Draw_String>
 800c272:	463b      	mov	r3, r7
 800c274:	f8cd a000 	str.w	sl, [sp]
 800c278:	4622      	mov	r2, r4
 800c27a:	4629      	mov	r1, r5
 800c27c:	4630      	mov	r0, r6
 800c27e:	f7ff feb1 	bl	800bfe4 <FillReg>
 800c282:	463a      	mov	r2, r7
 800c284:	f8cd a000 	str.w	sl, [sp]
 800c288:	2325      	movs	r3, #37	; 0x25
 800c28a:	4629      	mov	r1, r5
 800c28c:	4630      	mov	r0, r6
 800c28e:	f7ff fea9 	bl	800bfe4 <FillReg>
 800c292:	19a3      	adds	r3, r4, r6
 800c294:	ee08 3a10 	vmov	s16, r3
 800c298:	463a      	mov	r2, r7
 800c29a:	ee18 0a10 	vmov	r0, s16
 800c29e:	f8cd a000 	str.w	sl, [sp]
 800c2a2:	2325      	movs	r3, #37	; 0x25
 800c2a4:	4629      	mov	r1, r5
 800c2a6:	f7ff fe9d 	bl	800bfe4 <FillReg>
 800c2aa:	f105 0323 	add.w	r3, r5, #35	; 0x23
 800c2ae:	ee09 3a10 	vmov	s18, r3
 800c2b2:	f8cd a000 	str.w	sl, [sp]
 800c2b6:	463b      	mov	r3, r7
 800c2b8:	ee19 1a10 	vmov	r1, s18
 800c2bc:	4622      	mov	r2, r4
 800c2be:	4630      	mov	r0, r6
 800c2c0:	f7ff fe90 	bl	800bfe4 <FillReg>
 800c2c4:	f1a4 0a04 	sub.w	sl, r4, #4
 800c2c8:	f64f 73ff 	movw	r3, #65535	; 0xffff
 800c2cc:	9300      	str	r3, [sp, #0]
 800c2ce:	4652      	mov	r2, sl
 800c2d0:	463b      	mov	r3, r7
 800c2d2:	f105 0121 	add.w	r1, r5, #33	; 0x21
 800c2d6:	4640      	mov	r0, r8
 800c2d8:	f7ff fe84 	bl	800bfe4 <FillReg>
 800c2dc:	ee18 0a10 	vmov	r0, s16
 800c2e0:	f64f 73ff 	movw	r3, #65535	; 0xffff
 800c2e4:	9300      	str	r3, [sp, #0]
 800c2e6:	463a      	mov	r2, r7
 800c2e8:	2321      	movs	r3, #33	; 0x21
 800c2ea:	4649      	mov	r1, r9
 800c2ec:	3802      	subs	r0, #2
 800c2ee:	f7ff fe79 	bl	800bfe4 <FillReg>
 800c2f2:	4f2d      	ldr	r7, [pc, #180]	; (800c3a8 <BOW+0x308>)
 800c2f4:	2102      	movs	r1, #2
 800c2f6:	4638      	mov	r0, r7
 800c2f8:	f7f8 f80c 	bl	8004314 <HAL_GPIO_ReadPin>
 800c2fc:	2800      	cmp	r0, #0
 800c2fe:	d0f9      	beq.n	800c2f4 <BOW+0x254>
 800c300:	f24c 6718 	movw	r7, #50712	; 0xc618
 800c304:	20ff      	movs	r0, #255	; 0xff
 800c306:	f7f6 ffd3 	bl	80032b0 <HAL_Delay>
 800c30a:	ee18 2a90 	vmov	r2, s17
 800c30e:	9700      	str	r7, [sp, #0]
 800c310:	4649      	mov	r1, r9
 800c312:	4640      	mov	r0, r8
 800c314:	2323      	movs	r3, #35	; 0x23
 800c316:	f7ff fe65 	bl	800bfe4 <FillReg>
 800c31a:	2304      	movs	r3, #4
 800c31c:	9301      	str	r3, [sp, #4]
 800c31e:	9b02      	ldr	r3, [sp, #8]
 800c320:	9903      	ldr	r1, [sp, #12]
 800c322:	9300      	str	r3, [sp, #0]
 800c324:	4658      	mov	r0, fp
 800c326:	463b      	mov	r3, r7
 800c328:	2200      	movs	r2, #0
 800c32a:	2700      	movs	r7, #0
 800c32c:	f7fc ff66 	bl	80091fc <ILI9341_Draw_String>
 800c330:	4622      	mov	r2, r4
 800c332:	4629      	mov	r1, r5
 800c334:	4630      	mov	r0, r6
 800c336:	9700      	str	r7, [sp, #0]
 800c338:	2302      	movs	r3, #2
 800c33a:	f7ff fe53 	bl	800bfe4 <FillReg>
 800c33e:	4629      	mov	r1, r5
 800c340:	4630      	mov	r0, r6
 800c342:	9700      	str	r7, [sp, #0]
 800c344:	2325      	movs	r3, #37	; 0x25
 800c346:	2202      	movs	r2, #2
 800c348:	f7ff fe4c 	bl	800bfe4 <FillReg>
 800c34c:	ee18 0a10 	vmov	r0, s16
 800c350:	4629      	mov	r1, r5
 800c352:	9700      	str	r7, [sp, #0]
 800c354:	2325      	movs	r3, #37	; 0x25
 800c356:	2202      	movs	r2, #2
 800c358:	f7ff fe44 	bl	800bfe4 <FillReg>
 800c35c:	ee19 1a10 	vmov	r1, s18
 800c360:	4622      	mov	r2, r4
 800c362:	4630      	mov	r0, r6
 800c364:	f64f 74ff 	movw	r4, #65535	; 0xffff
 800c368:	9700      	str	r7, [sp, #0]
 800c36a:	2302      	movs	r3, #2
 800c36c:	f7ff fe3a 	bl	800bfe4 <FillReg>
 800c370:	4652      	mov	r2, sl
 800c372:	4649      	mov	r1, r9
 800c374:	4640      	mov	r0, r8
 800c376:	9400      	str	r4, [sp, #0]
 800c378:	2302      	movs	r3, #2
 800c37a:	f7ff fe33 	bl	800bfe4 <FillReg>
 800c37e:	4640      	mov	r0, r8
 800c380:	9400      	str	r4, [sp, #0]
 800c382:	2321      	movs	r3, #33	; 0x21
 800c384:	2202      	movs	r2, #2
 800c386:	4649      	mov	r1, r9
 800c388:	f7ff fe2c 	bl	800bfe4 <FillReg>
 800c38c:	2037      	movs	r0, #55	; 0x37
 800c38e:	b005      	add	sp, #20
 800c390:	ecbd 8b04 	vpop	{d8-d9}
 800c394:	e8bd 4ff0 	ldmia.w	sp!, {r4, r5, r6, r7, r8, r9, sl, fp, lr}
 800c398:	f7f6 bf8a 	b.w	80032b0 <HAL_Delay>
 800c39c:	b005      	add	sp, #20
 800c39e:	ecbd 8b04 	vpop	{d8-d9}
 800c3a2:	e8bd 8ff0 	ldmia.w	sp!, {r4, r5, r6, r7, r8, r9, sl, fp, pc}
 800c3a6:	bf00      	nop
 800c3a8:	48000400 	.word	0x48000400
 800c3ac:	48000800 	.word	0x48000800

0800c3b0 <Encabezamiento3>:
 800c3b0:	b573      	push	{r0, r1, r4, r5, r6, lr}
 800c3b2:	2100      	movs	r1, #0
 800c3b4:	2610      	movs	r6, #16
 800c3b6:	4605      	mov	r5, r0
 800c3b8:	2321      	movs	r3, #33	; 0x21
 800c3ba:	4608      	mov	r0, r1
 800c3bc:	f240 123f 	movw	r2, #319	; 0x13f
 800c3c0:	9600      	str	r6, [sp, #0]
 800c3c2:	f7ff fe0f 	bl	800bfe4 <FillReg>
 800c3c6:	4628      	mov	r0, r5
 800c3c8:	f7f3 ff0a 	bl	80001e0 <strlen>
 800c3cc:	b2c3      	uxtb	r3, r0
 800c3ce:	f1c3 0316 	rsb	r3, r3, #22
 800c3d2:	eb03 73d3 	add.w	r3, r3, r3, lsr #31
 800c3d6:	f3c3 044f 	ubfx	r4, r3, #1, #16
 800c3da:	230e      	movs	r3, #14
 800c3dc:	435c      	muls	r4, r3
 800c3de:	2304      	movs	r3, #4
 800c3e0:	e9cd 5300 	strd	r5, r3, [sp]
 800c3e4:	f64f 72ff 	movw	r2, #65535	; 0xffff
 800c3e8:	4633      	mov	r3, r6
 800c3ea:	2100      	movs	r1, #0
 800c3ec:	1de0      	adds	r0, r4, #7
 800c3ee:	f7fc ff05 	bl	80091fc <ILI9341_Draw_String>
 800c3f2:	b002      	add	sp, #8
 800c3f4:	bd70      	pop	{r4, r5, r6, pc}
	...

0800c3f8 <GraficarOSC>:
 800c3f8:	e92d 4ff0 	stmdb	sp!, {r4, r5, r6, r7, r8, r9, sl, fp, lr}
 800c3fc:	48ac      	ldr	r0, [pc, #688]	; (800c6b0 <GraficarOSC+0x2b8>)
 800c3fe:	b0ff      	sub	sp, #508	; 0x1fc
 800c400:	2201      	movs	r2, #1
 800c402:	2108      	movs	r1, #8
 800c404:	f7f7 ff8c 	bl	8004320 <HAL_GPIO_WritePin>
 800c408:	2200      	movs	r2, #0
 800c40a:	2180      	movs	r1, #128	; 0x80
 800c40c:	48a8      	ldr	r0, [pc, #672]	; (800c6b0 <GraficarOSC+0x2b8>)
 800c40e:	f7f7 ff87 	bl	8004320 <HAL_GPIO_WritePin>
 800c412:	2000      	movs	r0, #0
 800c414:	f7fc fbba 	bl	8008b8c <ILI9341_Set_Rotation>
 800c418:	2100      	movs	r1, #0
 800c41a:	f240 133f 	movw	r3, #319	; 0x13f
 800c41e:	22ef      	movs	r2, #239	; 0xef
 800c420:	4608      	mov	r0, r1
 800c422:	f7fc fbf1 	bl	8008c08 <ILI9341_Set_Address>
 800c426:	ac01      	add	r4, sp, #4
 800c428:	48a1      	ldr	r0, [pc, #644]	; (800c6b0 <GraficarOSC+0x2b8>)
 800c42a:	2200      	movs	r2, #0
 800c42c:	f44f 7100 	mov.w	r1, #512	; 0x200
 800c430:	f7f7 ff76 	bl	8004320 <HAL_GPIO_WritePin>
 800c434:	232c      	movs	r3, #44	; 0x2c
 800c436:	7023      	strb	r3, [r4, #0]
 800c438:	2201      	movs	r2, #1
 800c43a:	230a      	movs	r3, #10
 800c43c:	4621      	mov	r1, r4
 800c43e:	489d      	ldr	r0, [pc, #628]	; (800c6b4 <GraficarOSC+0x2bc>)
 800c440:	f7f9 fbcb 	bl	8005bda <HAL_SPI_Transmit>
 800c444:	489a      	ldr	r0, [pc, #616]	; (800c6b0 <GraficarOSC+0x2b8>)
 800c446:	2201      	movs	r2, #1
 800c448:	f44f 7100 	mov.w	r1, #512	; 0x200
 800c44c:	f7f7 ff68 	bl	8004320 <HAL_GPIO_WritePin>
 800c450:	2500      	movs	r5, #0
 800c452:	b2ab      	uxth	r3, r5
 800c454:	b16d      	cbz	r5, 800c472 <GraficarOSC+0x7a>
 800c456:	2b32      	cmp	r3, #50	; 0x32
 800c458:	d00b      	beq.n	800c472 <GraficarOSC+0x7a>
 800c45a:	2b64      	cmp	r3, #100	; 0x64
 800c45c:	d009      	beq.n	800c472 <GraficarOSC+0x7a>
 800c45e:	2b96      	cmp	r3, #150	; 0x96
 800c460:	d007      	beq.n	800c472 <GraficarOSC+0x7a>
 800c462:	2bc8      	cmp	r3, #200	; 0xc8
 800c464:	d005      	beq.n	800c472 <GraficarOSC+0x7a>
 800c466:	2bfa      	cmp	r3, #250	; 0xfa
 800c468:	d003      	beq.n	800c472 <GraficarOSC+0x7a>
 800c46a:	f5b3 7f96 	cmp.w	r3, #300	; 0x12c
 800c46e:	f040 8088 	bne.w	800c582 <GraficarOSC+0x18a>
 800c472:	4623      	mov	r3, r4
 800c474:	2200      	movs	r2, #0
 800c476:	21ff      	movs	r1, #255	; 0xff
 800c478:	3201      	adds	r2, #1
 800c47a:	2af0      	cmp	r2, #240	; 0xf0
 800c47c:	7019      	strb	r1, [r3, #0]
 800c47e:	7059      	strb	r1, [r3, #1]
 800c480:	f103 0302 	add.w	r3, r3, #2
 800c484:	d1f8      	bne.n	800c478 <GraficarOSC+0x80>
 800c486:	f5b5 7f96 	cmp.w	r5, #300	; 0x12c
 800c48a:	d810      	bhi.n	800c4ae <GraficarOSC+0xb6>
 800c48c:	f64f 73ff 	movw	r3, #65535	; 0xffff
 800c490:	8023      	strh	r3, [r4, #0]
 800c492:	f8a4 3050 	strh.w	r3, [r4, #80]	; 0x50
 800c496:	f8a4 30a0 	strh.w	r3, [r4, #160]	; 0xa0
 800c49a:	f8a4 30f0 	strh.w	r3, [r4, #240]	; 0xf0
 800c49e:	f8a4 3140 	strh.w	r3, [r4, #320]	; 0x140
 800c4a2:	f8a4 3190 	strh.w	r3, [r4, #400]	; 0x190
 800c4a6:	f884 31df 	strb.w	r3, [r4, #479]	; 0x1df
 800c4aa:	f884 31e0 	strb.w	r3, [r4, #480]	; 0x1e0
 800c4ae:	4b82      	ldr	r3, [pc, #520]	; (800c6b8 <GraficarOSC+0x2c0>)
 800c4b0:	6819      	ldr	r1, [r3, #0]
 800c4b2:	00ab      	lsls	r3, r5, #2
 800c4b4:	3304      	adds	r3, #4
 800c4b6:	f04f 0878 	mov.w	r8, #120	; 0x78
 800c4ba:	f851 2025 	ldr.w	r2, [r1, r5, lsl #2]
 800c4be:	fbb2 f2f8 	udiv	r2, r2, r8
 800c4c2:	f102 0928 	add.w	r9, r2, #40	; 0x28
 800c4c6:	58ca      	ldr	r2, [r1, r3]
 800c4c8:	fbb2 fcf8 	udiv	ip, r2, r8
 800c4cc:	4a7b      	ldr	r2, [pc, #492]	; (800c6bc <GraficarOSC+0x2c4>)
 800c4ce:	6812      	ldr	r2, [r2, #0]
 800c4d0:	58d6      	ldr	r6, [r2, r3]
 800c4d2:	f852 7025 	ldr.w	r7, [r2, r5, lsl #2]
 800c4d6:	4a7a      	ldr	r2, [pc, #488]	; (800c6c0 <GraficarOSC+0x2c8>)
 800c4d8:	fbb7 f7f8 	udiv	r7, r7, r8
 800c4dc:	6812      	ldr	r2, [r2, #0]
 800c4de:	fbb6 f6f8 	udiv	r6, r6, r8
 800c4e2:	58d1      	ldr	r1, [r2, r3]
 800c4e4:	f852 0025 	ldr.w	r0, [r2, r5, lsl #2]
 800c4e8:	4a76      	ldr	r2, [pc, #472]	; (800c6c4 <GraficarOSC+0x2cc>)
 800c4ea:	fbb0 f0f8 	udiv	r0, r0, r8
 800c4ee:	f8d2 a000 	ldr.w	sl, [r2]
 800c4f2:	fbb1 f1f8 	udiv	r1, r1, r8
 800c4f6:	f10c 0c28 	add.w	ip, ip, #40	; 0x28
 800c4fa:	ea4f 0c4c 	mov.w	ip, ip, lsl #1
 800c4fe:	f85a 2025 	ldr.w	r2, [sl, r5, lsl #2]
 800c502:	f85a 3003 	ldr.w	r3, [sl, r3]
 800c506:	fbb2 f2f8 	udiv	r2, r2, r8
 800c50a:	3750      	adds	r7, #80	; 0x50
 800c50c:	3650      	adds	r6, #80	; 0x50
 800c50e:	4440      	add	r0, r8
 800c510:	4441      	add	r1, r8
 800c512:	32a0      	adds	r2, #160	; 0xa0
 800c514:	fbb3 f3f8 	udiv	r3, r3, r8
 800c518:	ebbc 0f49 	cmp.w	ip, r9, lsl #1
 800c51c:	f103 03a0 	add.w	r3, r3, #160	; 0xa0
 800c520:	ea4f 0e49 	mov.w	lr, r9, lsl #1
 800c524:	ea4f 0747 	mov.w	r7, r7, lsl #1
 800c528:	ea4f 0646 	mov.w	r6, r6, lsl #1
 800c52c:	ea4f 0040 	mov.w	r0, r0, lsl #1
 800c530:	ea4f 0141 	mov.w	r1, r1, lsl #1
 800c534:	ea4f 0242 	mov.w	r2, r2, lsl #1
 800c538:	ea4f 0343 	mov.w	r3, r3, lsl #1
 800c53c:	d938      	bls.n	800c5b0 <GraficarOSC+0x1b8>
 800c53e:	fa1f fe8e 	uxth.w	lr, lr
 800c542:	f240 18df 	movw	r8, #479	; 0x1df
 800c546:	f04f 09f8 	mov.w	r9, #248	; 0xf8
 800c54a:	f04f 0a00 	mov.w	sl, #0
 800c54e:	45e6      	cmp	lr, ip
 800c550:	d801      	bhi.n	800c556 <GraficarOSC+0x15e>
 800c552:	45c6      	cmp	lr, r8
 800c554:	d921      	bls.n	800c59a <GraficarOSC+0x1a2>
 800c556:	42b7      	cmp	r7, r6
 800c558:	d341      	bcc.n	800c5de <GraficarOSC+0x1e6>
 800c55a:	b2b6      	uxth	r6, r6
 800c55c:	f240 1cdf 	movw	ip, #479	; 0x1df
 800c560:	f04f 0e03 	mov.w	lr, #3
 800c564:	f04f 08e0 	mov.w	r8, #224	; 0xe0
 800c568:	42be      	cmp	r6, r7
 800c56a:	d843      	bhi.n	800c5f4 <GraficarOSC+0x1fc>
 800c56c:	4566      	cmp	r6, ip
 800c56e:	d841      	bhi.n	800c5f4 <GraficarOSC+0x1fc>
 800c570:	eb04 0906 	add.w	r9, r4, r6
 800c574:	f804 e006 	strb.w	lr, [r4, r6]
 800c578:	3602      	adds	r6, #2
 800c57a:	f889 8001 	strb.w	r8, [r9, #1]
 800c57e:	b2b6      	uxth	r6, r6
 800c580:	e7f2      	b.n	800c568 <GraficarOSC+0x170>
 800c582:	4623      	mov	r3, r4
 800c584:	2200      	movs	r2, #0
 800c586:	2064      	movs	r0, #100	; 0x64
 800c588:	21df      	movs	r1, #223	; 0xdf
 800c58a:	3201      	adds	r2, #1
 800c58c:	2af0      	cmp	r2, #240	; 0xf0
 800c58e:	7018      	strb	r0, [r3, #0]
 800c590:	7059      	strb	r1, [r3, #1]
 800c592:	f103 0302 	add.w	r3, r3, #2
 800c596:	d1f8      	bne.n	800c58a <GraficarOSC+0x192>
 800c598:	e775      	b.n	800c486 <GraficarOSC+0x8e>
 800c59a:	eb04 0b0e 	add.w	fp, r4, lr
 800c59e:	f804 900e 	strb.w	r9, [r4, lr]
 800c5a2:	f10e 0e02 	add.w	lr, lr, #2
 800c5a6:	f88b a001 	strb.w	sl, [fp, #1]
 800c5aa:	fa1f fe8e 	uxth.w	lr, lr
 800c5ae:	e7ce      	b.n	800c54e <GraficarOSC+0x156>
 800c5b0:	fa1f fc8c 	uxth.w	ip, ip
 800c5b4:	f240 18df 	movw	r8, #479	; 0x1df
 800c5b8:	f04f 09f8 	mov.w	r9, #248	; 0xf8
 800c5bc:	f04f 0a00 	mov.w	sl, #0
 800c5c0:	45f4      	cmp	ip, lr
 800c5c2:	d8c8      	bhi.n	800c556 <GraficarOSC+0x15e>
 800c5c4:	45c4      	cmp	ip, r8
 800c5c6:	d8c6      	bhi.n	800c556 <GraficarOSC+0x15e>
 800c5c8:	eb04 0b0c 	add.w	fp, r4, ip
 800c5cc:	f804 900c 	strb.w	r9, [r4, ip]
 800c5d0:	f10c 0c02 	add.w	ip, ip, #2
 800c5d4:	f88b a001 	strb.w	sl, [fp, #1]
 800c5d8:	fa1f fc8c 	uxth.w	ip, ip
 800c5dc:	e7f0      	b.n	800c5c0 <GraficarOSC+0x1c8>
 800c5de:	b2bf      	uxth	r7, r7
 800c5e0:	f240 1cdf 	movw	ip, #479	; 0x1df
 800c5e4:	f04f 0e03 	mov.w	lr, #3
 800c5e8:	f04f 08e0 	mov.w	r8, #224	; 0xe0
 800c5ec:	42b7      	cmp	r7, r6
 800c5ee:	d801      	bhi.n	800c5f4 <GraficarOSC+0x1fc>
 800c5f0:	4567      	cmp	r7, ip
 800c5f2:	d913      	bls.n	800c61c <GraficarOSC+0x224>
 800c5f4:	4288      	cmp	r0, r1
 800c5f6:	d31a      	bcc.n	800c62e <GraficarOSC+0x236>
 800c5f8:	b289      	uxth	r1, r1
 800c5fa:	f240 16df 	movw	r6, #479	; 0x1df
 800c5fe:	27ff      	movs	r7, #255	; 0xff
 800c600:	f04f 0ce0 	mov.w	ip, #224	; 0xe0
 800c604:	4281      	cmp	r1, r0
 800c606:	d81c      	bhi.n	800c642 <GraficarOSC+0x24a>
 800c608:	42b1      	cmp	r1, r6
 800c60a:	d81a      	bhi.n	800c642 <GraficarOSC+0x24a>
 800c60c:	eb04 0e01 	add.w	lr, r4, r1
 800c610:	5467      	strb	r7, [r4, r1]
 800c612:	3102      	adds	r1, #2
 800c614:	f88e c001 	strb.w	ip, [lr, #1]
 800c618:	b289      	uxth	r1, r1
 800c61a:	e7f3      	b.n	800c604 <GraficarOSC+0x20c>
 800c61c:	eb04 0907 	add.w	r9, r4, r7
 800c620:	f804 e007 	strb.w	lr, [r4, r7]
 800c624:	3702      	adds	r7, #2
 800c626:	f889 8001 	strb.w	r8, [r9, #1]
 800c62a:	b2bf      	uxth	r7, r7
 800c62c:	e7de      	b.n	800c5ec <GraficarOSC+0x1f4>
 800c62e:	b280      	uxth	r0, r0
 800c630:	f240 16df 	movw	r6, #479	; 0x1df
 800c634:	27ff      	movs	r7, #255	; 0xff
 800c636:	f04f 0ce0 	mov.w	ip, #224	; 0xe0
 800c63a:	4288      	cmp	r0, r1
 800c63c:	d801      	bhi.n	800c642 <GraficarOSC+0x24a>
 800c63e:	42b0      	cmp	r0, r6
 800c640:	d910      	bls.n	800c664 <GraficarOSC+0x26c>
 800c642:	429a      	cmp	r2, r3
 800c644:	d316      	bcc.n	800c674 <GraficarOSC+0x27c>
 800c646:	b29b      	uxth	r3, r3
 800c648:	f240 11df 	movw	r1, #479	; 0x1df
 800c64c:	2078      	movs	r0, #120	; 0x78
 800c64e:	260f      	movs	r6, #15
 800c650:	4293      	cmp	r3, r2
 800c652:	d818      	bhi.n	800c686 <GraficarOSC+0x28e>
 800c654:	428b      	cmp	r3, r1
 800c656:	d816      	bhi.n	800c686 <GraficarOSC+0x28e>
 800c658:	18e7      	adds	r7, r4, r3
 800c65a:	54e0      	strb	r0, [r4, r3]
 800c65c:	3302      	adds	r3, #2
 800c65e:	707e      	strb	r6, [r7, #1]
 800c660:	b29b      	uxth	r3, r3
 800c662:	e7f5      	b.n	800c650 <GraficarOSC+0x258>
 800c664:	eb04 0e00 	add.w	lr, r4, r0
 800c668:	5427      	strb	r7, [r4, r0]
 800c66a:	3002      	adds	r0, #2
 800c66c:	f88e c001 	strb.w	ip, [lr, #1]
 800c670:	b280      	uxth	r0, r0
 800c672:	e7e2      	b.n	800c63a <GraficarOSC+0x242>
 800c674:	b292      	uxth	r2, r2
 800c676:	f240 11df 	movw	r1, #479	; 0x1df
 800c67a:	2078      	movs	r0, #120	; 0x78
 800c67c:	260f      	movs	r6, #15
 800c67e:	429a      	cmp	r2, r3
 800c680:	d801      	bhi.n	800c686 <GraficarOSC+0x28e>
 800c682:	428a      	cmp	r2, r1
 800c684:	d90e      	bls.n	800c6a4 <GraficarOSC+0x2ac>
 800c686:	480b      	ldr	r0, [pc, #44]	; (800c6b4 <GraficarOSC+0x2bc>)
 800c688:	230a      	movs	r3, #10
 800c68a:	f44f 72f0 	mov.w	r2, #480	; 0x1e0
 800c68e:	4621      	mov	r1, r4
 800c690:	3501      	adds	r5, #1
 800c692:	f7f9 faa2 	bl	8005bda <HAL_SPI_Transmit>
 800c696:	f5b5 7fa0 	cmp.w	r5, #320	; 0x140
 800c69a:	f47f aeda 	bne.w	800c452 <GraficarOSC+0x5a>
 800c69e:	b07f      	add	sp, #508	; 0x1fc
 800c6a0:	e8bd 8ff0 	ldmia.w	sp!, {r4, r5, r6, r7, r8, r9, sl, fp, pc}
 800c6a4:	18a7      	adds	r7, r4, r2
 800c6a6:	54a0      	strb	r0, [r4, r2]
 800c6a8:	3202      	adds	r2, #2
 800c6aa:	707e      	strb	r6, [r7, #1]
 800c6ac:	b292      	uxth	r2, r2
 800c6ae:	e7e6      	b.n	800c67e <GraficarOSC+0x286>
 800c6b0:	48000800 	.word	0x48000800
 800c6b4:	20009880 	.word	0x20009880
 800c6b8:	200088c4 	.word	0x200088c4
 800c6bc:	200088c8 	.word	0x200088c8
 800c6c0:	200088cc 	.word	0x200088cc
 800c6c4:	200088d0 	.word	0x200088d0

0800c6c8 <FondoTeclas>:
 800c6c8:	b507      	push	{r0, r1, r2, lr}
 800c6ca:	f246 43df 	movw	r3, #25823	; 0x64df
 800c6ce:	9300      	str	r3, [sp, #0]
 800c6d0:	f240 123f 	movw	r2, #319	; 0x13f
 800c6d4:	2327      	movs	r3, #39	; 0x27
 800c6d6:	21c8      	movs	r1, #200	; 0xc8
 800c6d8:	2000      	movs	r0, #0
 800c6da:	f7ff fc83 	bl	800bfe4 <FillReg>
 800c6de:	b003      	add	sp, #12
 800c6e0:	f85d fb04 	ldr.w	pc, [sp], #4

0800c6e4 <FondoCompletoAzul>:
 800c6e4:	b507      	push	{r0, r1, r2, lr}
 800c6e6:	f246 43df 	movw	r3, #25823	; 0x64df
 800c6ea:	2100      	movs	r1, #0
 800c6ec:	9300      	str	r3, [sp, #0]
 800c6ee:	f44f 72a0 	mov.w	r2, #320	; 0x140
 800c6f2:	23f0      	movs	r3, #240	; 0xf0
 800c6f4:	4608      	mov	r0, r1
 800c6f6:	f7ff fc75 	bl	800bfe4 <FillReg>
 800c6fa:	b003      	add	sp, #12
 800c6fc:	f85d fb04 	ldr.w	pc, [sp], #4

0800c700 <DPMChico>:
 800c700:	e92d 47f3 	stmdb	sp!, {r0, r1, r4, r5, r6, r7, r8, r9, sl, lr}
 800c704:	460e      	mov	r6, r1
 800c706:	4607      	mov	r7, r0
 800c708:	e9dd 9a0a 	ldrd	r9, sl, [sp, #40]	; 0x28
 800c70c:	4614      	mov	r4, r2
 800c70e:	4827      	ldr	r0, [pc, #156]	; (800c7ac <DPMChico+0xac>)
 800c710:	2201      	movs	r2, #1
 800c712:	2108      	movs	r1, #8
 800c714:	4698      	mov	r8, r3
 800c716:	f7f7 fe03 	bl	8004320 <HAL_GPIO_WritePin>
 800c71a:	2200      	movs	r2, #0
 800c71c:	2180      	movs	r1, #128	; 0x80
 800c71e:	4823      	ldr	r0, [pc, #140]	; (800c7ac <DPMChico+0xac>)
 800c720:	f7f7 fdfe 	bl	8004320 <HAL_GPIO_WritePin>
 800c724:	2004      	movs	r0, #4
 800c726:	f7fc fa31 	bl	8008b8c <ILI9341_Set_Rotation>
 800c72a:	4650      	mov	r0, sl
 800c72c:	f7f3 fd58 	bl	80001e0 <strlen>
 800c730:	b2c5      	uxtb	r5, r0
 800c732:	1b65      	subs	r5, r4, r5
 800c734:	ebc4 04c4 	rsb	r4, r4, r4, lsl #3
 800c738:	0064      	lsls	r4, r4, #1
 800c73a:	b2a4      	uxth	r4, r4
 800c73c:	1cb8      	adds	r0, r7, #2
 800c73e:	ebc5 05c5 	rsb	r5, r5, r5, lsl #3
 800c742:	4405      	add	r5, r0
 800c744:	1ea2      	subs	r2, r4, #2
 800c746:	1cb1      	adds	r1, r6, #2
 800c748:	f8cd 9000 	str.w	r9, [sp]
 800c74c:	2323      	movs	r3, #35	; 0x23
 800c74e:	f7ff fc49 	bl	800bfe4 <FillReg>
 800c752:	b2ad      	uxth	r5, r5
 800c754:	1cf1      	adds	r1, r6, #3
 800c756:	2304      	movs	r3, #4
 800c758:	e9cd a300 	strd	sl, r3, [sp]
 800c75c:	4642      	mov	r2, r8
 800c75e:	464b      	mov	r3, r9
 800c760:	4628      	mov	r0, r5
 800c762:	b289      	uxth	r1, r1
 800c764:	2500      	movs	r5, #0
 800c766:	f7fc fd49 	bl	80091fc <ILI9341_Draw_String>
 800c76a:	4622      	mov	r2, r4
 800c76c:	4631      	mov	r1, r6
 800c76e:	4638      	mov	r0, r7
 800c770:	9500      	str	r5, [sp, #0]
 800c772:	2302      	movs	r3, #2
 800c774:	f7ff fc36 	bl	800bfe4 <FillReg>
 800c778:	4631      	mov	r1, r6
 800c77a:	4638      	mov	r0, r7
 800c77c:	9500      	str	r5, [sp, #0]
 800c77e:	2325      	movs	r3, #37	; 0x25
 800c780:	2202      	movs	r2, #2
 800c782:	f7ff fc2f 	bl	800bfe4 <FillReg>
 800c786:	4631      	mov	r1, r6
 800c788:	19e0      	adds	r0, r4, r7
 800c78a:	9500      	str	r5, [sp, #0]
 800c78c:	2325      	movs	r3, #37	; 0x25
 800c78e:	2202      	movs	r2, #2
 800c790:	f7ff fc28 	bl	800bfe4 <FillReg>
 800c794:	2302      	movs	r3, #2
 800c796:	4622      	mov	r2, r4
 800c798:	f106 0123 	add.w	r1, r6, #35	; 0x23
 800c79c:	4638      	mov	r0, r7
 800c79e:	950a      	str	r5, [sp, #40]	; 0x28
 800c7a0:	b002      	add	sp, #8
 800c7a2:	e8bd 47f0 	ldmia.w	sp!, {r4, r5, r6, r7, r8, r9, sl, lr}
 800c7a6:	f7ff bc1d 	b.w	800bfe4 <FillReg>
 800c7aa:	bf00      	nop
 800c7ac:	48000800 	.word	0x48000800

0800c7b0 <BOW_Activo>:
 800c7b0:	4b0b      	ldr	r3, [pc, #44]	; (800c7e0 <BOW_Activo+0x30>)
 800c7b2:	b510      	push	{r4, lr}
 800c7b4:	681c      	ldr	r4, [r3, #0]
 800c7b6:	4284      	cmp	r4, r0
 800c7b8:	d90f      	bls.n	800c7da <BOW_Activo+0x2a>
 800c7ba:	3007      	adds	r0, #7
 800c7bc:	230e      	movs	r3, #14
 800c7be:	fb13 0202 	smlabb	r2, r3, r2, r0
 800c7c2:	4294      	cmp	r4, r2
 800c7c4:	d209      	bcs.n	800c7da <BOW_Activo+0x2a>
 800c7c6:	4b07      	ldr	r3, [pc, #28]	; (800c7e4 <BOW_Activo+0x34>)
 800c7c8:	6818      	ldr	r0, [r3, #0]
 800c7ca:	4288      	cmp	r0, r1
 800c7cc:	d905      	bls.n	800c7da <BOW_Activo+0x2a>
 800c7ce:	311e      	adds	r1, #30
 800c7d0:	4288      	cmp	r0, r1
 800c7d2:	bf2c      	ite	cs
 800c7d4:	2000      	movcs	r0, #0
 800c7d6:	2001      	movcc	r0, #1
 800c7d8:	bd10      	pop	{r4, pc}
 800c7da:	2000      	movs	r0, #0
 800c7dc:	e7fc      	b.n	800c7d8 <BOW_Activo+0x28>
 800c7de:	bf00      	nop
 800c7e0:	20009fa0 	.word	0x20009fa0
 800c7e4:	20009fa4 	.word	0x20009fa4

0800c7e8 <BOT_Activo>:
 800c7e8:	4b0d      	ldr	r3, [pc, #52]	; (800c820 <BOT_Activo+0x38>)
 800c7ea:	b530      	push	{r4, r5, lr}
 800c7ec:	681c      	ldr	r4, [r3, #0]
 800c7ee:	428c      	cmp	r4, r1
 800c7f0:	d914      	bls.n	800c81c <BOT_Activo+0x34>
 800c7f2:	7843      	ldrb	r3, [r0, #1]
 800c7f4:	7805      	ldrb	r5, [r0, #0]
 800c7f6:	4419      	add	r1, r3
 800c7f8:	eb01 2105 	add.w	r1, r1, r5, lsl #8
 800c7fc:	428c      	cmp	r4, r1
 800c7fe:	d20d      	bcs.n	800c81c <BOT_Activo+0x34>
 800c800:	4b08      	ldr	r3, [pc, #32]	; (800c824 <BOT_Activo+0x3c>)
 800c802:	681b      	ldr	r3, [r3, #0]
 800c804:	4293      	cmp	r3, r2
 800c806:	d909      	bls.n	800c81c <BOT_Activo+0x34>
 800c808:	78c1      	ldrb	r1, [r0, #3]
 800c80a:	7884      	ldrb	r4, [r0, #2]
 800c80c:	440a      	add	r2, r1
 800c80e:	eb02 2204 	add.w	r2, r2, r4, lsl #8
 800c812:	4293      	cmp	r3, r2
 800c814:	bf2c      	ite	cs
 800c816:	2000      	movcs	r0, #0
 800c818:	2001      	movcc	r0, #1
 800c81a:	bd30      	pop	{r4, r5, pc}
 800c81c:	2000      	movs	r0, #0
 800c81e:	e7fc      	b.n	800c81a <BOT_Activo+0x32>
 800c820:	20009fa0 	.word	0x20009fa0
 800c824:	20009fa4 	.word	0x20009fa4

0800c828 <LeerFlashAbs>:
 800c828:	4b03      	ldr	r3, [pc, #12]	; (800c838 <LeerFlashAbs+0x10>)
 800c82a:	1c42      	adds	r2, r0, #1
 800c82c:	601a      	str	r2, [r3, #0]
 800c82e:	4b03      	ldr	r3, [pc, #12]	; (800c83c <LeerFlashAbs+0x14>)
 800c830:	681b      	ldr	r3, [r3, #0]
 800c832:	5c18      	ldrb	r0, [r3, r0]
 800c834:	4770      	bx	lr
 800c836:	bf00      	nop
 800c838:	20009f60 	.word	0x20009f60
 800c83c:	20009c68 	.word	0x20009c68

0800c840 <LeerFlashRel>:
 800c840:	4a03      	ldr	r2, [pc, #12]	; (800c850 <LeerFlashRel+0x10>)
 800c842:	4904      	ldr	r1, [pc, #16]	; (800c854 <LeerFlashRel+0x14>)
 800c844:	6813      	ldr	r3, [r2, #0]
 800c846:	6809      	ldr	r1, [r1, #0]
 800c848:	5cc8      	ldrb	r0, [r1, r3]
 800c84a:	3301      	adds	r3, #1
 800c84c:	6013      	str	r3, [r2, #0]
 800c84e:	4770      	bx	lr
 800c850:	20009f60 	.word	0x20009f60
 800c854:	20009c68 	.word	0x20009c68

0800c858 <PIC>:
 800c858:	e92d 4ff0 	stmdb	sp!, {r4, r5, r6, r7, r8, r9, sl, fp, lr}
 800c85c:	4691      	mov	r9, r2
 800c85e:	4a5e      	ldr	r2, [pc, #376]	; (800c9d8 <PIC+0x180>)
 800c860:	f2ad 4d14 	subw	sp, sp, #1044	; 0x414
 800c864:	6010      	str	r0, [r2, #0]
 800c866:	460e      	mov	r6, r1
 800c868:	485c      	ldr	r0, [pc, #368]	; (800c9dc <PIC+0x184>)
 800c86a:	2201      	movs	r2, #1
 800c86c:	f44f 5100 	mov.w	r1, #8192	; 0x2000
 800c870:	469a      	mov	sl, r3
 800c872:	f7f7 fd55 	bl	8004320 <HAL_GPIO_WritePin>
 800c876:	485a      	ldr	r0, [pc, #360]	; (800c9e0 <PIC+0x188>)
 800c878:	2201      	movs	r2, #1
 800c87a:	2108      	movs	r1, #8
 800c87c:	f7f7 fd50 	bl	8004320 <HAL_GPIO_WritePin>
 800c880:	2200      	movs	r2, #0
 800c882:	2180      	movs	r1, #128	; 0x80
 800c884:	4856      	ldr	r0, [pc, #344]	; (800c9e0 <PIC+0x188>)
 800c886:	f7f7 fd4b 	bl	8004320 <HAL_GPIO_WritePin>
 800c88a:	2004      	movs	r0, #4
 800c88c:	f7fc f97e 	bl	8008b8c <ILI9341_Set_Rotation>
 800c890:	2000      	movs	r0, #0
 800c892:	f7ff ffc9 	bl	800c828 <LeerFlashAbs>
 800c896:	ea4f 2800 	mov.w	r8, r0, lsl #8
 800c89a:	f7ff ffd1 	bl	800c840 <LeerFlashRel>
 800c89e:	ea40 0808 	orr.w	r8, r0, r8
 800c8a2:	f7ff ffcd 	bl	800c840 <LeerFlashRel>
 800c8a6:	0207      	lsls	r7, r0, #8
 800c8a8:	f7ff ffca 	bl	800c840 <LeerFlashRel>
 800c8ac:	4307      	orrs	r7, r0
 800c8ae:	fb07 f308 	mul.w	r3, r7, r8
 800c8b2:	9301      	str	r3, [sp, #4]
 800c8b4:	f7ff ffc4 	bl	800c840 <LeerFlashRel>
 800c8b8:	f7ff ffc2 	bl	800c840 <LeerFlashRel>
 800c8bc:	f7ff ffc0 	bl	800c840 <LeerFlashRel>
 800c8c0:	f7ff ffbe 	bl	800c840 <LeerFlashRel>
 800c8c4:	aa04      	add	r2, sp, #16
 800c8c6:	1e05      	subs	r5, r0, #0
 800c8c8:	bf08      	it	eq
 800c8ca:	f44f 7580 	moveq.w	r5, #256	; 0x100
 800c8ce:	2100      	movs	r1, #0
 800c8d0:	4693      	mov	fp, r2
 800c8d2:	e9cd 2102 	strd	r2, r1, [sp, #8]
 800c8d6:	f7ff ffb3 	bl	800c840 <LeerFlashRel>
 800c8da:	4604      	mov	r4, r0
 800c8dc:	f7ff ffb0 	bl	800c840 <LeerFlashRel>
 800c8e0:	ea40 2004 	orr.w	r0, r0, r4, lsl #8
 800c8e4:	e9dd 2102 	ldrd	r2, r1, [sp, #8]
 800c8e8:	b284      	uxth	r4, r0
 800c8ea:	f1ba 0f00 	cmp.w	sl, #0
 800c8ee:	d148      	bne.n	800c982 <PIC+0x12a>
 800c8f0:	8014      	strh	r4, [r2, #0]
 800c8f2:	3101      	adds	r1, #1
 800c8f4:	428d      	cmp	r5, r1
 800c8f6:	f102 0202 	add.w	r2, r2, #2
 800c8fa:	d1ea      	bne.n	800c8d2 <PIC+0x7a>
 800c8fc:	1e72      	subs	r2, r6, #1
 800c8fe:	f1c9 01f0 	rsb	r1, r9, #240	; 0xf0
 800c902:	f1c9 03ef 	rsb	r3, r9, #239	; 0xef
 800c906:	1bc9      	subs	r1, r1, r7
 800c908:	4442      	add	r2, r8
 800c90a:	4630      	mov	r0, r6
 800c90c:	f7fc f97c 	bl	8008c08 <ILI9341_Set_Address>
 800c910:	4833      	ldr	r0, [pc, #204]	; (800c9e0 <PIC+0x188>)
 800c912:	4f33      	ldr	r7, [pc, #204]	; (800c9e0 <PIC+0x188>)
 800c914:	4e33      	ldr	r6, [pc, #204]	; (800c9e4 <PIC+0x18c>)
 800c916:	2200      	movs	r2, #0
 800c918:	f44f 7100 	mov.w	r1, #512	; 0x200
 800c91c:	f7f7 fd00 	bl	8004320 <HAL_GPIO_WritePin>
 800c920:	232c      	movs	r3, #44	; 0x2c
 800c922:	f88d 3210 	strb.w	r3, [sp, #528]	; 0x210
 800c926:	2301      	movs	r3, #1
 800c928:	482e      	ldr	r0, [pc, #184]	; (800c9e4 <PIC+0x18c>)
 800c92a:	461a      	mov	r2, r3
 800c92c:	a984      	add	r1, sp, #528	; 0x210
 800c92e:	f7f9 f954 	bl	8005bda <HAL_SPI_Transmit>
 800c932:	2500      	movs	r5, #0
 800c934:	f7ff ff84 	bl	800c840 <LeerFlashRel>
 800c938:	4604      	mov	r4, r0
 800c93a:	f7ff ff81 	bl	800c840 <LeerFlashRel>
 800c93e:	b221      	sxth	r1, r4
 800c940:	0049      	lsls	r1, r1, #1
 800c942:	ab84      	add	r3, sp, #528	; 0x210
 800c944:	2200      	movs	r2, #0
 800c946:	4291      	cmp	r1, r2
 800c948:	f103 0302 	add.w	r3, r3, #2
 800c94c:	d83a      	bhi.n	800c9c4 <PIC+0x16c>
 800c94e:	2201      	movs	r2, #1
 800c950:	f44f 7100 	mov.w	r1, #512	; 0x200
 800c954:	4638      	mov	r0, r7
 800c956:	f7f7 fce3 	bl	8004320 <HAL_GPIO_WritePin>
 800c95a:	0062      	lsls	r2, r4, #1
 800c95c:	2364      	movs	r3, #100	; 0x64
 800c95e:	b292      	uxth	r2, r2
 800c960:	a984      	add	r1, sp, #528	; 0x210
 800c962:	4630      	mov	r0, r6
 800c964:	f7f9 f939 	bl	8005bda <HAL_SPI_Transmit>
 800c968:	9b01      	ldr	r3, [sp, #4]
 800c96a:	4425      	add	r5, r4
 800c96c:	42ab      	cmp	r3, r5
 800c96e:	d8e1      	bhi.n	800c934 <PIC+0xdc>
 800c970:	481b      	ldr	r0, [pc, #108]	; (800c9e0 <PIC+0x188>)
 800c972:	2201      	movs	r2, #1
 800c974:	2180      	movs	r1, #128	; 0x80
 800c976:	f7f7 fcd3 	bl	8004320 <HAL_GPIO_WritePin>
 800c97a:	f20d 4d14 	addw	sp, sp, #1044	; 0x414
 800c97e:	e8bd 8ff0 	ldmia.w	sp!, {r4, r5, r6, r7, r8, r9, sl, fp, pc}
 800c982:	f3c4 1e45 	ubfx	lr, r4, #5, #6
 800c986:	f004 0c1f 	and.w	ip, r4, #31
 800c98a:	eb0a 24d4 	add.w	r4, sl, r4, lsr #11
 800c98e:	44d6      	add	lr, sl
 800c990:	2c1e      	cmp	r4, #30
 800c992:	44d4      	add	ip, sl
 800c994:	bfd4      	ite	le
 800c996:	b2a4      	uxthle	r4, r4
 800c998:	241f      	movgt	r4, #31
 800c99a:	f1be 0f3e 	cmp.w	lr, #62	; 0x3e
 800c99e:	bfd4      	ite	le
 800c9a0:	fa1f fe8e 	uxthle.w	lr, lr
 800c9a4:	f04f 0e3f 	movgt.w	lr, #63	; 0x3f
 800c9a8:	f1bc 0f1e 	cmp.w	ip, #30
 800c9ac:	bfd4      	ite	le
 800c9ae:	fa1f fc8c 	uxthle.w	ip, ip
 800c9b2:	f04f 0c1f 	movgt.w	ip, #31
 800c9b6:	eb0e 1e84 	add.w	lr, lr, r4, lsl #6
 800c9ba:	eb0c 1c4e 	add.w	ip, ip, lr, lsl #5
 800c9be:	f8a2 c000 	strh.w	ip, [r2]
 800c9c2:	e796      	b.n	800c8f2 <PIC+0x9a>
 800c9c4:	f83b c010 	ldrh.w	ip, [fp, r0, lsl #1]
 800c9c8:	f803 cc01 	strb.w	ip, [r3, #-1]
 800c9cc:	ea4f 2e1c 	mov.w	lr, ip, lsr #8
 800c9d0:	f803 ec02 	strb.w	lr, [r3, #-2]
 800c9d4:	3202      	adds	r2, #2
 800c9d6:	e7b6      	b.n	800c946 <PIC+0xee>
 800c9d8:	20009c68 	.word	0x20009c68
 800c9dc:	48000400 	.word	0x48000400
 800c9e0:	48000800 	.word	0x48000800
 800c9e4:	20009880 	.word	0x20009880

0800c9e8 <BCO>:
 800c9e8:	e92d 4ff7 	stmdb	sp!, {r0, r1, r2, r4, r5, r6, r7, r8, r9, sl, fp, lr}
 800c9ec:	460c      	mov	r4, r1
 800c9ee:	4681      	mov	r9, r0
 800c9f0:	f44f 5100 	mov.w	r1, #8192	; 0x2000
 800c9f4:	488a      	ldr	r0, [pc, #552]	; (800cc20 <BCO+0x238>)
 800c9f6:	f89d 5030 	ldrb.w	r5, [sp, #48]	; 0x30
 800c9fa:	f89d 8034 	ldrb.w	r8, [sp, #52]	; 0x34
 800c9fe:	f8dd a038 	ldr.w	sl, [sp, #56]	; 0x38
 800ca02:	4616      	mov	r6, r2
 800ca04:	2201      	movs	r2, #1
 800ca06:	469b      	mov	fp, r3
 800ca08:	f7f7 fc8a 	bl	8004320 <HAL_GPIO_WritePin>
 800ca0c:	4885      	ldr	r0, [pc, #532]	; (800cc24 <BCO+0x23c>)
 800ca0e:	2201      	movs	r2, #1
 800ca10:	2108      	movs	r1, #8
 800ca12:	f7f7 fc85 	bl	8004320 <HAL_GPIO_WritePin>
 800ca16:	4883      	ldr	r0, [pc, #524]	; (800cc24 <BCO+0x23c>)
 800ca18:	2200      	movs	r2, #0
 800ca1a:	2180      	movs	r1, #128	; 0x80
 800ca1c:	f7f7 fc80 	bl	8004320 <HAL_GPIO_WritePin>
 800ca20:	4650      	mov	r0, sl
 800ca22:	f7f3 fbdd 	bl	80001e0 <strlen>
 800ca26:	eb05 0745 	add.w	r7, r5, r5, lsl #1
 800ca2a:	b2c0      	uxtb	r0, r0
 800ca2c:	1a3f      	subs	r7, r7, r0
 800ca2e:	eb05 0545 	add.w	r5, r5, r5, lsl #1
 800ca32:	ebc7 07c7 	rsb	r7, r7, r7, lsl #3
 800ca36:	1da3      	adds	r3, r4, #6
 800ca38:	ebc5 05c5 	rsb	r5, r5, r5, lsl #3
 800ca3c:	441f      	add	r7, r3
 800ca3e:	006d      	lsls	r5, r5, #1
 800ca40:	f108 38ff 	add.w	r8, r8, #4294967295
 800ca44:	b2bf      	uxth	r7, r7
 800ca46:	b2ad      	uxth	r5, r5
 800ca48:	fa5f f888 	uxtb.w	r8, r8
 800ca4c:	f1bb 0f03 	cmp.w	fp, #3
 800ca50:	f200 809a 	bhi.w	800cb88 <BCO+0x1a0>
 800ca54:	e8df f00b 	tbb	[pc, fp]
 800ca58:	da9b4602 	.word	0xda9b4602
 800ca5c:	2304      	movs	r3, #4
 800ca5e:	e9cd a300 	strd	sl, r3, [sp]
 800ca62:	4638      	mov	r0, r7
 800ca64:	f106 0a28 	add.w	sl, r6, #40	; 0x28
 800ca68:	f44f 477c 	mov.w	r7, #64512	; 0xfc00
 800ca6c:	f246 43df 	movw	r3, #25823	; 0x64df
 800ca70:	2200      	movs	r2, #0
 800ca72:	b2b1      	uxth	r1, r6
 800ca74:	f7fc fbc2 	bl	80091fc <ILI9341_Draw_String>
 800ca78:	4620      	mov	r0, r4
 800ca7a:	2308      	movs	r3, #8
 800ca7c:	462a      	mov	r2, r5
 800ca7e:	4651      	mov	r1, sl
 800ca80:	9700      	str	r7, [sp, #0]
 800ca82:	f7ff faaf 	bl	800bfe4 <FillReg>
 800ca86:	f04f 0b00 	mov.w	fp, #0
 800ca8a:	2308      	movs	r3, #8
 800ca8c:	18e0      	adds	r0, r4, r3
 800ca8e:	f1a5 0208 	sub.w	r2, r5, #8
 800ca92:	f106 0130 	add.w	r1, r6, #48	; 0x30
 800ca96:	f8cd b000 	str.w	fp, [sp]
 800ca9a:	f7ff faa3 	bl	800bfe4 <FillReg>
 800ca9e:	4620      	mov	r0, r4
 800caa0:	2318      	movs	r3, #24
 800caa2:	2208      	movs	r2, #8
 800caa4:	4651      	mov	r1, sl
 800caa6:	9700      	str	r7, [sp, #0]
 800caa8:	f7ff fa9c 	bl	800bfe4 <FillReg>
 800caac:	1928      	adds	r0, r5, r4
 800caae:	2318      	movs	r3, #24
 800cab0:	2208      	movs	r2, #8
 800cab2:	4651      	mov	r1, sl
 800cab4:	9700      	str	r7, [sp, #0]
 800cab6:	f7ff fa95 	bl	800bfe4 <FillReg>
 800caba:	2308      	movs	r3, #8
 800cabc:	462a      	mov	r2, r5
 800cabe:	f106 0138 	add.w	r1, r6, #56	; 0x38
 800cac2:	4620      	mov	r0, r4
 800cac4:	9700      	str	r7, [sp, #0]
 800cac6:	f7ff fa8d 	bl	800bfe4 <FillReg>
 800caca:	340c      	adds	r4, #12
 800cacc:	212a      	movs	r1, #42	; 0x2a
 800cace:	465b      	mov	r3, fp
 800cad0:	f106 021e 	add.w	r2, r6, #30
 800cad4:	fb01 4108 	mla	r1, r1, r8, r4
 800cad8:	4648      	mov	r0, r9
 800cada:	b003      	add	sp, #12
 800cadc:	e8bd 4ff0 	ldmia.w	sp!, {r4, r5, r6, r7, r8, r9, sl, fp, lr}
 800cae0:	f7ff beba 	b.w	800c858 <PIC>
 800cae4:	f44f 477c 	mov.w	r7, #64512	; 0xfc00
 800cae8:	f106 0a28 	add.w	sl, r6, #40	; 0x28
 800caec:	4651      	mov	r1, sl
 800caee:	4620      	mov	r0, r4
 800caf0:	9700      	str	r7, [sp, #0]
 800caf2:	2308      	movs	r3, #8
 800caf4:	462a      	mov	r2, r5
 800caf6:	f7ff fa75 	bl	800bfe4 <FillReg>
 800cafa:	f04f 0b00 	mov.w	fp, #0
 800cafe:	2308      	movs	r3, #8
 800cb00:	18e0      	adds	r0, r4, r3
 800cb02:	f1a5 0208 	sub.w	r2, r5, #8
 800cb06:	f106 0130 	add.w	r1, r6, #48	; 0x30
 800cb0a:	f8cd b000 	str.w	fp, [sp]
 800cb0e:	f7ff fa69 	bl	800bfe4 <FillReg>
 800cb12:	4651      	mov	r1, sl
 800cb14:	4620      	mov	r0, r4
 800cb16:	9700      	str	r7, [sp, #0]
 800cb18:	2318      	movs	r3, #24
 800cb1a:	2208      	movs	r2, #8
 800cb1c:	f7ff fa62 	bl	800bfe4 <FillReg>
 800cb20:	4651      	mov	r1, sl
 800cb22:	1928      	adds	r0, r5, r4
 800cb24:	9700      	str	r7, [sp, #0]
 800cb26:	2318      	movs	r3, #24
 800cb28:	2208      	movs	r2, #8
 800cb2a:	f7ff fa5b 	bl	800bfe4 <FillReg>
 800cb2e:	f246 4adf 	movw	sl, #25823	; 0x64df
 800cb32:	4620      	mov	r0, r4
 800cb34:	9700      	str	r7, [sp, #0]
 800cb36:	2308      	movs	r3, #8
 800cb38:	462a      	mov	r2, r5
 800cb3a:	f106 0138 	add.w	r1, r6, #56	; 0x38
 800cb3e:	f106 071e 	add.w	r7, r6, #30
 800cb42:	f7ff fa4f 	bl	800bfe4 <FillReg>
 800cb46:	4620      	mov	r0, r4
 800cb48:	230a      	movs	r3, #10
 800cb4a:	462a      	mov	r2, r5
 800cb4c:	4639      	mov	r1, r7
 800cb4e:	f8cd a000 	str.w	sl, [sp]
 800cb52:	f7ff fa47 	bl	800bfe4 <FillReg>
 800cb56:	4620      	mov	r0, r4
 800cb58:	230a      	movs	r3, #10
 800cb5a:	462a      	mov	r2, r5
 800cb5c:	f106 0140 	add.w	r1, r6, #64	; 0x40
 800cb60:	f8cd a000 	str.w	sl, [sp]
 800cb64:	f7ff fa3e 	bl	800bfe4 <FillReg>
 800cb68:	340c      	adds	r4, #12
 800cb6a:	212a      	movs	r1, #42	; 0x2a
 800cb6c:	fb01 4108 	mla	r1, r1, r8, r4
 800cb70:	465b      	mov	r3, fp
 800cb72:	463a      	mov	r2, r7
 800cb74:	4648      	mov	r0, r9
 800cb76:	f7ff fe6f 	bl	800c858 <PIC>
 800cb7a:	4c29      	ldr	r4, [pc, #164]	; (800cc20 <BCO+0x238>)
 800cb7c:	2102      	movs	r1, #2
 800cb7e:	4620      	mov	r0, r4
 800cb80:	f7f7 fbc8 	bl	8004314 <HAL_GPIO_ReadPin>
 800cb84:	2800      	cmp	r0, #0
 800cb86:	d0f9      	beq.n	800cb7c <BCO+0x194>
 800cb88:	b003      	add	sp, #12
 800cb8a:	e8bd 8ff0 	ldmia.w	sp!, {r4, r5, r6, r7, r8, r9, sl, fp, pc}
 800cb8e:	f246 48df 	movw	r8, #25823	; 0x64df
 800cb92:	1eaa      	subs	r2, r5, #2
 800cb94:	1cb1      	adds	r1, r6, #2
 800cb96:	1ca0      	adds	r0, r4, #2
 800cb98:	f8cd 8000 	str.w	r8, [sp]
 800cb9c:	2323      	movs	r3, #35	; 0x23
 800cb9e:	f7ff fa21 	bl	800bfe4 <FillReg>
 800cba2:	b2b1      	uxth	r1, r6
 800cba4:	2304      	movs	r3, #4
 800cba6:	e9cd a300 	strd	sl, r3, [sp]
 800cbaa:	1c78      	adds	r0, r7, #1
 800cbac:	4643      	mov	r3, r8
 800cbae:	f44f 477c 	mov.w	r7, #64512	; 0xfc00
 800cbb2:	2200      	movs	r2, #0
 800cbb4:	3101      	adds	r1, #1
 800cbb6:	f7fc fb21 	bl	80091fc <ILI9341_Draw_String>
 800cbba:	462b      	mov	r3, r5
 800cbbc:	4631      	mov	r1, r6
 800cbbe:	4620      	mov	r0, r4
 800cbc0:	9700      	str	r7, [sp, #0]
 800cbc2:	2208      	movs	r2, #8
 800cbc4:	f7ff fa0e 	bl	800bfe4 <FillReg>
 800cbc8:	2208      	movs	r2, #8
 800cbca:	2300      	movs	r3, #0
 800cbcc:	18b1      	adds	r1, r6, r2
 800cbce:	18a0      	adds	r0, r4, r2
 800cbd0:	9300      	str	r3, [sp, #0]
 800cbd2:	f1a5 0308 	sub.w	r3, r5, #8
 800cbd6:	f7ff fa05 	bl	800bfe4 <FillReg>
 800cbda:	4631      	mov	r1, r6
 800cbdc:	4620      	mov	r0, r4
 800cbde:	9700      	str	r7, [sp, #0]
 800cbe0:	2308      	movs	r3, #8
 800cbe2:	2218      	movs	r2, #24
 800cbe4:	f7ff f9fe 	bl	800bfe4 <FillReg>
 800cbe8:	19a9      	adds	r1, r5, r6
 800cbea:	4620      	mov	r0, r4
 800cbec:	9700      	str	r7, [sp, #0]
 800cbee:	2308      	movs	r3, #8
 800cbf0:	2218      	movs	r2, #24
 800cbf2:	f7ff f9f7 	bl	800bfe4 <FillReg>
 800cbf6:	462b      	mov	r3, r5
 800cbf8:	2208      	movs	r2, #8
 800cbfa:	4631      	mov	r1, r6
 800cbfc:	f104 0010 	add.w	r0, r4, #16
 800cc00:	970c      	str	r7, [sp, #48]	; 0x30
 800cc02:	b003      	add	sp, #12
 800cc04:	e8bd 4ff0 	ldmia.w	sp!, {r4, r5, r6, r7, r8, r9, sl, fp, lr}
 800cc08:	f7ff b9ec 	b.w	800bfe4 <FillReg>
 800cc0c:	212a      	movs	r1, #42	; 0x2a
 800cc0e:	f106 020c 	add.w	r2, r6, #12
 800cc12:	fb01 2208 	mla	r2, r1, r8, r2
 800cc16:	2300      	movs	r3, #0
 800cc18:	f104 011e 	add.w	r1, r4, #30
 800cc1c:	e75c      	b.n	800cad8 <BCO+0xf0>
 800cc1e:	bf00      	nop
 800cc20:	48000400 	.word	0x48000400
 800cc24:	48000800 	.word	0x48000800

0800cc28 <BOT.part.0>:
 800cc28:	b570      	push	{r4, r5, r6, lr}
 800cc2a:	2304      	movs	r3, #4
 800cc2c:	4604      	mov	r4, r0
 800cc2e:	460d      	mov	r5, r1
 800cc30:	4616      	mov	r6, r2
 800cc32:	f7ff fe11 	bl	800c858 <PIC>
 800cc36:	20ff      	movs	r0, #255	; 0xff
 800cc38:	f7f6 fb3a 	bl	80032b0 <HAL_Delay>
 800cc3c:	4632      	mov	r2, r6
 800cc3e:	4629      	mov	r1, r5
 800cc40:	4620      	mov	r0, r4
 800cc42:	2300      	movs	r3, #0
 800cc44:	e8bd 4070 	ldmia.w	sp!, {r4, r5, r6, lr}
 800cc48:	f7ff be06 	b.w	800c858 <PIC>

0800cc4c <BOT>:
 800cc4c:	2b01      	cmp	r3, #1
 800cc4e:	b410      	push	{r4}
 800cc50:	d006      	beq.n	800cc60 <BOT+0x14>
 800cc52:	2b02      	cmp	r3, #2
 800cc54:	d006      	beq.n	800cc64 <BOT+0x18>
 800cc56:	b94b      	cbnz	r3, 800cc6c <BOT+0x20>
 800cc58:	f85d 4b04 	ldr.w	r4, [sp], #4
 800cc5c:	f7ff bdfc 	b.w	800c858 <PIC>
 800cc60:	2304      	movs	r3, #4
 800cc62:	e7f9      	b.n	800cc58 <BOT+0xc>
 800cc64:	f85d 4b04 	ldr.w	r4, [sp], #4
 800cc68:	f7ff bfde 	b.w	800cc28 <BOT.part.0>
 800cc6c:	f85d 4b04 	ldr.w	r4, [sp], #4
 800cc70:	4770      	bx	lr
	...

0800cc74 <MenuSet>:
 800cc74:	b5f8      	push	{r3, r4, r5, r6, r7, lr}
 800cc76:	4616      	mov	r6, r2
 800cc78:	4604      	mov	r4, r0
 800cc7a:	b918      	cbnz	r0, 800cc84 <MenuSet+0x10>
 800cc7c:	4b11      	ldr	r3, [pc, #68]	; (800ccc4 <MenuSet+0x50>)
 800cc7e:	6018      	str	r0, [r3, #0]
 800cc80:	4b11      	ldr	r3, [pc, #68]	; (800ccc8 <MenuSet+0x54>)
 800cc82:	6018      	str	r0, [r3, #0]
 800cc84:	4811      	ldr	r0, [pc, #68]	; (800cccc <MenuSet+0x58>)
 800cc86:	eb04 0384 	add.w	r3, r4, r4, lsl #2
 800cc8a:	eb03 0383 	add.w	r3, r3, r3, lsl #2
 800cc8e:	18c7      	adds	r7, r0, r3
 800cc90:	2500      	movs	r5, #0
 800cc92:	5d4a      	ldrb	r2, [r1, r5]
 800cc94:	b97a      	cbnz	r2, 800ccb6 <MenuSet+0x42>
 800cc96:	442b      	add	r3, r5
 800cc98:	f1c5 0214 	rsb	r2, r5, #20
 800cc9c:	2120      	movs	r1, #32
 800cc9e:	4418      	add	r0, r3
 800cca0:	f000 fb50 	bl	800d344 <memset>
 800cca4:	4b07      	ldr	r3, [pc, #28]	; (800ccc4 <MenuSet+0x50>)
 800cca6:	681a      	ldr	r2, [r3, #0]
 800cca8:	42a2      	cmp	r2, r4
 800ccaa:	bf38      	it	cc
 800ccac:	601c      	strcc	r4, [r3, #0]
 800ccae:	4b08      	ldr	r3, [pc, #32]	; (800ccd0 <MenuSet+0x5c>)
 800ccb0:	f843 6024 	str.w	r6, [r3, r4, lsl #2]
 800ccb4:	bdf8      	pop	{r3, r4, r5, r6, r7, pc}
 800ccb6:	2d14      	cmp	r5, #20
 800ccb8:	d0f4      	beq.n	800cca4 <MenuSet+0x30>
 800ccba:	f807 2b01 	strb.w	r2, [r7], #1
 800ccbe:	3501      	adds	r5, #1
 800ccc0:	e7e7      	b.n	800cc92 <MenuSet+0x1e>
 800ccc2:	bf00      	nop
 800ccc4:	20009c6c 	.word	0x20009c6c
 800ccc8:	200047ac 	.word	0x200047ac
 800cccc:	20009c70 	.word	0x20009c70
 800ccd0:	200047b0 	.word	0x200047b0

0800ccd4 <MenuPrint>:
 800ccd4:	b5f7      	push	{r0, r1, r2, r4, r5, r6, r7, lr}
 800ccd6:	4d12      	ldr	r5, [pc, #72]	; (800cd20 <MenuPrint+0x4c>)
 800ccd8:	4e12      	ldr	r6, [pc, #72]	; (800cd24 <MenuPrint+0x50>)
 800ccda:	4f13      	ldr	r7, [pc, #76]	; (800cd28 <MenuPrint+0x54>)
 800ccdc:	2400      	movs	r4, #0
 800ccde:	682b      	ldr	r3, [r5, #0]
 800cce0:	2206      	movs	r2, #6
 800cce2:	fb02 4303 	mla	r3, r2, r3, r4
 800cce6:	6832      	ldr	r2, [r6, #0]
 800cce8:	4293      	cmp	r3, r2
 800ccea:	d801      	bhi.n	800ccf0 <MenuPrint+0x1c>
 800ccec:	2c06      	cmp	r4, #6
 800ccee:	d109      	bne.n	800cd04 <MenuPrint+0x30>
 800ccf0:	4b0e      	ldr	r3, [pc, #56]	; (800cd2c <MenuPrint+0x58>)
 800ccf2:	9300      	str	r3, [sp, #0]
 800ccf4:	2200      	movs	r2, #0
 800ccf6:	2316      	movs	r3, #22
 800ccf8:	21ca      	movs	r1, #202	; 0xca
 800ccfa:	2005      	movs	r0, #5
 800ccfc:	f7ff f9d0 	bl	800c0a0 <BOW>
 800cd00:	b003      	add	sp, #12
 800cd02:	bdf0      	pop	{r4, r5, r6, r7, pc}
 800cd04:	2219      	movs	r2, #25
 800cd06:	fb02 7303 	mla	r3, r2, r3, r7
 800cd0a:	eb04 1144 	add.w	r1, r4, r4, lsl #5
 800cd0e:	9300      	str	r3, [sp, #0]
 800cd10:	2200      	movs	r2, #0
 800cd12:	2316      	movs	r3, #22
 800cd14:	3123      	adds	r1, #35	; 0x23
 800cd16:	2005      	movs	r0, #5
 800cd18:	f7ff f9c2 	bl	800c0a0 <BOW>
 800cd1c:	3401      	adds	r4, #1
 800cd1e:	e7de      	b.n	800ccde <MenuPrint+0xa>
 800cd20:	200047ac 	.word	0x200047ac
 800cd24:	20009c6c 	.word	0x20009c6c
 800cd28:	20009c70 	.word	0x20009c70
 800cd2c:	08010e85 	.word	0x08010e85

0800cd30 <MenuAtencion>:
 800cd30:	e92d 43f0 	stmdb	sp!, {r4, r5, r6, r7, r8, r9, lr}
 800cd34:	4f20      	ldr	r7, [pc, #128]	; (800cdb8 <MenuAtencion+0x88>)
 800cd36:	f8df 8090 	ldr.w	r8, [pc, #144]	; 800cdc8 <MenuAtencion+0x98>
 800cd3a:	f8df 9090 	ldr.w	r9, [pc, #144]	; 800cdcc <MenuAtencion+0x9c>
 800cd3e:	b085      	sub	sp, #20
 800cd40:	2400      	movs	r4, #0
 800cd42:	683d      	ldr	r5, [r7, #0]
 800cd44:	f8d8 3000 	ldr.w	r3, [r8]
 800cd48:	2606      	movs	r6, #6
 800cd4a:	fb06 4505 	mla	r5, r6, r5, r4
 800cd4e:	429d      	cmp	r5, r3
 800cd50:	d81d      	bhi.n	800cd8e <MenuAtencion+0x5e>
 800cd52:	eb04 1144 	add.w	r1, r4, r4, lsl #5
 800cd56:	3123      	adds	r1, #35	; 0x23
 800cd58:	2216      	movs	r2, #22
 800cd5a:	4630      	mov	r0, r6
 800cd5c:	9103      	str	r1, [sp, #12]
 800cd5e:	f7ff fd27 	bl	800c7b0 <BOW_Activo>
 800cd62:	9903      	ldr	r1, [sp, #12]
 800cd64:	b180      	cbz	r0, 800cd88 <MenuAtencion+0x58>
 800cd66:	2319      	movs	r3, #25
 800cd68:	fb03 9305 	mla	r3, r3, r5, r9
 800cd6c:	9300      	str	r3, [sp, #0]
 800cd6e:	2202      	movs	r2, #2
 800cd70:	2316      	movs	r3, #22
 800cd72:	2005      	movs	r0, #5
 800cd74:	f7ff f994 	bl	800c0a0 <BOW>
 800cd78:	683b      	ldr	r3, [r7, #0]
 800cd7a:	4a10      	ldr	r2, [pc, #64]	; (800cdbc <MenuAtencion+0x8c>)
 800cd7c:	fb06 4303 	mla	r3, r6, r3, r4
 800cd80:	f852 2023 	ldr.w	r2, [r2, r3, lsl #2]
 800cd84:	4b0e      	ldr	r3, [pc, #56]	; (800cdc0 <MenuAtencion+0x90>)
 800cd86:	601a      	str	r2, [r3, #0]
 800cd88:	3401      	adds	r4, #1
 800cd8a:	2c06      	cmp	r4, #6
 800cd8c:	d1d9      	bne.n	800cd42 <MenuAtencion+0x12>
 800cd8e:	2216      	movs	r2, #22
 800cd90:	21ca      	movs	r1, #202	; 0xca
 800cd92:	2005      	movs	r0, #5
 800cd94:	f7ff fd0c 	bl	800c7b0 <BOW_Activo>
 800cd98:	b150      	cbz	r0, 800cdb0 <MenuAtencion+0x80>
 800cd9a:	4b0a      	ldr	r3, [pc, #40]	; (800cdc4 <MenuAtencion+0x94>)
 800cd9c:	9300      	str	r3, [sp, #0]
 800cd9e:	2202      	movs	r2, #2
 800cda0:	2316      	movs	r3, #22
 800cda2:	21ca      	movs	r1, #202	; 0xca
 800cda4:	2005      	movs	r0, #5
 800cda6:	f7ff f97b 	bl	800c0a0 <BOW>
 800cdaa:	4b05      	ldr	r3, [pc, #20]	; (800cdc0 <MenuAtencion+0x90>)
 800cdac:	2204      	movs	r2, #4
 800cdae:	601a      	str	r2, [r3, #0]
 800cdb0:	b005      	add	sp, #20
 800cdb2:	e8bd 83f0 	ldmia.w	sp!, {r4, r5, r6, r7, r8, r9, pc}
 800cdb6:	bf00      	nop
 800cdb8:	200047ac 	.word	0x200047ac
 800cdbc:	200047b0 	.word	0x200047b0
 800cdc0:	200047a8 	.word	0x200047a8
 800cdc4:	08010e85 	.word	0x08010e85
 800cdc8:	20009c6c 	.word	0x20009c6c
 800cdcc:	20009c70 	.word	0x20009c70

0800cdd0 <XPT2046_TouchGetCoordinates>:
 800cdd0:	e92d 47ff 	stmdb	sp!, {r0, r1, r2, r3, r4, r5, r6, r7, r8, r9, sl, lr}
 800cdd4:	4f4b      	ldr	r7, [pc, #300]	; (800cf04 <XPT2046_TouchGetCoordinates+0x134>)
 800cdd6:	484c      	ldr	r0, [pc, #304]	; (800cf08 <XPT2046_TouchGetCoordinates+0x138>)
 800cdd8:	683a      	ldr	r2, [r7, #0]
 800cdda:	f8df a130 	ldr.w	sl, [pc, #304]	; 800cf0c <XPT2046_TouchGetCoordinates+0x13c>
 800cdde:	6813      	ldr	r3, [r2, #0]
 800cde0:	f8df 913c 	ldr.w	r9, [pc, #316]	; 800cf20 <XPT2046_TouchGetCoordinates+0x150>
 800cde4:	f043 0338 	orr.w	r3, r3, #56	; 0x38
 800cde8:	6013      	str	r3, [r2, #0]
 800cdea:	2108      	movs	r1, #8
 800cdec:	2201      	movs	r2, #1
 800cdee:	f7f7 fa97 	bl	8004320 <HAL_GPIO_WritePin>
 800cdf2:	4845      	ldr	r0, [pc, #276]	; (800cf08 <XPT2046_TouchGetCoordinates+0x138>)
 800cdf4:	2201      	movs	r2, #1
 800cdf6:	2180      	movs	r1, #128	; 0x80
 800cdf8:	f7f7 fa92 	bl	8004320 <HAL_GPIO_WritePin>
 800cdfc:	4843      	ldr	r0, [pc, #268]	; (800cf0c <XPT2046_TouchGetCoordinates+0x13c>)
 800cdfe:	2200      	movs	r2, #0
 800ce00:	f44f 5100 	mov.w	r1, #8192	; 0x2000
 800ce04:	f7f7 fa8c 	bl	8004320 <HAL_GPIO_WritePin>
 800ce08:	2600      	movs	r6, #0
 800ce0a:	4635      	mov	r5, r6
 800ce0c:	4634      	mov	r4, r6
 800ce0e:	2102      	movs	r1, #2
 800ce10:	4650      	mov	r0, sl
 800ce12:	fa5f f886 	uxtb.w	r8, r6
 800ce16:	f7f7 fa7d 	bl	8004314 <HAL_GPIO_ReadPin>
 800ce1a:	bb60      	cbnz	r0, 800ce76 <XPT2046_TouchGetCoordinates+0xa6>
 800ce1c:	f04f 38ff 	mov.w	r8, #4294967295
 800ce20:	f04f 33ff 	mov.w	r3, #4294967295
 800ce24:	2201      	movs	r2, #1
 800ce26:	4649      	mov	r1, r9
 800ce28:	4638      	mov	r0, r7
 800ce2a:	f7f8 fed6 	bl	8005bda <HAL_SPI_Transmit>
 800ce2e:	4938      	ldr	r1, [pc, #224]	; (800cf10 <XPT2046_TouchGetCoordinates+0x140>)
 800ce30:	f8cd 8000 	str.w	r8, [sp]
 800ce34:	2302      	movs	r3, #2
 800ce36:	aa02      	add	r2, sp, #8
 800ce38:	4638      	mov	r0, r7
 800ce3a:	f7f8 ff98 	bl	8005d6e <HAL_SPI_TransmitReceive>
 800ce3e:	4935      	ldr	r1, [pc, #212]	; (800cf14 <XPT2046_TouchGetCoordinates+0x144>)
 800ce40:	4643      	mov	r3, r8
 800ce42:	2201      	movs	r2, #1
 800ce44:	4638      	mov	r0, r7
 800ce46:	f7f8 fec8 	bl	8005bda <HAL_SPI_Transmit>
 800ce4a:	2302      	movs	r3, #2
 800ce4c:	4930      	ldr	r1, [pc, #192]	; (800cf10 <XPT2046_TouchGetCoordinates+0x140>)
 800ce4e:	f8cd 8000 	str.w	r8, [sp]
 800ce52:	aa03      	add	r2, sp, #12
 800ce54:	4638      	mov	r0, r7
 800ce56:	f7f8 ff8a 	bl	8005d6e <HAL_SPI_TransmitReceive>
 800ce5a:	f8bd 300c 	ldrh.w	r3, [sp, #12]
 800ce5e:	ba5b      	rev16	r3, r3
 800ce60:	fa14 f483 	uxtah	r4, r4, r3
 800ce64:	f8bd 3008 	ldrh.w	r3, [sp, #8]
 800ce68:	3601      	adds	r6, #1
 800ce6a:	ba5b      	rev16	r3, r3
 800ce6c:	2e10      	cmp	r6, #16
 800ce6e:	fa15 f583 	uxtah	r5, r5, r3
 800ce72:	d1cc      	bne.n	800ce0e <XPT2046_TouchGetCoordinates+0x3e>
 800ce74:	46b0      	mov	r8, r6
 800ce76:	2201      	movs	r2, #1
 800ce78:	4824      	ldr	r0, [pc, #144]	; (800cf0c <XPT2046_TouchGetCoordinates+0x13c>)
 800ce7a:	f44f 5100 	mov.w	r1, #8192	; 0x2000
 800ce7e:	f7f7 fa4f 	bl	8004320 <HAL_GPIO_WritePin>
 800ce82:	683a      	ldr	r2, [r7, #0]
 800ce84:	6813      	ldr	r3, [r2, #0]
 800ce86:	f1b8 0f10 	cmp.w	r8, #16
 800ce8a:	f023 0338 	bic.w	r3, r3, #56	; 0x38
 800ce8e:	6013      	str	r3, [r2, #0]
 800ce90:	d135      	bne.n	800cefe <XPT2046_TouchGetCoordinates+0x12e>
 800ce92:	f64b 338f 	movw	r3, #48015	; 0xbb8f
 800ce96:	429c      	cmp	r4, r3
 800ce98:	d92b      	bls.n	800cef2 <XPT2046_TouchGetCoordinates+0x122>
 800ce9a:	0924      	lsrs	r4, r4, #4
 800ce9c:	f647 03df 	movw	r3, #30943	; 0x78df
 800cea0:	429c      	cmp	r4, r3
 800cea2:	bf28      	it	cs
 800cea4:	461c      	movcs	r4, r3
 800cea6:	f646 638f 	movw	r3, #28303	; 0x6e8f
 800ceaa:	429d      	cmp	r5, r3
 800ceac:	d924      	bls.n	800cef8 <XPT2046_TouchGetCoordinates+0x128>
 800ceae:	092d      	lsrs	r5, r5, #4
 800ceb0:	f247 63a3 	movw	r3, #30371	; 0x76a3
 800ceb4:	429d      	cmp	r5, r3
 800ceb6:	bf28      	it	cs
 800ceb8:	461d      	movcs	r5, r3
 800ceba:	f44f 73a0 	mov.w	r3, #320	; 0x140
 800cebe:	435c      	muls	r4, r3
 800cec0:	f5a4 246a 	sub.w	r4, r4, #958464	; 0xea000
 800cec4:	f646 5326 	movw	r3, #27942	; 0x6d26
 800cec8:	f5a4 64e8 	sub.w	r4, r4, #1856	; 0x740
 800cecc:	fbb4 f4f3 	udiv	r4, r4, r3
 800ced0:	23f0      	movs	r3, #240	; 0xf0
 800ced2:	435d      	muls	r5, r3
 800ced4:	f5a5 25cf 	sub.w	r5, r5, #423936	; 0x67800
 800ced8:	f5a5 751c 	sub.w	r5, r5, #624	; 0x270
 800cedc:	f646 73ba 	movw	r3, #28602	; 0x6fba
 800cee0:	fbb5 f5f3 	udiv	r5, r5, r3
 800cee4:	4b0c      	ldr	r3, [pc, #48]	; (800cf18 <XPT2046_TouchGetCoordinates+0x148>)
 800cee6:	601c      	str	r4, [r3, #0]
 800cee8:	4b0c      	ldr	r3, [pc, #48]	; (800cf1c <XPT2046_TouchGetCoordinates+0x14c>)
 800ceea:	601d      	str	r5, [r3, #0]
 800ceec:	b004      	add	sp, #16
 800ceee:	e8bd 87f0 	ldmia.w	sp!, {r4, r5, r6, r7, r8, r9, sl, pc}
 800cef2:	f640 34b9 	movw	r4, #3001	; 0xbb9
 800cef6:	e7d6      	b.n	800cea6 <XPT2046_TouchGetCoordinates+0xd6>
 800cef8:	f240 65e9 	movw	r5, #1769	; 0x6e9
 800cefc:	e7dd      	b.n	800ceba <XPT2046_TouchGetCoordinates+0xea>
 800cefe:	2400      	movs	r4, #0
 800cf00:	4625      	mov	r5, r4
 800cf02:	e7ef      	b.n	800cee4 <XPT2046_TouchGetCoordinates+0x114>
 800cf04:	200093c0 	.word	0x200093c0
 800cf08:	48000800 	.word	0x48000800
 800cf0c:	48000400 	.word	0x48000400
 800cf10:	08010e8e 	.word	0x08010e8e
 800cf14:	08010e8c 	.word	0x08010e8c
 800cf18:	20009fa0 	.word	0x20009fa0
 800cf1c:	20009fa4 	.word	0x20009fa4
 800cf20:	08010e8d 	.word	0x08010e8d

0800cf24 <MX_USB_DEVICE_Init>:
 800cf24:	b508      	push	{r3, lr}
 800cf26:	490f      	ldr	r1, [pc, #60]	; (800cf64 <MX_USB_DEVICE_Init+0x40>)
 800cf28:	480f      	ldr	r0, [pc, #60]	; (800cf68 <MX_USB_DEVICE_Init+0x44>)
 800cf2a:	2200      	movs	r2, #0
 800cf2c:	f7fc fb4a 	bl	80095c4 <USBD_Init>
 800cf30:	b108      	cbz	r0, 800cf36 <MX_USB_DEVICE_Init+0x12>
 800cf32:	f7f5 fdab 	bl	8002a8c <Error_Handler>
 800cf36:	490d      	ldr	r1, [pc, #52]	; (800cf6c <MX_USB_DEVICE_Init+0x48>)
 800cf38:	480b      	ldr	r0, [pc, #44]	; (800cf68 <MX_USB_DEVICE_Init+0x44>)
 800cf3a:	f7fc fb58 	bl	80095ee <USBD_RegisterClass>
 800cf3e:	b108      	cbz	r0, 800cf44 <MX_USB_DEVICE_Init+0x20>
 800cf40:	f7f5 fda4 	bl	8002a8c <Error_Handler>
 800cf44:	490a      	ldr	r1, [pc, #40]	; (800cf70 <MX_USB_DEVICE_Init+0x4c>)
 800cf46:	4808      	ldr	r0, [pc, #32]	; (800cf68 <MX_USB_DEVICE_Init+0x44>)
 800cf48:	f7fc fb10 	bl	800956c <USBD_CDC_RegisterInterface>
 800cf4c:	b108      	cbz	r0, 800cf52 <MX_USB_DEVICE_Init+0x2e>
 800cf4e:	f7f5 fd9d 	bl	8002a8c <Error_Handler>
 800cf52:	4805      	ldr	r0, [pc, #20]	; (800cf68 <MX_USB_DEVICE_Init+0x44>)
 800cf54:	f7fc fb52 	bl	80095fc <USBD_Start>
 800cf58:	b118      	cbz	r0, 800cf62 <MX_USB_DEVICE_Init+0x3e>
 800cf5a:	e8bd 4008 	ldmia.w	sp!, {r3, lr}
 800cf5e:	f7f5 bd95 	b.w	8002a8c <Error_Handler>
 800cf62:	bd08      	pop	{r3, pc}
 800cf64:	20000150 	.word	0x20000150
 800cf68:	20009fa8 	.word	0x20009fa8
 800cf6c:	20000030 	.word	0x20000030
 800cf70:	20000140 	.word	0x20000140

0800cf74 <CDC_DeInit_FS>:
 800cf74:	2000      	movs	r0, #0
 800cf76:	4770      	bx	lr

0800cf78 <CDC_Control_FS>:
 800cf78:	2000      	movs	r0, #0
 800cf7a:	4770      	bx	lr

0800cf7c <CDC_Receive_FS>:
 800cf7c:	b510      	push	{r4, lr}
 800cf7e:	4a0a      	ldr	r2, [pc, #40]	; (800cfa8 <CDC_Receive_FS+0x2c>)
 800cf80:	4601      	mov	r1, r0
 800cf82:	1e43      	subs	r3, r0, #1
 800cf84:	3009      	adds	r0, #9
 800cf86:	f813 4f01 	ldrb.w	r4, [r3, #1]!
 800cf8a:	f802 4b01 	strb.w	r4, [r2], #1
 800cf8e:	4283      	cmp	r3, r0
 800cf90:	d1f9      	bne.n	800cf86 <CDC_Receive_FS+0xa>
 800cf92:	4b06      	ldr	r3, [pc, #24]	; (800cfac <CDC_Receive_FS+0x30>)
 800cf94:	4806      	ldr	r0, [pc, #24]	; (800cfb0 <CDC_Receive_FS+0x34>)
 800cf96:	2201      	movs	r2, #1
 800cf98:	601a      	str	r2, [r3, #0]
 800cf9a:	f7fc faf6 	bl	800958a <USBD_CDC_SetRxBuffer>
 800cf9e:	4804      	ldr	r0, [pc, #16]	; (800cfb0 <CDC_Receive_FS+0x34>)
 800cfa0:	f7fc faf9 	bl	8009596 <USBD_CDC_ReceivePacket>
 800cfa4:	2000      	movs	r0, #0
 800cfa6:	bd10      	pop	{r4, pc}
 800cfa8:	20004850 	.word	0x20004850
 800cfac:	20008e5c 	.word	0x20008e5c
 800cfb0:	20009fa8 	.word	0x20009fa8

0800cfb4 <CDC_Init_FS>:
 800cfb4:	b510      	push	{r4, lr}
 800cfb6:	4c06      	ldr	r4, [pc, #24]	; (800cfd0 <CDC_Init_FS+0x1c>)
 800cfb8:	4906      	ldr	r1, [pc, #24]	; (800cfd4 <CDC_Init_FS+0x20>)
 800cfba:	2200      	movs	r2, #0
 800cfbc:	4620      	mov	r0, r4
 800cfbe:	f7fc fadc 	bl	800957a <USBD_CDC_SetTxBuffer>
 800cfc2:	4905      	ldr	r1, [pc, #20]	; (800cfd8 <CDC_Init_FS+0x24>)
 800cfc4:	4620      	mov	r0, r4
 800cfc6:	f7fc fae0 	bl	800958a <USBD_CDC_SetRxBuffer>
 800cfca:	2000      	movs	r0, #0
 800cfcc:	bd10      	pop	{r4, pc}
 800cfce:	bf00      	nop
 800cfd0:	20009fa8 	.word	0x20009fa8
 800cfd4:	2000a2d0 	.word	0x2000a2d0
 800cfd8:	2000a26c 	.word	0x2000a26c

0800cfdc <USBD_FS_DeviceDescriptor>:
 800cfdc:	2312      	movs	r3, #18
 800cfde:	4801      	ldr	r0, [pc, #4]	; (800cfe4 <USBD_FS_DeviceDescriptor+0x8>)
 800cfe0:	800b      	strh	r3, [r1, #0]
 800cfe2:	4770      	bx	lr
 800cfe4:	2000016c 	.word	0x2000016c

0800cfe8 <USBD_FS_LangIDStrDescriptor>:
 800cfe8:	2304      	movs	r3, #4
 800cfea:	4801      	ldr	r0, [pc, #4]	; (800cff0 <USBD_FS_LangIDStrDescriptor+0x8>)
 800cfec:	800b      	strh	r3, [r1, #0]
 800cfee:	4770      	bx	lr
 800cff0:	20000180 	.word	0x20000180

0800cff4 <IntToUnicode>:
 800cff4:	2300      	movs	r3, #0
 800cff6:	b570      	push	{r4, r5, r6, lr}
 800cff8:	1c4d      	adds	r5, r1, #1
 800cffa:	461e      	mov	r6, r3
 800cffc:	0f04      	lsrs	r4, r0, #28
 800cffe:	f1b0 4f20 	cmp.w	r0, #2684354560	; 0xa0000000
 800d002:	bf34      	ite	cc
 800d004:	3430      	addcc	r4, #48	; 0x30
 800d006:	3437      	addcs	r4, #55	; 0x37
 800d008:	f801 4013 	strb.w	r4, [r1, r3, lsl #1]
 800d00c:	f805 6013 	strb.w	r6, [r5, r3, lsl #1]
 800d010:	3301      	adds	r3, #1
 800d012:	b2dc      	uxtb	r4, r3
 800d014:	42a2      	cmp	r2, r4
 800d016:	ea4f 1000 	mov.w	r0, r0, lsl #4
 800d01a:	d8ef      	bhi.n	800cffc <IntToUnicode+0x8>
 800d01c:	bd70      	pop	{r4, r5, r6, pc}
	...

0800d020 <USBD_FS_SerialStrDescriptor>:
 800d020:	231a      	movs	r3, #26
 800d022:	b510      	push	{r4, lr}
 800d024:	800b      	strh	r3, [r1, #0]
 800d026:	4b0a      	ldr	r3, [pc, #40]	; (800d050 <USBD_FS_SerialStrDescriptor+0x30>)
 800d028:	f8d3 07ac 	ldr.w	r0, [r3, #1964]	; 0x7ac
 800d02c:	f8d3 27b4 	ldr.w	r2, [r3, #1972]	; 0x7b4
 800d030:	1880      	adds	r0, r0, r2
 800d032:	d00a      	beq.n	800d04a <USBD_FS_SerialStrDescriptor+0x2a>
 800d034:	f8d3 47b0 	ldr.w	r4, [r3, #1968]	; 0x7b0
 800d038:	4906      	ldr	r1, [pc, #24]	; (800d054 <USBD_FS_SerialStrDescriptor+0x34>)
 800d03a:	2208      	movs	r2, #8
 800d03c:	f7ff ffda 	bl	800cff4 <IntToUnicode>
 800d040:	2204      	movs	r2, #4
 800d042:	3110      	adds	r1, #16
 800d044:	4620      	mov	r0, r4
 800d046:	f7ff ffd5 	bl	800cff4 <IntToUnicode>
 800d04a:	4803      	ldr	r0, [pc, #12]	; (800d058 <USBD_FS_SerialStrDescriptor+0x38>)
 800d04c:	bd10      	pop	{r4, pc}
 800d04e:	bf00      	nop
 800d050:	1ffff000 	.word	0x1ffff000
 800d054:	20000186 	.word	0x20000186
 800d058:	20000184 	.word	0x20000184

0800d05c <USBD_FS_ManufacturerStrDescriptor>:
 800d05c:	b510      	push	{r4, lr}
 800d05e:	4c04      	ldr	r4, [pc, #16]	; (800d070 <USBD_FS_ManufacturerStrDescriptor+0x14>)
 800d060:	4804      	ldr	r0, [pc, #16]	; (800d074 <USBD_FS_ManufacturerStrDescriptor+0x18>)
 800d062:	460a      	mov	r2, r1
 800d064:	4621      	mov	r1, r4
 800d066:	f7fc fdec 	bl	8009c42 <USBD_GetString>
 800d06a:	4620      	mov	r0, r4
 800d06c:	bd10      	pop	{r4, pc}
 800d06e:	bf00      	nop
 800d070:	2000c2d8 	.word	0x2000c2d8
 800d074:	08010e90 	.word	0x08010e90

0800d078 <USBD_FS_ProductStrDescriptor>:
 800d078:	b510      	push	{r4, lr}
 800d07a:	4c04      	ldr	r4, [pc, #16]	; (800d08c <USBD_FS_ProductStrDescriptor+0x14>)
 800d07c:	4804      	ldr	r0, [pc, #16]	; (800d090 <USBD_FS_ProductStrDescriptor+0x18>)
 800d07e:	460a      	mov	r2, r1
 800d080:	4621      	mov	r1, r4
 800d082:	f7fc fdde 	bl	8009c42 <USBD_GetString>
 800d086:	4620      	mov	r0, r4
 800d088:	bd10      	pop	{r4, pc}
 800d08a:	bf00      	nop
 800d08c:	2000c2d8 	.word	0x2000c2d8
 800d090:	08010ea3 	.word	0x08010ea3

0800d094 <USBD_FS_ConfigStrDescriptor>:
 800d094:	b510      	push	{r4, lr}
 800d096:	4c04      	ldr	r4, [pc, #16]	; (800d0a8 <USBD_FS_ConfigStrDescriptor+0x14>)
 800d098:	4804      	ldr	r0, [pc, #16]	; (800d0ac <USBD_FS_ConfigStrDescriptor+0x18>)
 800d09a:	460a      	mov	r2, r1
 800d09c:	4621      	mov	r1, r4
 800d09e:	f7fc fdd0 	bl	8009c42 <USBD_GetString>
 800d0a2:	4620      	mov	r0, r4
 800d0a4:	bd10      	pop	{r4, pc}
 800d0a6:	bf00      	nop
 800d0a8:	2000c2d8 	.word	0x2000c2d8
 800d0ac:	08010eb9 	.word	0x08010eb9

0800d0b0 <USBD_FS_InterfaceStrDescriptor>:
 800d0b0:	b510      	push	{r4, lr}
 800d0b2:	4c04      	ldr	r4, [pc, #16]	; (800d0c4 <USBD_FS_InterfaceStrDescriptor+0x14>)
 800d0b4:	4804      	ldr	r0, [pc, #16]	; (800d0c8 <USBD_FS_InterfaceStrDescriptor+0x18>)
 800d0b6:	460a      	mov	r2, r1
 800d0b8:	4621      	mov	r1, r4
 800d0ba:	f7fc fdc2 	bl	8009c42 <USBD_GetString>
 800d0be:	4620      	mov	r0, r4
 800d0c0:	bd10      	pop	{r4, pc}
 800d0c2:	bf00      	nop
 800d0c4:	2000c2d8 	.word	0x2000c2d8
 800d0c8:	08010ec4 	.word	0x08010ec4

0800d0cc <USBD_Get_USB_Status>:
 800d0cc:	2803      	cmp	r0, #3
 800d0ce:	bf9a      	itte	ls
 800d0d0:	4b01      	ldrls	r3, [pc, #4]	; (800d0d8 <USBD_Get_USB_Status+0xc>)
 800d0d2:	5c18      	ldrbls	r0, [r3, r0]
 800d0d4:	2002      	movhi	r0, #2
 800d0d6:	4770      	bx	lr
 800d0d8:	08010ed2 	.word	0x08010ed2

0800d0dc <HAL_PCD_MspInit>:
 800d0dc:	b507      	push	{r0, r1, r2, lr}
 800d0de:	4b11      	ldr	r3, [pc, #68]	; (800d124 <HAL_PCD_MspInit+0x48>)
 800d0e0:	6802      	ldr	r2, [r0, #0]
 800d0e2:	429a      	cmp	r2, r3
 800d0e4:	d11a      	bne.n	800d11c <HAL_PCD_MspInit+0x40>
 800d0e6:	f503 33da 	add.w	r3, r3, #111616	; 0x1b400
 800d0ea:	204b      	movs	r0, #75	; 0x4b
 800d0ec:	69da      	ldr	r2, [r3, #28]
 800d0ee:	f442 0200 	orr.w	r2, r2, #8388608	; 0x800000
 800d0f2:	61da      	str	r2, [r3, #28]
 800d0f4:	69db      	ldr	r3, [r3, #28]
 800d0f6:	4a0c      	ldr	r2, [pc, #48]	; (800d128 <HAL_PCD_MspInit+0x4c>)
 800d0f8:	f403 0300 	and.w	r3, r3, #8388608	; 0x800000
 800d0fc:	9301      	str	r3, [sp, #4]
 800d0fe:	9b01      	ldr	r3, [sp, #4]
 800d100:	6813      	ldr	r3, [r2, #0]
 800d102:	f043 0320 	orr.w	r3, r3, #32
 800d106:	6013      	str	r3, [r2, #0]
 800d108:	2200      	movs	r2, #0
 800d10a:	4611      	mov	r1, r2
 800d10c:	f7f6 fe24 	bl	8003d58 <HAL_NVIC_SetPriority>
 800d110:	204b      	movs	r0, #75	; 0x4b
 800d112:	b003      	add	sp, #12
 800d114:	f85d eb04 	ldr.w	lr, [sp], #4
 800d118:	f7f6 be50 	b.w	8003dbc <HAL_NVIC_EnableIRQ>
 800d11c:	b003      	add	sp, #12
 800d11e:	f85d fb04 	ldr.w	pc, [sp], #4
 800d122:	bf00      	nop
 800d124:	40005c00 	.word	0x40005c00
 800d128:	40010000 	.word	0x40010000

0800d12c <HAL_PCD_SetupStageCallback>:
 800d12c:	f500 712c 	add.w	r1, r0, #688	; 0x2b0
 800d130:	f8d0 02e8 	ldr.w	r0, [r0, #744]	; 0x2e8
 800d134:	f7fc ba7b 	b.w	800962e <USBD_LL_SetupStage>

0800d138 <HAL_PCD_DataOutStageCallback>:
 800d138:	2328      	movs	r3, #40	; 0x28
 800d13a:	fb03 0301 	mla	r3, r3, r1, r0
 800d13e:	f8d0 02e8 	ldr.w	r0, [r0, #744]	; 0x2e8
 800d142:	f8d3 217c 	ldr.w	r2, [r3, #380]	; 0x17c
 800d146:	f7fc ba9f 	b.w	8009688 <USBD_LL_DataOutStage>

0800d14a <HAL_PCD_DataInStageCallback>:
 800d14a:	2328      	movs	r3, #40	; 0x28
 800d14c:	fb03 0301 	mla	r3, r3, r1, r0
 800d150:	f8d0 02e8 	ldr.w	r0, [r0, #744]	; 0x2e8
 800d154:	6bda      	ldr	r2, [r3, #60]	; 0x3c
 800d156:	f7fc bad1 	b.w	80096fc <USBD_LL_DataInStage>

0800d15a <HAL_PCD_SOFCallback>:
 800d15a:	f8d0 02e8 	ldr.w	r0, [r0, #744]	; 0x2e8
 800d15e:	f7fc bb65 	b.w	800982c <USBD_LL_SOF>

0800d162 <HAL_PCD_ResetCallback>:
 800d162:	6883      	ldr	r3, [r0, #8]
 800d164:	2b02      	cmp	r3, #2
 800d166:	b510      	push	{r4, lr}
 800d168:	4604      	mov	r4, r0
 800d16a:	d001      	beq.n	800d170 <HAL_PCD_ResetCallback+0xe>
 800d16c:	f7f5 fc8e 	bl	8002a8c <Error_Handler>
 800d170:	f8d4 02e8 	ldr.w	r0, [r4, #744]	; 0x2e8
 800d174:	2101      	movs	r1, #1
 800d176:	f7fc fb43 	bl	8009800 <USBD_LL_SetSpeed>
 800d17a:	f8d4 02e8 	ldr.w	r0, [r4, #744]	; 0x2e8
 800d17e:	e8bd 4010 	ldmia.w	sp!, {r4, lr}
 800d182:	f7fc bb16 	b.w	80097b2 <USBD_LL_Reset>
	...

0800d188 <HAL_PCD_SuspendCallback>:
 800d188:	b510      	push	{r4, lr}
 800d18a:	4604      	mov	r4, r0
 800d18c:	f8d0 02e8 	ldr.w	r0, [r0, #744]	; 0x2e8
 800d190:	f7fc fb39 	bl	8009806 <USBD_LL_Suspend>
 800d194:	69a3      	ldr	r3, [r4, #24]
 800d196:	b123      	cbz	r3, 800d1a2 <HAL_PCD_SuspendCallback+0x1a>
 800d198:	4a02      	ldr	r2, [pc, #8]	; (800d1a4 <HAL_PCD_SuspendCallback+0x1c>)
 800d19a:	6913      	ldr	r3, [r2, #16]
 800d19c:	f043 0306 	orr.w	r3, r3, #6
 800d1a0:	6113      	str	r3, [r2, #16]
 800d1a2:	bd10      	pop	{r4, pc}
 800d1a4:	e000ed00 	.word	0xe000ed00

0800d1a8 <HAL_PCD_ResumeCallback>:
 800d1a8:	f8d0 02e8 	ldr.w	r0, [r0, #744]	; 0x2e8
 800d1ac:	f7fc bb34 	b.w	8009818 <USBD_LL_Resume>

0800d1b0 <USBD_LL_Init>:
 800d1b0:	b510      	push	{r4, lr}
 800d1b2:	4a1e      	ldr	r2, [pc, #120]	; (800d22c <USBD_LL_Init+0x7c>)
 800d1b4:	4604      	mov	r4, r0
 800d1b6:	481e      	ldr	r0, [pc, #120]	; (800d230 <USBD_LL_Init+0x80>)
 800d1b8:	2308      	movs	r3, #8
 800d1ba:	e9c0 2300 	strd	r2, r3, [r0]
 800d1be:	2302      	movs	r3, #2
 800d1c0:	f8c0 42e8 	str.w	r4, [r0, #744]	; 0x2e8
 800d1c4:	6083      	str	r3, [r0, #8]
 800d1c6:	6103      	str	r3, [r0, #16]
 800d1c8:	f8c4 02c0 	str.w	r0, [r4, #704]	; 0x2c0
 800d1cc:	2300      	movs	r3, #0
 800d1ce:	e9c0 3306 	strd	r3, r3, [r0, #24]
 800d1d2:	6203      	str	r3, [r0, #32]
 800d1d4:	f7f7 f8b2 	bl	800433c <HAL_PCD_Init>
 800d1d8:	b108      	cbz	r0, 800d1de <USBD_LL_Init+0x2e>
 800d1da:	f7f5 fc57 	bl	8002a8c <Error_Handler>
 800d1de:	2200      	movs	r2, #0
 800d1e0:	4611      	mov	r1, r2
 800d1e2:	f8d4 02c0 	ldr.w	r0, [r4, #704]	; 0x2c0
 800d1e6:	2318      	movs	r3, #24
 800d1e8:	f7f7 fee2 	bl	8004fb0 <HAL_PCDEx_PMAConfig>
 800d1ec:	f8d4 02c0 	ldr.w	r0, [r4, #704]	; 0x2c0
 800d1f0:	2358      	movs	r3, #88	; 0x58
 800d1f2:	2200      	movs	r2, #0
 800d1f4:	2180      	movs	r1, #128	; 0x80
 800d1f6:	f7f7 fedb 	bl	8004fb0 <HAL_PCDEx_PMAConfig>
 800d1fa:	f8d4 02c0 	ldr.w	r0, [r4, #704]	; 0x2c0
 800d1fe:	23c0      	movs	r3, #192	; 0xc0
 800d200:	2200      	movs	r2, #0
 800d202:	2181      	movs	r1, #129	; 0x81
 800d204:	f7f7 fed4 	bl	8004fb0 <HAL_PCDEx_PMAConfig>
 800d208:	f8d4 02c0 	ldr.w	r0, [r4, #704]	; 0x2c0
 800d20c:	f44f 7388 	mov.w	r3, #272	; 0x110
 800d210:	2200      	movs	r2, #0
 800d212:	2101      	movs	r1, #1
 800d214:	f7f7 fecc 	bl	8004fb0 <HAL_PCDEx_PMAConfig>
 800d218:	f8d4 02c0 	ldr.w	r0, [r4, #704]	; 0x2c0
 800d21c:	f44f 7380 	mov.w	r3, #256	; 0x100
 800d220:	2200      	movs	r2, #0
 800d222:	2182      	movs	r1, #130	; 0x82
 800d224:	f7f7 fec4 	bl	8004fb0 <HAL_PCDEx_PMAConfig>
 800d228:	2000      	movs	r0, #0
 800d22a:	bd10      	pop	{r4, pc}
 800d22c:	40005c00 	.word	0x40005c00
 800d230:	2000c4d8 	.word	0x2000c4d8

0800d234 <USBD_LL_Start>:
 800d234:	b508      	push	{r3, lr}
 800d236:	f8d0 02c0 	ldr.w	r0, [r0, #704]	; 0x2c0
 800d23a:	f7f7 f8d4 	bl	80043e6 <HAL_PCD_Start>
 800d23e:	e8bd 4008 	ldmia.w	sp!, {r3, lr}
 800d242:	f7ff bf43 	b.w	800d0cc <USBD_Get_USB_Status>

0800d246 <USBD_LL_OpenEP>:
 800d246:	b510      	push	{r4, lr}
 800d248:	4614      	mov	r4, r2
 800d24a:	f8d0 02c0 	ldr.w	r0, [r0, #704]	; 0x2c0
 800d24e:	461a      	mov	r2, r3
 800d250:	4623      	mov	r3, r4
 800d252:	f7f7 fdb7 	bl	8004dc4 <HAL_PCD_EP_Open>
 800d256:	e8bd 4010 	ldmia.w	sp!, {r4, lr}
 800d25a:	f7ff bf37 	b.w	800d0cc <USBD_Get_USB_Status>

0800d25e <USBD_LL_CloseEP>:
 800d25e:	b508      	push	{r3, lr}
 800d260:	f8d0 02c0 	ldr.w	r0, [r0, #704]	; 0x2c0
 800d264:	f7f7 fddd 	bl	8004e22 <HAL_PCD_EP_Close>
 800d268:	e8bd 4008 	ldmia.w	sp!, {r3, lr}
 800d26c:	f7ff bf2e 	b.w	800d0cc <USBD_Get_USB_Status>

0800d270 <USBD_LL_StallEP>:
 800d270:	b508      	push	{r3, lr}
 800d272:	f8d0 02c0 	ldr.w	r0, [r0, #704]	; 0x2c0
 800d276:	f7f7 fe39 	bl	8004eec <HAL_PCD_EP_SetStall>
 800d27a:	e8bd 4008 	ldmia.w	sp!, {r3, lr}
 800d27e:	f7ff bf25 	b.w	800d0cc <USBD_Get_USB_Status>

0800d282 <USBD_LL_ClearStallEP>:
 800d282:	b508      	push	{r3, lr}
 800d284:	f8d0 02c0 	ldr.w	r0, [r0, #704]	; 0x2c0
 800d288:	f7f7 fe60 	bl	8004f4c <HAL_PCD_EP_ClrStall>
 800d28c:	e8bd 4008 	ldmia.w	sp!, {r3, lr}
 800d290:	f7ff bf1c 	b.w	800d0cc <USBD_Get_USB_Status>

0800d294 <USBD_LL_IsStallEP>:
 800d294:	f011 0f80 	tst.w	r1, #128	; 0x80
 800d298:	f8d0 32c0 	ldr.w	r3, [r0, #704]	; 0x2c0
 800d29c:	f04f 0228 	mov.w	r2, #40	; 0x28
 800d2a0:	bf1d      	ittte	ne
 800d2a2:	f001 017f 	andne.w	r1, r1, #127	; 0x7f
 800d2a6:	fb01 2202 	mlane	r2, r1, r2, r2
 800d2aa:	189b      	addne	r3, r3, r2
 800d2ac:	fb02 3301 	mlaeq	r3, r2, r1, r3
 800d2b0:	bf14      	ite	ne
 800d2b2:	7898      	ldrbne	r0, [r3, #2]
 800d2b4:	f893 016a 	ldrbeq.w	r0, [r3, #362]	; 0x16a
 800d2b8:	4770      	bx	lr

0800d2ba <USBD_LL_SetUSBAddress>:
 800d2ba:	b508      	push	{r3, lr}
 800d2bc:	f8d0 02c0 	ldr.w	r0, [r0, #704]	; 0x2c0
 800d2c0:	f7f7 f8aa 	bl	8004418 <HAL_PCD_SetAddress>
 800d2c4:	e8bd 4008 	ldmia.w	sp!, {r3, lr}
 800d2c8:	f7ff bf00 	b.w	800d0cc <USBD_Get_USB_Status>

0800d2cc <USBD_LL_Transmit>:
 800d2cc:	b508      	push	{r3, lr}
 800d2ce:	f8d0 02c0 	ldr.w	r0, [r0, #704]	; 0x2c0
 800d2d2:	f7f7 fded 	bl	8004eb0 <HAL_PCD_EP_Transmit>
 800d2d6:	e8bd 4008 	ldmia.w	sp!, {r3, lr}
 800d2da:	f7ff bef7 	b.w	800d0cc <USBD_Get_USB_Status>

0800d2de <USBD_LL_PrepareReceive>:
 800d2de:	b508      	push	{r3, lr}
 800d2e0:	f8d0 02c0 	ldr.w	r0, [r0, #704]	; 0x2c0
 800d2e4:	f7f7 fdc6 	bl	8004e74 <HAL_PCD_EP_Receive>
 800d2e8:	e8bd 4008 	ldmia.w	sp!, {r3, lr}
 800d2ec:	f7ff beee 	b.w	800d0cc <USBD_Get_USB_Status>

0800d2f0 <USBD_LL_GetRxDataSize>:
 800d2f0:	f8d0 02c0 	ldr.w	r0, [r0, #704]	; 0x2c0
 800d2f4:	f7f7 bdd4 	b.w	8004ea0 <HAL_PCD_EP_GetRxCount>

0800d2f8 <USBD_static_malloc>:
 800d2f8:	4800      	ldr	r0, [pc, #0]	; (800d2fc <USBD_static_malloc+0x4>)
 800d2fa:	4770      	bx	lr
 800d2fc:	2000c7c4 	.word	0x2000c7c4

0800d300 <USBD_static_free>:
 800d300:	4770      	bx	lr

0800d302 <HAL_PCDEx_SetConnectionState>:
 800d302:	4770      	bx	lr

0800d304 <siprintf>:
 800d304:	b40e      	push	{r1, r2, r3}
 800d306:	b500      	push	{lr}
 800d308:	b09c      	sub	sp, #112	; 0x70
 800d30a:	ab1d      	add	r3, sp, #116	; 0x74
 800d30c:	9002      	str	r0, [sp, #8]
 800d30e:	9006      	str	r0, [sp, #24]
 800d310:	f06f 4100 	mvn.w	r1, #2147483648	; 0x80000000
 800d314:	4809      	ldr	r0, [pc, #36]	; (800d33c <siprintf+0x38>)
 800d316:	9107      	str	r1, [sp, #28]
 800d318:	9104      	str	r1, [sp, #16]
 800d31a:	4909      	ldr	r1, [pc, #36]	; (800d340 <siprintf+0x3c>)
 800d31c:	f853 2b04 	ldr.w	r2, [r3], #4
 800d320:	9105      	str	r1, [sp, #20]
 800d322:	6800      	ldr	r0, [r0, #0]
 800d324:	9301      	str	r3, [sp, #4]
 800d326:	a902      	add	r1, sp, #8
 800d328:	f000 f99a 	bl	800d660 <_svfiprintf_r>
 800d32c:	9b02      	ldr	r3, [sp, #8]
 800d32e:	2200      	movs	r2, #0
 800d330:	701a      	strb	r2, [r3, #0]
 800d332:	b01c      	add	sp, #112	; 0x70
 800d334:	f85d eb04 	ldr.w	lr, [sp], #4
 800d338:	b003      	add	sp, #12
 800d33a:	4770      	bx	lr
 800d33c:	200001ec 	.word	0x200001ec
 800d340:	ffff0208 	.word	0xffff0208

0800d344 <memset>:
 800d344:	4402      	add	r2, r0
 800d346:	4603      	mov	r3, r0
 800d348:	4293      	cmp	r3, r2
 800d34a:	d100      	bne.n	800d34e <memset+0xa>
 800d34c:	4770      	bx	lr
 800d34e:	f803 1b01 	strb.w	r1, [r3], #1
 800d352:	e7f9      	b.n	800d348 <memset+0x4>

0800d354 <__errno>:
 800d354:	4b01      	ldr	r3, [pc, #4]	; (800d35c <__errno+0x8>)
 800d356:	6818      	ldr	r0, [r3, #0]
 800d358:	4770      	bx	lr
 800d35a:	bf00      	nop
 800d35c:	200001ec 	.word	0x200001ec

0800d360 <__libc_init_array>:
 800d360:	b570      	push	{r4, r5, r6, lr}
 800d362:	4d0d      	ldr	r5, [pc, #52]	; (800d398 <__libc_init_array+0x38>)
 800d364:	4c0d      	ldr	r4, [pc, #52]	; (800d39c <__libc_init_array+0x3c>)
 800d366:	1b64      	subs	r4, r4, r5
 800d368:	10a4      	asrs	r4, r4, #2
 800d36a:	2600      	movs	r6, #0
 800d36c:	42a6      	cmp	r6, r4
 800d36e:	d109      	bne.n	800d384 <__libc_init_array+0x24>
 800d370:	4d0b      	ldr	r5, [pc, #44]	; (800d3a0 <__libc_init_array+0x40>)
 800d372:	4c0c      	ldr	r4, [pc, #48]	; (800d3a4 <__libc_init_array+0x44>)
 800d374:	f001 fcb4 	bl	800ece0 <_init>
 800d378:	1b64      	subs	r4, r4, r5
 800d37a:	10a4      	asrs	r4, r4, #2
 800d37c:	2600      	movs	r6, #0
 800d37e:	42a6      	cmp	r6, r4
 800d380:	d105      	bne.n	800d38e <__libc_init_array+0x2e>
 800d382:	bd70      	pop	{r4, r5, r6, pc}
 800d384:	f855 3b04 	ldr.w	r3, [r5], #4
 800d388:	4798      	blx	r3
 800d38a:	3601      	adds	r6, #1
 800d38c:	e7ee      	b.n	800d36c <__libc_init_array+0xc>
 800d38e:	f855 3b04 	ldr.w	r3, [r5], #4
 800d392:	4798      	blx	r3
 800d394:	3601      	adds	r6, #1
 800d396:	e7f2      	b.n	800d37e <__libc_init_array+0x1e>
 800d398:	080110e8 	.word	0x080110e8
 800d39c:	080110e8 	.word	0x080110e8
 800d3a0:	080110e8 	.word	0x080110e8
 800d3a4:	080110ec 	.word	0x080110ec

0800d3a8 <__retarget_lock_acquire_recursive>:
 800d3a8:	4770      	bx	lr

0800d3aa <__retarget_lock_release_recursive>:
 800d3aa:	4770      	bx	lr

0800d3ac <strcpy>:
 800d3ac:	4603      	mov	r3, r0
 800d3ae:	f811 2b01 	ldrb.w	r2, [r1], #1
 800d3b2:	f803 2b01 	strb.w	r2, [r3], #1
 800d3b6:	2a00      	cmp	r2, #0
 800d3b8:	d1f9      	bne.n	800d3ae <strcpy+0x2>
 800d3ba:	4770      	bx	lr

0800d3bc <_free_r>:
 800d3bc:	b537      	push	{r0, r1, r2, r4, r5, lr}
 800d3be:	2900      	cmp	r1, #0
 800d3c0:	d044      	beq.n	800d44c <_free_r+0x90>
 800d3c2:	f851 3c04 	ldr.w	r3, [r1, #-4]
 800d3c6:	9001      	str	r0, [sp, #4]
 800d3c8:	2b00      	cmp	r3, #0
 800d3ca:	f1a1 0404 	sub.w	r4, r1, #4
 800d3ce:	bfb8      	it	lt
 800d3d0:	18e4      	addlt	r4, r4, r3
 800d3d2:	f000 f8df 	bl	800d594 <__malloc_lock>
 800d3d6:	4a1e      	ldr	r2, [pc, #120]	; (800d450 <_free_r+0x94>)
 800d3d8:	9801      	ldr	r0, [sp, #4]
 800d3da:	6813      	ldr	r3, [r2, #0]
 800d3dc:	b933      	cbnz	r3, 800d3ec <_free_r+0x30>
 800d3de:	6063      	str	r3, [r4, #4]
 800d3e0:	6014      	str	r4, [r2, #0]
 800d3e2:	b003      	add	sp, #12
 800d3e4:	e8bd 4030 	ldmia.w	sp!, {r4, r5, lr}
 800d3e8:	f000 b8da 	b.w	800d5a0 <__malloc_unlock>
 800d3ec:	42a3      	cmp	r3, r4
 800d3ee:	d908      	bls.n	800d402 <_free_r+0x46>
 800d3f0:	6825      	ldr	r5, [r4, #0]
 800d3f2:	1961      	adds	r1, r4, r5
 800d3f4:	428b      	cmp	r3, r1
 800d3f6:	bf01      	itttt	eq
 800d3f8:	6819      	ldreq	r1, [r3, #0]
 800d3fa:	685b      	ldreq	r3, [r3, #4]
 800d3fc:	1949      	addeq	r1, r1, r5
 800d3fe:	6021      	streq	r1, [r4, #0]
 800d400:	e7ed      	b.n	800d3de <_free_r+0x22>
 800d402:	461a      	mov	r2, r3
 800d404:	685b      	ldr	r3, [r3, #4]
 800d406:	b10b      	cbz	r3, 800d40c <_free_r+0x50>
 800d408:	42a3      	cmp	r3, r4
 800d40a:	d9fa      	bls.n	800d402 <_free_r+0x46>
 800d40c:	6811      	ldr	r1, [r2, #0]
 800d40e:	1855      	adds	r5, r2, r1
 800d410:	42a5      	cmp	r5, r4
 800d412:	d10b      	bne.n	800d42c <_free_r+0x70>
 800d414:	6824      	ldr	r4, [r4, #0]
 800d416:	4421      	add	r1, r4
 800d418:	1854      	adds	r4, r2, r1
 800d41a:	42a3      	cmp	r3, r4
 800d41c:	6011      	str	r1, [r2, #0]
 800d41e:	d1e0      	bne.n	800d3e2 <_free_r+0x26>
 800d420:	681c      	ldr	r4, [r3, #0]
 800d422:	685b      	ldr	r3, [r3, #4]
 800d424:	6053      	str	r3, [r2, #4]
 800d426:	440c      	add	r4, r1
 800d428:	6014      	str	r4, [r2, #0]
 800d42a:	e7da      	b.n	800d3e2 <_free_r+0x26>
 800d42c:	d902      	bls.n	800d434 <_free_r+0x78>
 800d42e:	230c      	movs	r3, #12
 800d430:	6003      	str	r3, [r0, #0]
 800d432:	e7d6      	b.n	800d3e2 <_free_r+0x26>
 800d434:	6825      	ldr	r5, [r4, #0]
 800d436:	1961      	adds	r1, r4, r5
 800d438:	428b      	cmp	r3, r1
 800d43a:	bf04      	itt	eq
 800d43c:	6819      	ldreq	r1, [r3, #0]
 800d43e:	685b      	ldreq	r3, [r3, #4]
 800d440:	6063      	str	r3, [r4, #4]
 800d442:	bf04      	itt	eq
 800d444:	1949      	addeq	r1, r1, r5
 800d446:	6021      	streq	r1, [r4, #0]
 800d448:	6054      	str	r4, [r2, #4]
 800d44a:	e7ca      	b.n	800d3e2 <_free_r+0x26>
 800d44c:	b003      	add	sp, #12
 800d44e:	bd30      	pop	{r4, r5, pc}
 800d450:	2000cb24 	.word	0x2000cb24

0800d454 <sbrk_aligned>:
 800d454:	b570      	push	{r4, r5, r6, lr}
 800d456:	4e0e      	ldr	r6, [pc, #56]	; (800d490 <sbrk_aligned+0x3c>)
 800d458:	460c      	mov	r4, r1
 800d45a:	6831      	ldr	r1, [r6, #0]
 800d45c:	4605      	mov	r5, r0
 800d45e:	b911      	cbnz	r1, 800d466 <sbrk_aligned+0x12>
 800d460:	f000 fba6 	bl	800dbb0 <_sbrk_r>
 800d464:	6030      	str	r0, [r6, #0]
 800d466:	4621      	mov	r1, r4
 800d468:	4628      	mov	r0, r5
 800d46a:	f000 fba1 	bl	800dbb0 <_sbrk_r>
 800d46e:	1c43      	adds	r3, r0, #1
 800d470:	d00a      	beq.n	800d488 <sbrk_aligned+0x34>
 800d472:	1cc4      	adds	r4, r0, #3
 800d474:	f024 0403 	bic.w	r4, r4, #3
 800d478:	42a0      	cmp	r0, r4
 800d47a:	d007      	beq.n	800d48c <sbrk_aligned+0x38>
 800d47c:	1a21      	subs	r1, r4, r0
 800d47e:	4628      	mov	r0, r5
 800d480:	f000 fb96 	bl	800dbb0 <_sbrk_r>
 800d484:	3001      	adds	r0, #1
 800d486:	d101      	bne.n	800d48c <sbrk_aligned+0x38>
 800d488:	f04f 34ff 	mov.w	r4, #4294967295
 800d48c:	4620      	mov	r0, r4
 800d48e:	bd70      	pop	{r4, r5, r6, pc}
 800d490:	2000cb28 	.word	0x2000cb28

0800d494 <_malloc_r>:
 800d494:	e92d 43f8 	stmdb	sp!, {r3, r4, r5, r6, r7, r8, r9, lr}
 800d498:	1ccd      	adds	r5, r1, #3
 800d49a:	f025 0503 	bic.w	r5, r5, #3
 800d49e:	3508      	adds	r5, #8
 800d4a0:	2d0c      	cmp	r5, #12
 800d4a2:	bf38      	it	cc
 800d4a4:	250c      	movcc	r5, #12
 800d4a6:	2d00      	cmp	r5, #0
 800d4a8:	4607      	mov	r7, r0
 800d4aa:	db01      	blt.n	800d4b0 <_malloc_r+0x1c>
 800d4ac:	42a9      	cmp	r1, r5
 800d4ae:	d905      	bls.n	800d4bc <_malloc_r+0x28>
 800d4b0:	230c      	movs	r3, #12
 800d4b2:	603b      	str	r3, [r7, #0]
 800d4b4:	2600      	movs	r6, #0
 800d4b6:	4630      	mov	r0, r6
 800d4b8:	e8bd 83f8 	ldmia.w	sp!, {r3, r4, r5, r6, r7, r8, r9, pc}
 800d4bc:	f8df 80d0 	ldr.w	r8, [pc, #208]	; 800d590 <_malloc_r+0xfc>
 800d4c0:	f000 f868 	bl	800d594 <__malloc_lock>
 800d4c4:	f8d8 3000 	ldr.w	r3, [r8]
 800d4c8:	461c      	mov	r4, r3
 800d4ca:	bb5c      	cbnz	r4, 800d524 <_malloc_r+0x90>
 800d4cc:	4629      	mov	r1, r5
 800d4ce:	4638      	mov	r0, r7
 800d4d0:	f7ff ffc0 	bl	800d454 <sbrk_aligned>
 800d4d4:	1c43      	adds	r3, r0, #1
 800d4d6:	4604      	mov	r4, r0
 800d4d8:	d155      	bne.n	800d586 <_malloc_r+0xf2>
 800d4da:	f8d8 4000 	ldr.w	r4, [r8]
 800d4de:	4626      	mov	r6, r4
 800d4e0:	2e00      	cmp	r6, #0
 800d4e2:	d145      	bne.n	800d570 <_malloc_r+0xdc>
 800d4e4:	2c00      	cmp	r4, #0
 800d4e6:	d048      	beq.n	800d57a <_malloc_r+0xe6>
 800d4e8:	6823      	ldr	r3, [r4, #0]
 800d4ea:	4631      	mov	r1, r6
 800d4ec:	4638      	mov	r0, r7
 800d4ee:	eb04 0903 	add.w	r9, r4, r3
 800d4f2:	f000 fb5d 	bl	800dbb0 <_sbrk_r>
 800d4f6:	4581      	cmp	r9, r0
 800d4f8:	d13f      	bne.n	800d57a <_malloc_r+0xe6>
 800d4fa:	6821      	ldr	r1, [r4, #0]
 800d4fc:	1a6d      	subs	r5, r5, r1
 800d4fe:	4629      	mov	r1, r5
 800d500:	4638      	mov	r0, r7
 800d502:	f7ff ffa7 	bl	800d454 <sbrk_aligned>
 800d506:	3001      	adds	r0, #1
 800d508:	d037      	beq.n	800d57a <_malloc_r+0xe6>
 800d50a:	6823      	ldr	r3, [r4, #0]
 800d50c:	442b      	add	r3, r5
 800d50e:	6023      	str	r3, [r4, #0]
 800d510:	f8d8 3000 	ldr.w	r3, [r8]
 800d514:	2b00      	cmp	r3, #0
 800d516:	d038      	beq.n	800d58a <_malloc_r+0xf6>
 800d518:	685a      	ldr	r2, [r3, #4]
 800d51a:	42a2      	cmp	r2, r4
 800d51c:	d12b      	bne.n	800d576 <_malloc_r+0xe2>
 800d51e:	2200      	movs	r2, #0
 800d520:	605a      	str	r2, [r3, #4]
 800d522:	e00f      	b.n	800d544 <_malloc_r+0xb0>
 800d524:	6822      	ldr	r2, [r4, #0]
 800d526:	1b52      	subs	r2, r2, r5
 800d528:	d41f      	bmi.n	800d56a <_malloc_r+0xd6>
 800d52a:	2a0b      	cmp	r2, #11
 800d52c:	d917      	bls.n	800d55e <_malloc_r+0xca>
 800d52e:	1961      	adds	r1, r4, r5
 800d530:	42a3      	cmp	r3, r4
 800d532:	6025      	str	r5, [r4, #0]
 800d534:	bf18      	it	ne
 800d536:	6059      	strne	r1, [r3, #4]
 800d538:	6863      	ldr	r3, [r4, #4]
 800d53a:	bf08      	it	eq
 800d53c:	f8c8 1000 	streq.w	r1, [r8]
 800d540:	5162      	str	r2, [r4, r5]
 800d542:	604b      	str	r3, [r1, #4]
 800d544:	4638      	mov	r0, r7
 800d546:	f104 060b 	add.w	r6, r4, #11
 800d54a:	f000 f829 	bl	800d5a0 <__malloc_unlock>
 800d54e:	f026 0607 	bic.w	r6, r6, #7
 800d552:	1d23      	adds	r3, r4, #4
 800d554:	1af2      	subs	r2, r6, r3
 800d556:	d0ae      	beq.n	800d4b6 <_malloc_r+0x22>
 800d558:	1b9b      	subs	r3, r3, r6
 800d55a:	50a3      	str	r3, [r4, r2]
 800d55c:	e7ab      	b.n	800d4b6 <_malloc_r+0x22>
 800d55e:	42a3      	cmp	r3, r4
 800d560:	6862      	ldr	r2, [r4, #4]
 800d562:	d1dd      	bne.n	800d520 <_malloc_r+0x8c>
 800d564:	f8c8 2000 	str.w	r2, [r8]
 800d568:	e7ec      	b.n	800d544 <_malloc_r+0xb0>
 800d56a:	4623      	mov	r3, r4
 800d56c:	6864      	ldr	r4, [r4, #4]
 800d56e:	e7ac      	b.n	800d4ca <_malloc_r+0x36>
 800d570:	4634      	mov	r4, r6
 800d572:	6876      	ldr	r6, [r6, #4]
 800d574:	e7b4      	b.n	800d4e0 <_malloc_r+0x4c>
 800d576:	4613      	mov	r3, r2
 800d578:	e7cc      	b.n	800d514 <_malloc_r+0x80>
 800d57a:	230c      	movs	r3, #12
 800d57c:	603b      	str	r3, [r7, #0]
 800d57e:	4638      	mov	r0, r7
 800d580:	f000 f80e 	bl	800d5a0 <__malloc_unlock>
 800d584:	e797      	b.n	800d4b6 <_malloc_r+0x22>
 800d586:	6025      	str	r5, [r4, #0]
 800d588:	e7dc      	b.n	800d544 <_malloc_r+0xb0>
 800d58a:	605b      	str	r3, [r3, #4]
 800d58c:	deff      	udf	#255	; 0xff
 800d58e:	bf00      	nop
 800d590:	2000cb24 	.word	0x2000cb24

0800d594 <__malloc_lock>:
 800d594:	4801      	ldr	r0, [pc, #4]	; (800d59c <__malloc_lock+0x8>)
 800d596:	f7ff bf07 	b.w	800d3a8 <__retarget_lock_acquire_recursive>
 800d59a:	bf00      	nop
 800d59c:	2000cb20 	.word	0x2000cb20

0800d5a0 <__malloc_unlock>:
 800d5a0:	4801      	ldr	r0, [pc, #4]	; (800d5a8 <__malloc_unlock+0x8>)
 800d5a2:	f7ff bf02 	b.w	800d3aa <__retarget_lock_release_recursive>
 800d5a6:	bf00      	nop
 800d5a8:	2000cb20 	.word	0x2000cb20

0800d5ac <__ssputs_r>:
 800d5ac:	e92d 47f0 	stmdb	sp!, {r4, r5, r6, r7, r8, r9, sl, lr}
 800d5b0:	688e      	ldr	r6, [r1, #8]
 800d5b2:	461f      	mov	r7, r3
 800d5b4:	42be      	cmp	r6, r7
 800d5b6:	680b      	ldr	r3, [r1, #0]
 800d5b8:	4682      	mov	sl, r0
 800d5ba:	460c      	mov	r4, r1
 800d5bc:	4690      	mov	r8, r2
 800d5be:	d82c      	bhi.n	800d61a <__ssputs_r+0x6e>
 800d5c0:	898a      	ldrh	r2, [r1, #12]
 800d5c2:	f412 6f90 	tst.w	r2, #1152	; 0x480
 800d5c6:	d026      	beq.n	800d616 <__ssputs_r+0x6a>
 800d5c8:	6965      	ldr	r5, [r4, #20]
 800d5ca:	6909      	ldr	r1, [r1, #16]
 800d5cc:	eb05 0545 	add.w	r5, r5, r5, lsl #1
 800d5d0:	eba3 0901 	sub.w	r9, r3, r1
 800d5d4:	eb05 75d5 	add.w	r5, r5, r5, lsr #31
 800d5d8:	1c7b      	adds	r3, r7, #1
 800d5da:	444b      	add	r3, r9
 800d5dc:	106d      	asrs	r5, r5, #1
 800d5de:	429d      	cmp	r5, r3
 800d5e0:	bf38      	it	cc
 800d5e2:	461d      	movcc	r5, r3
 800d5e4:	0553      	lsls	r3, r2, #21
 800d5e6:	d527      	bpl.n	800d638 <__ssputs_r+0x8c>
 800d5e8:	4629      	mov	r1, r5
 800d5ea:	f7ff ff53 	bl	800d494 <_malloc_r>
 800d5ee:	4606      	mov	r6, r0
 800d5f0:	b360      	cbz	r0, 800d64c <__ssputs_r+0xa0>
 800d5f2:	6921      	ldr	r1, [r4, #16]
 800d5f4:	464a      	mov	r2, r9
 800d5f6:	f000 faeb 	bl	800dbd0 <memcpy>
 800d5fa:	89a3      	ldrh	r3, [r4, #12]
 800d5fc:	f423 6390 	bic.w	r3, r3, #1152	; 0x480
 800d600:	f043 0380 	orr.w	r3, r3, #128	; 0x80
 800d604:	81a3      	strh	r3, [r4, #12]
 800d606:	6126      	str	r6, [r4, #16]
 800d608:	6165      	str	r5, [r4, #20]
 800d60a:	444e      	add	r6, r9
 800d60c:	eba5 0509 	sub.w	r5, r5, r9
 800d610:	6026      	str	r6, [r4, #0]
 800d612:	60a5      	str	r5, [r4, #8]
 800d614:	463e      	mov	r6, r7
 800d616:	42be      	cmp	r6, r7
 800d618:	d900      	bls.n	800d61c <__ssputs_r+0x70>
 800d61a:	463e      	mov	r6, r7
 800d61c:	6820      	ldr	r0, [r4, #0]
 800d61e:	4632      	mov	r2, r6
 800d620:	4641      	mov	r1, r8
 800d622:	f000 faab 	bl	800db7c <memmove>
 800d626:	68a3      	ldr	r3, [r4, #8]
 800d628:	1b9b      	subs	r3, r3, r6
 800d62a:	60a3      	str	r3, [r4, #8]
 800d62c:	6823      	ldr	r3, [r4, #0]
 800d62e:	4433      	add	r3, r6
 800d630:	6023      	str	r3, [r4, #0]
 800d632:	2000      	movs	r0, #0
 800d634:	e8bd 87f0 	ldmia.w	sp!, {r4, r5, r6, r7, r8, r9, sl, pc}
 800d638:	462a      	mov	r2, r5
 800d63a:	f000 fad7 	bl	800dbec <_realloc_r>
 800d63e:	4606      	mov	r6, r0
 800d640:	2800      	cmp	r0, #0
 800d642:	d1e0      	bne.n	800d606 <__ssputs_r+0x5a>
 800d644:	6921      	ldr	r1, [r4, #16]
 800d646:	4650      	mov	r0, sl
 800d648:	f7ff feb8 	bl	800d3bc <_free_r>
 800d64c:	230c      	movs	r3, #12
 800d64e:	f8ca 3000 	str.w	r3, [sl]
 800d652:	89a3      	ldrh	r3, [r4, #12]
 800d654:	f043 0340 	orr.w	r3, r3, #64	; 0x40
 800d658:	81a3      	strh	r3, [r4, #12]
 800d65a:	f04f 30ff 	mov.w	r0, #4294967295
 800d65e:	e7e9      	b.n	800d634 <__ssputs_r+0x88>

0800d660 <_svfiprintf_r>:
 800d660:	e92d 4ff0 	stmdb	sp!, {r4, r5, r6, r7, r8, r9, sl, fp, lr}
 800d664:	4698      	mov	r8, r3
 800d666:	898b      	ldrh	r3, [r1, #12]
 800d668:	061b      	lsls	r3, r3, #24
 800d66a:	b09d      	sub	sp, #116	; 0x74
 800d66c:	4607      	mov	r7, r0
 800d66e:	460d      	mov	r5, r1
 800d670:	4614      	mov	r4, r2
 800d672:	d50e      	bpl.n	800d692 <_svfiprintf_r+0x32>
 800d674:	690b      	ldr	r3, [r1, #16]
 800d676:	b963      	cbnz	r3, 800d692 <_svfiprintf_r+0x32>
 800d678:	2140      	movs	r1, #64	; 0x40
 800d67a:	f7ff ff0b 	bl	800d494 <_malloc_r>
 800d67e:	6028      	str	r0, [r5, #0]
 800d680:	6128      	str	r0, [r5, #16]
 800d682:	b920      	cbnz	r0, 800d68e <_svfiprintf_r+0x2e>
 800d684:	230c      	movs	r3, #12
 800d686:	603b      	str	r3, [r7, #0]
 800d688:	f04f 30ff 	mov.w	r0, #4294967295
 800d68c:	e0d0      	b.n	800d830 <_svfiprintf_r+0x1d0>
 800d68e:	2340      	movs	r3, #64	; 0x40
 800d690:	616b      	str	r3, [r5, #20]
 800d692:	2300      	movs	r3, #0
 800d694:	9309      	str	r3, [sp, #36]	; 0x24
 800d696:	2320      	movs	r3, #32
 800d698:	f88d 3029 	strb.w	r3, [sp, #41]	; 0x29
 800d69c:	f8cd 800c 	str.w	r8, [sp, #12]
 800d6a0:	2330      	movs	r3, #48	; 0x30
 800d6a2:	f8df 81a4 	ldr.w	r8, [pc, #420]	; 800d848 <_svfiprintf_r+0x1e8>
 800d6a6:	f88d 302a 	strb.w	r3, [sp, #42]	; 0x2a
 800d6aa:	f04f 0901 	mov.w	r9, #1
 800d6ae:	4623      	mov	r3, r4
 800d6b0:	469a      	mov	sl, r3
 800d6b2:	f813 2b01 	ldrb.w	r2, [r3], #1
 800d6b6:	b10a      	cbz	r2, 800d6bc <_svfiprintf_r+0x5c>
 800d6b8:	2a25      	cmp	r2, #37	; 0x25
 800d6ba:	d1f9      	bne.n	800d6b0 <_svfiprintf_r+0x50>
 800d6bc:	ebba 0b04 	subs.w	fp, sl, r4
 800d6c0:	d00b      	beq.n	800d6da <_svfiprintf_r+0x7a>
 800d6c2:	465b      	mov	r3, fp
 800d6c4:	4622      	mov	r2, r4
 800d6c6:	4629      	mov	r1, r5
 800d6c8:	4638      	mov	r0, r7
 800d6ca:	f7ff ff6f 	bl	800d5ac <__ssputs_r>
 800d6ce:	3001      	adds	r0, #1
 800d6d0:	f000 80a9 	beq.w	800d826 <_svfiprintf_r+0x1c6>
 800d6d4:	9a09      	ldr	r2, [sp, #36]	; 0x24
 800d6d6:	445a      	add	r2, fp
 800d6d8:	9209      	str	r2, [sp, #36]	; 0x24
 800d6da:	f89a 3000 	ldrb.w	r3, [sl]
 800d6de:	2b00      	cmp	r3, #0
 800d6e0:	f000 80a1 	beq.w	800d826 <_svfiprintf_r+0x1c6>
 800d6e4:	2300      	movs	r3, #0
 800d6e6:	f04f 32ff 	mov.w	r2, #4294967295
 800d6ea:	e9cd 2305 	strd	r2, r3, [sp, #20]
 800d6ee:	f10a 0a01 	add.w	sl, sl, #1
 800d6f2:	9304      	str	r3, [sp, #16]
 800d6f4:	9307      	str	r3, [sp, #28]
 800d6f6:	f88d 3053 	strb.w	r3, [sp, #83]	; 0x53
 800d6fa:	931a      	str	r3, [sp, #104]	; 0x68
 800d6fc:	4654      	mov	r4, sl
 800d6fe:	2205      	movs	r2, #5
 800d700:	f814 1b01 	ldrb.w	r1, [r4], #1
 800d704:	4850      	ldr	r0, [pc, #320]	; (800d848 <_svfiprintf_r+0x1e8>)
 800d706:	f7f2 fd73 	bl	80001f0 <memchr>
 800d70a:	9a04      	ldr	r2, [sp, #16]
 800d70c:	b9d8      	cbnz	r0, 800d746 <_svfiprintf_r+0xe6>
 800d70e:	06d0      	lsls	r0, r2, #27
 800d710:	bf44      	itt	mi
 800d712:	2320      	movmi	r3, #32
 800d714:	f88d 3053 	strbmi.w	r3, [sp, #83]	; 0x53
 800d718:	0711      	lsls	r1, r2, #28
 800d71a:	bf44      	itt	mi
 800d71c:	232b      	movmi	r3, #43	; 0x2b
 800d71e:	f88d 3053 	strbmi.w	r3, [sp, #83]	; 0x53
 800d722:	f89a 3000 	ldrb.w	r3, [sl]
 800d726:	2b2a      	cmp	r3, #42	; 0x2a
 800d728:	d015      	beq.n	800d756 <_svfiprintf_r+0xf6>
 800d72a:	9a07      	ldr	r2, [sp, #28]
 800d72c:	4654      	mov	r4, sl
 800d72e:	2000      	movs	r0, #0
 800d730:	f04f 0c0a 	mov.w	ip, #10
 800d734:	4621      	mov	r1, r4
 800d736:	f811 3b01 	ldrb.w	r3, [r1], #1
 800d73a:	3b30      	subs	r3, #48	; 0x30
 800d73c:	2b09      	cmp	r3, #9
 800d73e:	d94d      	bls.n	800d7dc <_svfiprintf_r+0x17c>
 800d740:	b1b0      	cbz	r0, 800d770 <_svfiprintf_r+0x110>
 800d742:	9207      	str	r2, [sp, #28]
 800d744:	e014      	b.n	800d770 <_svfiprintf_r+0x110>
 800d746:	eba0 0308 	sub.w	r3, r0, r8
 800d74a:	fa09 f303 	lsl.w	r3, r9, r3
 800d74e:	4313      	orrs	r3, r2
 800d750:	9304      	str	r3, [sp, #16]
 800d752:	46a2      	mov	sl, r4
 800d754:	e7d2      	b.n	800d6fc <_svfiprintf_r+0x9c>
 800d756:	9b03      	ldr	r3, [sp, #12]
 800d758:	1d19      	adds	r1, r3, #4
 800d75a:	681b      	ldr	r3, [r3, #0]
 800d75c:	9103      	str	r1, [sp, #12]
 800d75e:	2b00      	cmp	r3, #0
 800d760:	bfbb      	ittet	lt
 800d762:	425b      	neglt	r3, r3
 800d764:	f042 0202 	orrlt.w	r2, r2, #2
 800d768:	9307      	strge	r3, [sp, #28]
 800d76a:	9307      	strlt	r3, [sp, #28]
 800d76c:	bfb8      	it	lt
 800d76e:	9204      	strlt	r2, [sp, #16]
 800d770:	7823      	ldrb	r3, [r4, #0]
 800d772:	2b2e      	cmp	r3, #46	; 0x2e
 800d774:	d10c      	bne.n	800d790 <_svfiprintf_r+0x130>
 800d776:	7863      	ldrb	r3, [r4, #1]
 800d778:	2b2a      	cmp	r3, #42	; 0x2a
 800d77a:	d134      	bne.n	800d7e6 <_svfiprintf_r+0x186>
 800d77c:	9b03      	ldr	r3, [sp, #12]
 800d77e:	1d1a      	adds	r2, r3, #4
 800d780:	681b      	ldr	r3, [r3, #0]
 800d782:	9203      	str	r2, [sp, #12]
 800d784:	2b00      	cmp	r3, #0
 800d786:	bfb8      	it	lt
 800d788:	f04f 33ff 	movlt.w	r3, #4294967295
 800d78c:	3402      	adds	r4, #2
 800d78e:	9305      	str	r3, [sp, #20]
 800d790:	f8df a0c4 	ldr.w	sl, [pc, #196]	; 800d858 <_svfiprintf_r+0x1f8>
 800d794:	7821      	ldrb	r1, [r4, #0]
 800d796:	2203      	movs	r2, #3
 800d798:	4650      	mov	r0, sl
 800d79a:	f7f2 fd29 	bl	80001f0 <memchr>
 800d79e:	b138      	cbz	r0, 800d7b0 <_svfiprintf_r+0x150>
 800d7a0:	9b04      	ldr	r3, [sp, #16]
 800d7a2:	eba0 000a 	sub.w	r0, r0, sl
 800d7a6:	2240      	movs	r2, #64	; 0x40
 800d7a8:	4082      	lsls	r2, r0
 800d7aa:	4313      	orrs	r3, r2
 800d7ac:	3401      	adds	r4, #1
 800d7ae:	9304      	str	r3, [sp, #16]
 800d7b0:	f814 1b01 	ldrb.w	r1, [r4], #1
 800d7b4:	4825      	ldr	r0, [pc, #148]	; (800d84c <_svfiprintf_r+0x1ec>)
 800d7b6:	f88d 1028 	strb.w	r1, [sp, #40]	; 0x28
 800d7ba:	2206      	movs	r2, #6
 800d7bc:	f7f2 fd18 	bl	80001f0 <memchr>
 800d7c0:	2800      	cmp	r0, #0
 800d7c2:	d038      	beq.n	800d836 <_svfiprintf_r+0x1d6>
 800d7c4:	4b22      	ldr	r3, [pc, #136]	; (800d850 <_svfiprintf_r+0x1f0>)
 800d7c6:	bb1b      	cbnz	r3, 800d810 <_svfiprintf_r+0x1b0>
 800d7c8:	9b03      	ldr	r3, [sp, #12]
 800d7ca:	3307      	adds	r3, #7
 800d7cc:	f023 0307 	bic.w	r3, r3, #7
 800d7d0:	3308      	adds	r3, #8
 800d7d2:	9303      	str	r3, [sp, #12]
 800d7d4:	9b09      	ldr	r3, [sp, #36]	; 0x24
 800d7d6:	4433      	add	r3, r6
 800d7d8:	9309      	str	r3, [sp, #36]	; 0x24
 800d7da:	e768      	b.n	800d6ae <_svfiprintf_r+0x4e>
 800d7dc:	fb0c 3202 	mla	r2, ip, r2, r3
 800d7e0:	460c      	mov	r4, r1
 800d7e2:	2001      	movs	r0, #1
 800d7e4:	e7a6      	b.n	800d734 <_svfiprintf_r+0xd4>
 800d7e6:	2300      	movs	r3, #0
 800d7e8:	3401      	adds	r4, #1
 800d7ea:	9305      	str	r3, [sp, #20]
 800d7ec:	4619      	mov	r1, r3
 800d7ee:	f04f 0c0a 	mov.w	ip, #10
 800d7f2:	4620      	mov	r0, r4
 800d7f4:	f810 2b01 	ldrb.w	r2, [r0], #1
 800d7f8:	3a30      	subs	r2, #48	; 0x30
 800d7fa:	2a09      	cmp	r2, #9
 800d7fc:	d903      	bls.n	800d806 <_svfiprintf_r+0x1a6>
 800d7fe:	2b00      	cmp	r3, #0
 800d800:	d0c6      	beq.n	800d790 <_svfiprintf_r+0x130>
 800d802:	9105      	str	r1, [sp, #20]
 800d804:	e7c4      	b.n	800d790 <_svfiprintf_r+0x130>
 800d806:	fb0c 2101 	mla	r1, ip, r1, r2
 800d80a:	4604      	mov	r4, r0
 800d80c:	2301      	movs	r3, #1
 800d80e:	e7f0      	b.n	800d7f2 <_svfiprintf_r+0x192>
 800d810:	ab03      	add	r3, sp, #12
 800d812:	9300      	str	r3, [sp, #0]
 800d814:	462a      	mov	r2, r5
 800d816:	4b0f      	ldr	r3, [pc, #60]	; (800d854 <_svfiprintf_r+0x1f4>)
 800d818:	a904      	add	r1, sp, #16
 800d81a:	4638      	mov	r0, r7
 800d81c:	f3af 8000 	nop.w
 800d820:	1c42      	adds	r2, r0, #1
 800d822:	4606      	mov	r6, r0
 800d824:	d1d6      	bne.n	800d7d4 <_svfiprintf_r+0x174>
 800d826:	89ab      	ldrh	r3, [r5, #12]
 800d828:	065b      	lsls	r3, r3, #25
 800d82a:	f53f af2d 	bmi.w	800d688 <_svfiprintf_r+0x28>
 800d82e:	9809      	ldr	r0, [sp, #36]	; 0x24
 800d830:	b01d      	add	sp, #116	; 0x74
 800d832:	e8bd 8ff0 	ldmia.w	sp!, {r4, r5, r6, r7, r8, r9, sl, fp, pc}
 800d836:	ab03      	add	r3, sp, #12
 800d838:	9300      	str	r3, [sp, #0]
 800d83a:	462a      	mov	r2, r5
 800d83c:	4b05      	ldr	r3, [pc, #20]	; (800d854 <_svfiprintf_r+0x1f4>)
 800d83e:	a904      	add	r1, sp, #16
 800d840:	4638      	mov	r0, r7
 800d842:	f000 f879 	bl	800d938 <_printf_i>
 800d846:	e7eb      	b.n	800d820 <_svfiprintf_r+0x1c0>
 800d848:	08010ed6 	.word	0x08010ed6
 800d84c:	08010ee0 	.word	0x08010ee0
 800d850:	00000000 	.word	0x00000000
 800d854:	0800d5ad 	.word	0x0800d5ad
 800d858:	08010edc 	.word	0x08010edc

0800d85c <_printf_common>:
 800d85c:	e92d 47f0 	stmdb	sp!, {r4, r5, r6, r7, r8, r9, sl, lr}
 800d860:	4616      	mov	r6, r2
 800d862:	4699      	mov	r9, r3
 800d864:	688a      	ldr	r2, [r1, #8]
 800d866:	690b      	ldr	r3, [r1, #16]
 800d868:	f8dd 8020 	ldr.w	r8, [sp, #32]
 800d86c:	4293      	cmp	r3, r2
 800d86e:	bfb8      	it	lt
 800d870:	4613      	movlt	r3, r2
 800d872:	6033      	str	r3, [r6, #0]
 800d874:	f891 2043 	ldrb.w	r2, [r1, #67]	; 0x43
 800d878:	4607      	mov	r7, r0
 800d87a:	460c      	mov	r4, r1
 800d87c:	b10a      	cbz	r2, 800d882 <_printf_common+0x26>
 800d87e:	3301      	adds	r3, #1
 800d880:	6033      	str	r3, [r6, #0]
 800d882:	6823      	ldr	r3, [r4, #0]
 800d884:	0699      	lsls	r1, r3, #26
 800d886:	bf42      	ittt	mi
 800d888:	6833      	ldrmi	r3, [r6, #0]
 800d88a:	3302      	addmi	r3, #2
 800d88c:	6033      	strmi	r3, [r6, #0]
 800d88e:	6825      	ldr	r5, [r4, #0]
 800d890:	f015 0506 	ands.w	r5, r5, #6
 800d894:	d106      	bne.n	800d8a4 <_printf_common+0x48>
 800d896:	f104 0a19 	add.w	sl, r4, #25
 800d89a:	68e3      	ldr	r3, [r4, #12]
 800d89c:	6832      	ldr	r2, [r6, #0]
 800d89e:	1a9b      	subs	r3, r3, r2
 800d8a0:	42ab      	cmp	r3, r5
 800d8a2:	dc26      	bgt.n	800d8f2 <_printf_common+0x96>
 800d8a4:	f894 2043 	ldrb.w	r2, [r4, #67]	; 0x43
 800d8a8:	1e13      	subs	r3, r2, #0
 800d8aa:	6822      	ldr	r2, [r4, #0]
 800d8ac:	bf18      	it	ne
 800d8ae:	2301      	movne	r3, #1
 800d8b0:	0692      	lsls	r2, r2, #26
 800d8b2:	d42b      	bmi.n	800d90c <_printf_common+0xb0>
 800d8b4:	f104 0243 	add.w	r2, r4, #67	; 0x43
 800d8b8:	4649      	mov	r1, r9
 800d8ba:	4638      	mov	r0, r7
 800d8bc:	47c0      	blx	r8
 800d8be:	3001      	adds	r0, #1
 800d8c0:	d01e      	beq.n	800d900 <_printf_common+0xa4>
 800d8c2:	6823      	ldr	r3, [r4, #0]
 800d8c4:	6922      	ldr	r2, [r4, #16]
 800d8c6:	f003 0306 	and.w	r3, r3, #6
 800d8ca:	2b04      	cmp	r3, #4
 800d8cc:	bf02      	ittt	eq
 800d8ce:	68e5      	ldreq	r5, [r4, #12]
 800d8d0:	6833      	ldreq	r3, [r6, #0]
 800d8d2:	1aed      	subeq	r5, r5, r3
 800d8d4:	68a3      	ldr	r3, [r4, #8]
 800d8d6:	bf0c      	ite	eq
 800d8d8:	ea25 75e5 	biceq.w	r5, r5, r5, asr #31
 800d8dc:	2500      	movne	r5, #0
 800d8de:	4293      	cmp	r3, r2
 800d8e0:	bfc4      	itt	gt
 800d8e2:	1a9b      	subgt	r3, r3, r2
 800d8e4:	18ed      	addgt	r5, r5, r3
 800d8e6:	2600      	movs	r6, #0
 800d8e8:	341a      	adds	r4, #26
 800d8ea:	42b5      	cmp	r5, r6
 800d8ec:	d11a      	bne.n	800d924 <_printf_common+0xc8>
 800d8ee:	2000      	movs	r0, #0
 800d8f0:	e008      	b.n	800d904 <_printf_common+0xa8>
 800d8f2:	2301      	movs	r3, #1
 800d8f4:	4652      	mov	r2, sl
 800d8f6:	4649      	mov	r1, r9
 800d8f8:	4638      	mov	r0, r7
 800d8fa:	47c0      	blx	r8
 800d8fc:	3001      	adds	r0, #1
 800d8fe:	d103      	bne.n	800d908 <_printf_common+0xac>
 800d900:	f04f 30ff 	mov.w	r0, #4294967295
 800d904:	e8bd 87f0 	ldmia.w	sp!, {r4, r5, r6, r7, r8, r9, sl, pc}
 800d908:	3501      	adds	r5, #1
 800d90a:	e7c6      	b.n	800d89a <_printf_common+0x3e>
 800d90c:	18e1      	adds	r1, r4, r3
 800d90e:	1c5a      	adds	r2, r3, #1
 800d910:	2030      	movs	r0, #48	; 0x30
 800d912:	f881 0043 	strb.w	r0, [r1, #67]	; 0x43
 800d916:	4422      	add	r2, r4
 800d918:	f894 1045 	ldrb.w	r1, [r4, #69]	; 0x45
 800d91c:	f882 1043 	strb.w	r1, [r2, #67]	; 0x43
 800d920:	3302      	adds	r3, #2
 800d922:	e7c7      	b.n	800d8b4 <_printf_common+0x58>
 800d924:	2301      	movs	r3, #1
 800d926:	4622      	mov	r2, r4
 800d928:	4649      	mov	r1, r9
 800d92a:	4638      	mov	r0, r7
 800d92c:	47c0      	blx	r8
 800d92e:	3001      	adds	r0, #1
 800d930:	d0e6      	beq.n	800d900 <_printf_common+0xa4>
 800d932:	3601      	adds	r6, #1
 800d934:	e7d9      	b.n	800d8ea <_printf_common+0x8e>
	...

0800d938 <_printf_i>:
 800d938:	e92d 47ff 	stmdb	sp!, {r0, r1, r2, r3, r4, r5, r6, r7, r8, r9, sl, lr}
 800d93c:	7e0f      	ldrb	r7, [r1, #24]
 800d93e:	9d0c      	ldr	r5, [sp, #48]	; 0x30
 800d940:	2f78      	cmp	r7, #120	; 0x78
 800d942:	4691      	mov	r9, r2
 800d944:	4680      	mov	r8, r0
 800d946:	460c      	mov	r4, r1
 800d948:	469a      	mov	sl, r3
 800d94a:	f101 0243 	add.w	r2, r1, #67	; 0x43
 800d94e:	d807      	bhi.n	800d960 <_printf_i+0x28>
 800d950:	2f62      	cmp	r7, #98	; 0x62
 800d952:	d80a      	bhi.n	800d96a <_printf_i+0x32>
 800d954:	2f00      	cmp	r7, #0
 800d956:	f000 80d4 	beq.w	800db02 <_printf_i+0x1ca>
 800d95a:	2f58      	cmp	r7, #88	; 0x58
 800d95c:	f000 80c0 	beq.w	800dae0 <_printf_i+0x1a8>
 800d960:	f104 0542 	add.w	r5, r4, #66	; 0x42
 800d964:	f884 7042 	strb.w	r7, [r4, #66]	; 0x42
 800d968:	e03a      	b.n	800d9e0 <_printf_i+0xa8>
 800d96a:	f1a7 0363 	sub.w	r3, r7, #99	; 0x63
 800d96e:	2b15      	cmp	r3, #21
 800d970:	d8f6      	bhi.n	800d960 <_printf_i+0x28>
 800d972:	a101      	add	r1, pc, #4	; (adr r1, 800d978 <_printf_i+0x40>)
 800d974:	f851 f023 	ldr.w	pc, [r1, r3, lsl #2]
 800d978:	0800d9d1 	.word	0x0800d9d1
 800d97c:	0800d9e5 	.word	0x0800d9e5
 800d980:	0800d961 	.word	0x0800d961
 800d984:	0800d961 	.word	0x0800d961
 800d988:	0800d961 	.word	0x0800d961
 800d98c:	0800d961 	.word	0x0800d961
 800d990:	0800d9e5 	.word	0x0800d9e5
 800d994:	0800d961 	.word	0x0800d961
 800d998:	0800d961 	.word	0x0800d961
 800d99c:	0800d961 	.word	0x0800d961
 800d9a0:	0800d961 	.word	0x0800d961
 800d9a4:	0800dae9 	.word	0x0800dae9
 800d9a8:	0800da11 	.word	0x0800da11
 800d9ac:	0800daa3 	.word	0x0800daa3
 800d9b0:	0800d961 	.word	0x0800d961
 800d9b4:	0800d961 	.word	0x0800d961
 800d9b8:	0800db0b 	.word	0x0800db0b
 800d9bc:	0800d961 	.word	0x0800d961
 800d9c0:	0800da11 	.word	0x0800da11
 800d9c4:	0800d961 	.word	0x0800d961
 800d9c8:	0800d961 	.word	0x0800d961
 800d9cc:	0800daab 	.word	0x0800daab
 800d9d0:	682b      	ldr	r3, [r5, #0]
 800d9d2:	1d1a      	adds	r2, r3, #4
 800d9d4:	681b      	ldr	r3, [r3, #0]
 800d9d6:	602a      	str	r2, [r5, #0]
 800d9d8:	f104 0542 	add.w	r5, r4, #66	; 0x42
 800d9dc:	f884 3042 	strb.w	r3, [r4, #66]	; 0x42
 800d9e0:	2301      	movs	r3, #1
 800d9e2:	e09f      	b.n	800db24 <_printf_i+0x1ec>
 800d9e4:	6820      	ldr	r0, [r4, #0]
 800d9e6:	682b      	ldr	r3, [r5, #0]
 800d9e8:	0607      	lsls	r7, r0, #24
 800d9ea:	f103 0104 	add.w	r1, r3, #4
 800d9ee:	6029      	str	r1, [r5, #0]
 800d9f0:	d501      	bpl.n	800d9f6 <_printf_i+0xbe>
 800d9f2:	681e      	ldr	r6, [r3, #0]
 800d9f4:	e003      	b.n	800d9fe <_printf_i+0xc6>
 800d9f6:	0646      	lsls	r6, r0, #25
 800d9f8:	d5fb      	bpl.n	800d9f2 <_printf_i+0xba>
 800d9fa:	f9b3 6000 	ldrsh.w	r6, [r3]
 800d9fe:	2e00      	cmp	r6, #0
 800da00:	da03      	bge.n	800da0a <_printf_i+0xd2>
 800da02:	232d      	movs	r3, #45	; 0x2d
 800da04:	4276      	negs	r6, r6
 800da06:	f884 3043 	strb.w	r3, [r4, #67]	; 0x43
 800da0a:	485a      	ldr	r0, [pc, #360]	; (800db74 <_printf_i+0x23c>)
 800da0c:	230a      	movs	r3, #10
 800da0e:	e012      	b.n	800da36 <_printf_i+0xfe>
 800da10:	682b      	ldr	r3, [r5, #0]
 800da12:	6820      	ldr	r0, [r4, #0]
 800da14:	1d19      	adds	r1, r3, #4
 800da16:	6029      	str	r1, [r5, #0]
 800da18:	0605      	lsls	r5, r0, #24
 800da1a:	d501      	bpl.n	800da20 <_printf_i+0xe8>
 800da1c:	681e      	ldr	r6, [r3, #0]
 800da1e:	e002      	b.n	800da26 <_printf_i+0xee>
 800da20:	0641      	lsls	r1, r0, #25
 800da22:	d5fb      	bpl.n	800da1c <_printf_i+0xe4>
 800da24:	881e      	ldrh	r6, [r3, #0]
 800da26:	4853      	ldr	r0, [pc, #332]	; (800db74 <_printf_i+0x23c>)
 800da28:	2f6f      	cmp	r7, #111	; 0x6f
 800da2a:	bf0c      	ite	eq
 800da2c:	2308      	moveq	r3, #8
 800da2e:	230a      	movne	r3, #10
 800da30:	2100      	movs	r1, #0
 800da32:	f884 1043 	strb.w	r1, [r4, #67]	; 0x43
 800da36:	6865      	ldr	r5, [r4, #4]
 800da38:	60a5      	str	r5, [r4, #8]
 800da3a:	2d00      	cmp	r5, #0
 800da3c:	bfa2      	ittt	ge
 800da3e:	6821      	ldrge	r1, [r4, #0]
 800da40:	f021 0104 	bicge.w	r1, r1, #4
 800da44:	6021      	strge	r1, [r4, #0]
 800da46:	b90e      	cbnz	r6, 800da4c <_printf_i+0x114>
 800da48:	2d00      	cmp	r5, #0
 800da4a:	d04b      	beq.n	800dae4 <_printf_i+0x1ac>
 800da4c:	4615      	mov	r5, r2
 800da4e:	fbb6 f1f3 	udiv	r1, r6, r3
 800da52:	fb03 6711 	mls	r7, r3, r1, r6
 800da56:	5dc7      	ldrb	r7, [r0, r7]
 800da58:	f805 7d01 	strb.w	r7, [r5, #-1]!
 800da5c:	4637      	mov	r7, r6
 800da5e:	42bb      	cmp	r3, r7
 800da60:	460e      	mov	r6, r1
 800da62:	d9f4      	bls.n	800da4e <_printf_i+0x116>
 800da64:	2b08      	cmp	r3, #8
 800da66:	d10b      	bne.n	800da80 <_printf_i+0x148>
 800da68:	6823      	ldr	r3, [r4, #0]
 800da6a:	07de      	lsls	r6, r3, #31
 800da6c:	d508      	bpl.n	800da80 <_printf_i+0x148>
 800da6e:	6923      	ldr	r3, [r4, #16]
 800da70:	6861      	ldr	r1, [r4, #4]
 800da72:	4299      	cmp	r1, r3
 800da74:	bfde      	ittt	le
 800da76:	2330      	movle	r3, #48	; 0x30
 800da78:	f805 3c01 	strble.w	r3, [r5, #-1]
 800da7c:	f105 35ff 	addle.w	r5, r5, #4294967295
 800da80:	1b52      	subs	r2, r2, r5
 800da82:	6122      	str	r2, [r4, #16]
 800da84:	f8cd a000 	str.w	sl, [sp]
 800da88:	464b      	mov	r3, r9
 800da8a:	aa03      	add	r2, sp, #12
 800da8c:	4621      	mov	r1, r4
 800da8e:	4640      	mov	r0, r8
 800da90:	f7ff fee4 	bl	800d85c <_printf_common>
 800da94:	3001      	adds	r0, #1
 800da96:	d14a      	bne.n	800db2e <_printf_i+0x1f6>
 800da98:	f04f 30ff 	mov.w	r0, #4294967295
 800da9c:	b004      	add	sp, #16
 800da9e:	e8bd 87f0 	ldmia.w	sp!, {r4, r5, r6, r7, r8, r9, sl, pc}
 800daa2:	6823      	ldr	r3, [r4, #0]
 800daa4:	f043 0320 	orr.w	r3, r3, #32
 800daa8:	6023      	str	r3, [r4, #0]
 800daaa:	4833      	ldr	r0, [pc, #204]	; (800db78 <_printf_i+0x240>)
 800daac:	2778      	movs	r7, #120	; 0x78
 800daae:	f884 7045 	strb.w	r7, [r4, #69]	; 0x45
 800dab2:	6823      	ldr	r3, [r4, #0]
 800dab4:	6829      	ldr	r1, [r5, #0]
 800dab6:	061f      	lsls	r7, r3, #24
 800dab8:	f851 6b04 	ldr.w	r6, [r1], #4
 800dabc:	d402      	bmi.n	800dac4 <_printf_i+0x18c>
 800dabe:	065f      	lsls	r7, r3, #25
 800dac0:	bf48      	it	mi
 800dac2:	b2b6      	uxthmi	r6, r6
 800dac4:	07df      	lsls	r7, r3, #31
 800dac6:	bf48      	it	mi
 800dac8:	f043 0320 	orrmi.w	r3, r3, #32
 800dacc:	6029      	str	r1, [r5, #0]
 800dace:	bf48      	it	mi
 800dad0:	6023      	strmi	r3, [r4, #0]
 800dad2:	b91e      	cbnz	r6, 800dadc <_printf_i+0x1a4>
 800dad4:	6823      	ldr	r3, [r4, #0]
 800dad6:	f023 0320 	bic.w	r3, r3, #32
 800dada:	6023      	str	r3, [r4, #0]
 800dadc:	2310      	movs	r3, #16
 800dade:	e7a7      	b.n	800da30 <_printf_i+0xf8>
 800dae0:	4824      	ldr	r0, [pc, #144]	; (800db74 <_printf_i+0x23c>)
 800dae2:	e7e4      	b.n	800daae <_printf_i+0x176>
 800dae4:	4615      	mov	r5, r2
 800dae6:	e7bd      	b.n	800da64 <_printf_i+0x12c>
 800dae8:	682b      	ldr	r3, [r5, #0]
 800daea:	6826      	ldr	r6, [r4, #0]
 800daec:	6961      	ldr	r1, [r4, #20]
 800daee:	1d18      	adds	r0, r3, #4
 800daf0:	6028      	str	r0, [r5, #0]
 800daf2:	0635      	lsls	r5, r6, #24
 800daf4:	681b      	ldr	r3, [r3, #0]
 800daf6:	d501      	bpl.n	800dafc <_printf_i+0x1c4>
 800daf8:	6019      	str	r1, [r3, #0]
 800dafa:	e002      	b.n	800db02 <_printf_i+0x1ca>
 800dafc:	0670      	lsls	r0, r6, #25
 800dafe:	d5fb      	bpl.n	800daf8 <_printf_i+0x1c0>
 800db00:	8019      	strh	r1, [r3, #0]
 800db02:	2300      	movs	r3, #0
 800db04:	6123      	str	r3, [r4, #16]
 800db06:	4615      	mov	r5, r2
 800db08:	e7bc      	b.n	800da84 <_printf_i+0x14c>
 800db0a:	682b      	ldr	r3, [r5, #0]
 800db0c:	1d1a      	adds	r2, r3, #4
 800db0e:	602a      	str	r2, [r5, #0]
 800db10:	681d      	ldr	r5, [r3, #0]
 800db12:	6862      	ldr	r2, [r4, #4]
 800db14:	2100      	movs	r1, #0
 800db16:	4628      	mov	r0, r5
 800db18:	f7f2 fb6a 	bl	80001f0 <memchr>
 800db1c:	b108      	cbz	r0, 800db22 <_printf_i+0x1ea>
 800db1e:	1b40      	subs	r0, r0, r5
 800db20:	6060      	str	r0, [r4, #4]
 800db22:	6863      	ldr	r3, [r4, #4]
 800db24:	6123      	str	r3, [r4, #16]
 800db26:	2300      	movs	r3, #0
 800db28:	f884 3043 	strb.w	r3, [r4, #67]	; 0x43
 800db2c:	e7aa      	b.n	800da84 <_printf_i+0x14c>
 800db2e:	6923      	ldr	r3, [r4, #16]
 800db30:	462a      	mov	r2, r5
 800db32:	4649      	mov	r1, r9
 800db34:	4640      	mov	r0, r8
 800db36:	47d0      	blx	sl
 800db38:	3001      	adds	r0, #1
 800db3a:	d0ad      	beq.n	800da98 <_printf_i+0x160>
 800db3c:	6823      	ldr	r3, [r4, #0]
 800db3e:	079b      	lsls	r3, r3, #30
 800db40:	d413      	bmi.n	800db6a <_printf_i+0x232>
 800db42:	68e0      	ldr	r0, [r4, #12]
 800db44:	9b03      	ldr	r3, [sp, #12]
 800db46:	4298      	cmp	r0, r3
 800db48:	bfb8      	it	lt
 800db4a:	4618      	movlt	r0, r3
 800db4c:	e7a6      	b.n	800da9c <_printf_i+0x164>
 800db4e:	2301      	movs	r3, #1
 800db50:	4632      	mov	r2, r6
 800db52:	4649      	mov	r1, r9
 800db54:	4640      	mov	r0, r8
 800db56:	47d0      	blx	sl
 800db58:	3001      	adds	r0, #1
 800db5a:	d09d      	beq.n	800da98 <_printf_i+0x160>
 800db5c:	3501      	adds	r5, #1
 800db5e:	68e3      	ldr	r3, [r4, #12]
 800db60:	9903      	ldr	r1, [sp, #12]
 800db62:	1a5b      	subs	r3, r3, r1
 800db64:	42ab      	cmp	r3, r5
 800db66:	dcf2      	bgt.n	800db4e <_printf_i+0x216>
 800db68:	e7eb      	b.n	800db42 <_printf_i+0x20a>
 800db6a:	2500      	movs	r5, #0
 800db6c:	f104 0619 	add.w	r6, r4, #25
 800db70:	e7f5      	b.n	800db5e <_printf_i+0x226>
 800db72:	bf00      	nop
 800db74:	08010ee7 	.word	0x08010ee7
 800db78:	08010ef8 	.word	0x08010ef8

0800db7c <memmove>:
 800db7c:	4288      	cmp	r0, r1
 800db7e:	b510      	push	{r4, lr}
 800db80:	eb01 0402 	add.w	r4, r1, r2
 800db84:	d902      	bls.n	800db8c <memmove+0x10>
 800db86:	4284      	cmp	r4, r0
 800db88:	4623      	mov	r3, r4
 800db8a:	d807      	bhi.n	800db9c <memmove+0x20>
 800db8c:	1e43      	subs	r3, r0, #1
 800db8e:	42a1      	cmp	r1, r4
 800db90:	d008      	beq.n	800dba4 <memmove+0x28>
 800db92:	f811 2b01 	ldrb.w	r2, [r1], #1
 800db96:	f803 2f01 	strb.w	r2, [r3, #1]!
 800db9a:	e7f8      	b.n	800db8e <memmove+0x12>
 800db9c:	4402      	add	r2, r0
 800db9e:	4601      	mov	r1, r0
 800dba0:	428a      	cmp	r2, r1
 800dba2:	d100      	bne.n	800dba6 <memmove+0x2a>
 800dba4:	bd10      	pop	{r4, pc}
 800dba6:	f813 4d01 	ldrb.w	r4, [r3, #-1]!
 800dbaa:	f802 4d01 	strb.w	r4, [r2, #-1]!
 800dbae:	e7f7      	b.n	800dba0 <memmove+0x24>

0800dbb0 <_sbrk_r>:
 800dbb0:	b538      	push	{r3, r4, r5, lr}
 800dbb2:	4d06      	ldr	r5, [pc, #24]	; (800dbcc <_sbrk_r+0x1c>)
 800dbb4:	2300      	movs	r3, #0
 800dbb6:	4604      	mov	r4, r0
 800dbb8:	4608      	mov	r0, r1
 800dbba:	602b      	str	r3, [r5, #0]
 800dbbc:	f7f5 fab8 	bl	8003130 <_sbrk>
 800dbc0:	1c43      	adds	r3, r0, #1
 800dbc2:	d102      	bne.n	800dbca <_sbrk_r+0x1a>
 800dbc4:	682b      	ldr	r3, [r5, #0]
 800dbc6:	b103      	cbz	r3, 800dbca <_sbrk_r+0x1a>
 800dbc8:	6023      	str	r3, [r4, #0]
 800dbca:	bd38      	pop	{r3, r4, r5, pc}
 800dbcc:	2000cb1c 	.word	0x2000cb1c

0800dbd0 <memcpy>:
 800dbd0:	440a      	add	r2, r1
 800dbd2:	4291      	cmp	r1, r2
 800dbd4:	f100 33ff 	add.w	r3, r0, #4294967295
 800dbd8:	d100      	bne.n	800dbdc <memcpy+0xc>
 800dbda:	4770      	bx	lr
 800dbdc:	b510      	push	{r4, lr}
 800dbde:	f811 4b01 	ldrb.w	r4, [r1], #1
 800dbe2:	f803 4f01 	strb.w	r4, [r3, #1]!
 800dbe6:	4291      	cmp	r1, r2
 800dbe8:	d1f9      	bne.n	800dbde <memcpy+0xe>
 800dbea:	bd10      	pop	{r4, pc}

0800dbec <_realloc_r>:
 800dbec:	e92d 41f0 	stmdb	sp!, {r4, r5, r6, r7, r8, lr}
 800dbf0:	4680      	mov	r8, r0
 800dbf2:	4614      	mov	r4, r2
 800dbf4:	460e      	mov	r6, r1
 800dbf6:	b921      	cbnz	r1, 800dc02 <_realloc_r+0x16>
 800dbf8:	e8bd 41f0 	ldmia.w	sp!, {r4, r5, r6, r7, r8, lr}
 800dbfc:	4611      	mov	r1, r2
 800dbfe:	f7ff bc49 	b.w	800d494 <_malloc_r>
 800dc02:	b92a      	cbnz	r2, 800dc10 <_realloc_r+0x24>
 800dc04:	f7ff fbda 	bl	800d3bc <_free_r>
 800dc08:	4625      	mov	r5, r4
 800dc0a:	4628      	mov	r0, r5
 800dc0c:	e8bd 81f0 	ldmia.w	sp!, {r4, r5, r6, r7, r8, pc}
 800dc10:	f000 f81b 	bl	800dc4a <_malloc_usable_size_r>
 800dc14:	4284      	cmp	r4, r0
 800dc16:	4607      	mov	r7, r0
 800dc18:	d802      	bhi.n	800dc20 <_realloc_r+0x34>
 800dc1a:	ebb4 0f50 	cmp.w	r4, r0, lsr #1
 800dc1e:	d812      	bhi.n	800dc46 <_realloc_r+0x5a>
 800dc20:	4621      	mov	r1, r4
 800dc22:	4640      	mov	r0, r8
 800dc24:	f7ff fc36 	bl	800d494 <_malloc_r>
 800dc28:	4605      	mov	r5, r0
 800dc2a:	2800      	cmp	r0, #0
 800dc2c:	d0ed      	beq.n	800dc0a <_realloc_r+0x1e>
 800dc2e:	42bc      	cmp	r4, r7
 800dc30:	4622      	mov	r2, r4
 800dc32:	4631      	mov	r1, r6
 800dc34:	bf28      	it	cs
 800dc36:	463a      	movcs	r2, r7
 800dc38:	f7ff ffca 	bl	800dbd0 <memcpy>
 800dc3c:	4631      	mov	r1, r6
 800dc3e:	4640      	mov	r0, r8
 800dc40:	f7ff fbbc 	bl	800d3bc <_free_r>
 800dc44:	e7e1      	b.n	800dc0a <_realloc_r+0x1e>
 800dc46:	4635      	mov	r5, r6
 800dc48:	e7df      	b.n	800dc0a <_realloc_r+0x1e>

0800dc4a <_malloc_usable_size_r>:
 800dc4a:	f851 3c04 	ldr.w	r3, [r1, #-4]
 800dc4e:	1f18      	subs	r0, r3, #4
 800dc50:	2b00      	cmp	r3, #0
 800dc52:	bfbc      	itt	lt
 800dc54:	580b      	ldrlt	r3, [r1, r0]
 800dc56:	18c0      	addlt	r0, r0, r3
 800dc58:	4770      	bx	lr
 800dc5a:	0000      	movs	r0, r0
 800dc5c:	0000      	movs	r0, r0
	...

0800dc60 <sin>:
 800dc60:	b51f      	push	{r0, r1, r2, r3, r4, lr}
 800dc62:	ec53 2b10 	vmov	r2, r3, d0
 800dc66:	4828      	ldr	r0, [pc, #160]	; (800dd08 <sin+0xa8>)
 800dc68:	f023 4100 	bic.w	r1, r3, #2147483648	; 0x80000000
 800dc6c:	4281      	cmp	r1, r0
 800dc6e:	dc07      	bgt.n	800dc80 <sin+0x20>
 800dc70:	ed9f 1b23 	vldr	d1, [pc, #140]	; 800dd00 <sin+0xa0>
 800dc74:	2000      	movs	r0, #0
 800dc76:	b005      	add	sp, #20
 800dc78:	f85d eb04 	ldr.w	lr, [sp], #4
 800dc7c:	f000 b910 	b.w	800dea0 <__kernel_sin>
 800dc80:	4822      	ldr	r0, [pc, #136]	; (800dd0c <sin+0xac>)
 800dc82:	4281      	cmp	r1, r0
 800dc84:	dd09      	ble.n	800dc9a <sin+0x3a>
 800dc86:	ee10 0a10 	vmov	r0, s0
 800dc8a:	4619      	mov	r1, r3
 800dc8c:	f7f2 fb04 	bl	8000298 <__aeabi_dsub>
 800dc90:	ec41 0b10 	vmov	d0, r0, r1
 800dc94:	b005      	add	sp, #20
 800dc96:	f85d fb04 	ldr.w	pc, [sp], #4
 800dc9a:	4668      	mov	r0, sp
 800dc9c:	f000 f9c0 	bl	800e020 <__ieee754_rem_pio2>
 800dca0:	f000 0003 	and.w	r0, r0, #3
 800dca4:	2801      	cmp	r0, #1
 800dca6:	d00c      	beq.n	800dcc2 <sin+0x62>
 800dca8:	2802      	cmp	r0, #2
 800dcaa:	d011      	beq.n	800dcd0 <sin+0x70>
 800dcac:	b9f0      	cbnz	r0, 800dcec <sin+0x8c>
 800dcae:	ed9d 1b02 	vldr	d1, [sp, #8]
 800dcb2:	ed9d 0b00 	vldr	d0, [sp]
 800dcb6:	2001      	movs	r0, #1
 800dcb8:	f000 f8f2 	bl	800dea0 <__kernel_sin>
 800dcbc:	ec51 0b10 	vmov	r0, r1, d0
 800dcc0:	e7e6      	b.n	800dc90 <sin+0x30>
 800dcc2:	ed9d 1b02 	vldr	d1, [sp, #8]
 800dcc6:	ed9d 0b00 	vldr	d0, [sp]
 800dcca:	f000 f821 	bl	800dd10 <__kernel_cos>
 800dcce:	e7f5      	b.n	800dcbc <sin+0x5c>
 800dcd0:	ed9d 1b02 	vldr	d1, [sp, #8]
 800dcd4:	ed9d 0b00 	vldr	d0, [sp]
 800dcd8:	2001      	movs	r0, #1
 800dcda:	f000 f8e1 	bl	800dea0 <__kernel_sin>
 800dcde:	ec53 2b10 	vmov	r2, r3, d0
 800dce2:	ee10 0a10 	vmov	r0, s0
 800dce6:	f103 4100 	add.w	r1, r3, #2147483648	; 0x80000000
 800dcea:	e7d1      	b.n	800dc90 <sin+0x30>
 800dcec:	ed9d 1b02 	vldr	d1, [sp, #8]
 800dcf0:	ed9d 0b00 	vldr	d0, [sp]
 800dcf4:	f000 f80c 	bl	800dd10 <__kernel_cos>
 800dcf8:	e7f1      	b.n	800dcde <sin+0x7e>
 800dcfa:	bf00      	nop
 800dcfc:	f3af 8000 	nop.w
	...
 800dd08:	3fe921fb 	.word	0x3fe921fb
 800dd0c:	7fefffff 	.word	0x7fefffff

0800dd10 <__kernel_cos>:
 800dd10:	e92d 4ff7 	stmdb	sp!, {r0, r1, r2, r4, r5, r6, r7, r8, r9, sl, fp, lr}
 800dd14:	ec57 6b10 	vmov	r6, r7, d0
 800dd18:	f027 4800 	bic.w	r8, r7, #2147483648	; 0x80000000
 800dd1c:	f1b8 5f79 	cmp.w	r8, #1044381696	; 0x3e400000
 800dd20:	ed8d 1b00 	vstr	d1, [sp]
 800dd24:	da07      	bge.n	800dd36 <__kernel_cos+0x26>
 800dd26:	ee10 0a10 	vmov	r0, s0
 800dd2a:	4639      	mov	r1, r7
 800dd2c:	f7f2 ff06 	bl	8000b3c <__aeabi_d2iz>
 800dd30:	2800      	cmp	r0, #0
 800dd32:	f000 8088 	beq.w	800de46 <__kernel_cos+0x136>
 800dd36:	4632      	mov	r2, r6
 800dd38:	463b      	mov	r3, r7
 800dd3a:	4630      	mov	r0, r6
 800dd3c:	4639      	mov	r1, r7
 800dd3e:	f7f2 fc63 	bl	8000608 <__aeabi_dmul>
 800dd42:	4b51      	ldr	r3, [pc, #324]	; (800de88 <__kernel_cos+0x178>)
 800dd44:	2200      	movs	r2, #0
 800dd46:	4604      	mov	r4, r0
 800dd48:	460d      	mov	r5, r1
 800dd4a:	f7f2 fc5d 	bl	8000608 <__aeabi_dmul>
 800dd4e:	a340      	add	r3, pc, #256	; (adr r3, 800de50 <__kernel_cos+0x140>)
 800dd50:	e9d3 2300 	ldrd	r2, r3, [r3]
 800dd54:	4682      	mov	sl, r0
 800dd56:	468b      	mov	fp, r1
 800dd58:	4620      	mov	r0, r4
 800dd5a:	4629      	mov	r1, r5
 800dd5c:	f7f2 fc54 	bl	8000608 <__aeabi_dmul>
 800dd60:	a33d      	add	r3, pc, #244	; (adr r3, 800de58 <__kernel_cos+0x148>)
 800dd62:	e9d3 2300 	ldrd	r2, r3, [r3]
 800dd66:	f7f2 fa99 	bl	800029c <__adddf3>
 800dd6a:	4622      	mov	r2, r4
 800dd6c:	462b      	mov	r3, r5
 800dd6e:	f7f2 fc4b 	bl	8000608 <__aeabi_dmul>
 800dd72:	a33b      	add	r3, pc, #236	; (adr r3, 800de60 <__kernel_cos+0x150>)
 800dd74:	e9d3 2300 	ldrd	r2, r3, [r3]
 800dd78:	f7f2 fa8e 	bl	8000298 <__aeabi_dsub>
 800dd7c:	4622      	mov	r2, r4
 800dd7e:	462b      	mov	r3, r5
 800dd80:	f7f2 fc42 	bl	8000608 <__aeabi_dmul>
 800dd84:	a338      	add	r3, pc, #224	; (adr r3, 800de68 <__kernel_cos+0x158>)
 800dd86:	e9d3 2300 	ldrd	r2, r3, [r3]
 800dd8a:	f7f2 fa87 	bl	800029c <__adddf3>
 800dd8e:	4622      	mov	r2, r4
 800dd90:	462b      	mov	r3, r5
 800dd92:	f7f2 fc39 	bl	8000608 <__aeabi_dmul>
 800dd96:	a336      	add	r3, pc, #216	; (adr r3, 800de70 <__kernel_cos+0x160>)
 800dd98:	e9d3 2300 	ldrd	r2, r3, [r3]
 800dd9c:	f7f2 fa7c 	bl	8000298 <__aeabi_dsub>
 800dda0:	4622      	mov	r2, r4
 800dda2:	462b      	mov	r3, r5
 800dda4:	f7f2 fc30 	bl	8000608 <__aeabi_dmul>
 800dda8:	a333      	add	r3, pc, #204	; (adr r3, 800de78 <__kernel_cos+0x168>)
 800ddaa:	e9d3 2300 	ldrd	r2, r3, [r3]
 800ddae:	f7f2 fa75 	bl	800029c <__adddf3>
 800ddb2:	4622      	mov	r2, r4
 800ddb4:	462b      	mov	r3, r5
 800ddb6:	f7f2 fc27 	bl	8000608 <__aeabi_dmul>
 800ddba:	4622      	mov	r2, r4
 800ddbc:	462b      	mov	r3, r5
 800ddbe:	f7f2 fc23 	bl	8000608 <__aeabi_dmul>
 800ddc2:	e9dd 2300 	ldrd	r2, r3, [sp]
 800ddc6:	4604      	mov	r4, r0
 800ddc8:	460d      	mov	r5, r1
 800ddca:	4630      	mov	r0, r6
 800ddcc:	4639      	mov	r1, r7
 800ddce:	f7f2 fc1b 	bl	8000608 <__aeabi_dmul>
 800ddd2:	460b      	mov	r3, r1
 800ddd4:	4602      	mov	r2, r0
 800ddd6:	4629      	mov	r1, r5
 800ddd8:	4620      	mov	r0, r4
 800ddda:	f7f2 fa5d 	bl	8000298 <__aeabi_dsub>
 800ddde:	4b2b      	ldr	r3, [pc, #172]	; (800de8c <__kernel_cos+0x17c>)
 800dde0:	4598      	cmp	r8, r3
 800dde2:	4606      	mov	r6, r0
 800dde4:	460f      	mov	r7, r1
 800dde6:	dc10      	bgt.n	800de0a <__kernel_cos+0xfa>
 800dde8:	4602      	mov	r2, r0
 800ddea:	460b      	mov	r3, r1
 800ddec:	4650      	mov	r0, sl
 800ddee:	4659      	mov	r1, fp
 800ddf0:	f7f2 fa52 	bl	8000298 <__aeabi_dsub>
 800ddf4:	460b      	mov	r3, r1
 800ddf6:	4926      	ldr	r1, [pc, #152]	; (800de90 <__kernel_cos+0x180>)
 800ddf8:	4602      	mov	r2, r0
 800ddfa:	2000      	movs	r0, #0
 800ddfc:	f7f2 fa4c 	bl	8000298 <__aeabi_dsub>
 800de00:	ec41 0b10 	vmov	d0, r0, r1
 800de04:	b003      	add	sp, #12
 800de06:	e8bd 8ff0 	ldmia.w	sp!, {r4, r5, r6, r7, r8, r9, sl, fp, pc}
 800de0a:	4b22      	ldr	r3, [pc, #136]	; (800de94 <__kernel_cos+0x184>)
 800de0c:	4920      	ldr	r1, [pc, #128]	; (800de90 <__kernel_cos+0x180>)
 800de0e:	4598      	cmp	r8, r3
 800de10:	bfcc      	ite	gt
 800de12:	4d21      	ldrgt	r5, [pc, #132]	; (800de98 <__kernel_cos+0x188>)
 800de14:	f5a8 1500 	suble.w	r5, r8, #2097152	; 0x200000
 800de18:	2400      	movs	r4, #0
 800de1a:	4622      	mov	r2, r4
 800de1c:	462b      	mov	r3, r5
 800de1e:	2000      	movs	r0, #0
 800de20:	f7f2 fa3a 	bl	8000298 <__aeabi_dsub>
 800de24:	4622      	mov	r2, r4
 800de26:	4680      	mov	r8, r0
 800de28:	4689      	mov	r9, r1
 800de2a:	462b      	mov	r3, r5
 800de2c:	4650      	mov	r0, sl
 800de2e:	4659      	mov	r1, fp
 800de30:	f7f2 fa32 	bl	8000298 <__aeabi_dsub>
 800de34:	4632      	mov	r2, r6
 800de36:	463b      	mov	r3, r7
 800de38:	f7f2 fa2e 	bl	8000298 <__aeabi_dsub>
 800de3c:	4602      	mov	r2, r0
 800de3e:	460b      	mov	r3, r1
 800de40:	4640      	mov	r0, r8
 800de42:	4649      	mov	r1, r9
 800de44:	e7da      	b.n	800ddfc <__kernel_cos+0xec>
 800de46:	ed9f 0b0e 	vldr	d0, [pc, #56]	; 800de80 <__kernel_cos+0x170>
 800de4a:	e7db      	b.n	800de04 <__kernel_cos+0xf4>
 800de4c:	f3af 8000 	nop.w
 800de50:	be8838d4 	.word	0xbe8838d4
 800de54:	bda8fae9 	.word	0xbda8fae9
 800de58:	bdb4b1c4 	.word	0xbdb4b1c4
 800de5c:	3e21ee9e 	.word	0x3e21ee9e
 800de60:	809c52ad 	.word	0x809c52ad
 800de64:	3e927e4f 	.word	0x3e927e4f
 800de68:	19cb1590 	.word	0x19cb1590
 800de6c:	3efa01a0 	.word	0x3efa01a0
 800de70:	16c15177 	.word	0x16c15177
 800de74:	3f56c16c 	.word	0x3f56c16c
 800de78:	5555554c 	.word	0x5555554c
 800de7c:	3fa55555 	.word	0x3fa55555
 800de80:	00000000 	.word	0x00000000
 800de84:	3ff00000 	.word	0x3ff00000
 800de88:	3fe00000 	.word	0x3fe00000
 800de8c:	3fd33332 	.word	0x3fd33332
 800de90:	3ff00000 	.word	0x3ff00000
 800de94:	3fe90000 	.word	0x3fe90000
 800de98:	3fd20000 	.word	0x3fd20000
 800de9c:	00000000 	.word	0x00000000

0800dea0 <__kernel_sin>:
 800dea0:	e92d 4ff0 	stmdb	sp!, {r4, r5, r6, r7, r8, r9, sl, fp, lr}
 800dea4:	ed2d 8b04 	vpush	{d8-d9}
 800dea8:	eeb0 8a41 	vmov.f32	s16, s2
 800deac:	eef0 8a61 	vmov.f32	s17, s3
 800deb0:	ec55 4b10 	vmov	r4, r5, d0
 800deb4:	b083      	sub	sp, #12
 800deb6:	f025 4300 	bic.w	r3, r5, #2147483648	; 0x80000000
 800deba:	f1b3 5f79 	cmp.w	r3, #1044381696	; 0x3e400000
 800debe:	9001      	str	r0, [sp, #4]
 800dec0:	da06      	bge.n	800ded0 <__kernel_sin+0x30>
 800dec2:	ee10 0a10 	vmov	r0, s0
 800dec6:	4629      	mov	r1, r5
 800dec8:	f7f2 fe38 	bl	8000b3c <__aeabi_d2iz>
 800decc:	2800      	cmp	r0, #0
 800dece:	d051      	beq.n	800df74 <__kernel_sin+0xd4>
 800ded0:	4622      	mov	r2, r4
 800ded2:	462b      	mov	r3, r5
 800ded4:	4620      	mov	r0, r4
 800ded6:	4629      	mov	r1, r5
 800ded8:	f7f2 fb96 	bl	8000608 <__aeabi_dmul>
 800dedc:	4682      	mov	sl, r0
 800dede:	468b      	mov	fp, r1
 800dee0:	4602      	mov	r2, r0
 800dee2:	460b      	mov	r3, r1
 800dee4:	4620      	mov	r0, r4
 800dee6:	4629      	mov	r1, r5
 800dee8:	f7f2 fb8e 	bl	8000608 <__aeabi_dmul>
 800deec:	a341      	add	r3, pc, #260	; (adr r3, 800dff4 <__kernel_sin+0x154>)
 800deee:	e9d3 2300 	ldrd	r2, r3, [r3]
 800def2:	4680      	mov	r8, r0
 800def4:	4689      	mov	r9, r1
 800def6:	4650      	mov	r0, sl
 800def8:	4659      	mov	r1, fp
 800defa:	f7f2 fb85 	bl	8000608 <__aeabi_dmul>
 800defe:	a33f      	add	r3, pc, #252	; (adr r3, 800dffc <__kernel_sin+0x15c>)
 800df00:	e9d3 2300 	ldrd	r2, r3, [r3]
 800df04:	f7f2 f9c8 	bl	8000298 <__aeabi_dsub>
 800df08:	4652      	mov	r2, sl
 800df0a:	465b      	mov	r3, fp
 800df0c:	f7f2 fb7c 	bl	8000608 <__aeabi_dmul>
 800df10:	a33c      	add	r3, pc, #240	; (adr r3, 800e004 <__kernel_sin+0x164>)
 800df12:	e9d3 2300 	ldrd	r2, r3, [r3]
 800df16:	f7f2 f9c1 	bl	800029c <__adddf3>
 800df1a:	4652      	mov	r2, sl
 800df1c:	465b      	mov	r3, fp
 800df1e:	f7f2 fb73 	bl	8000608 <__aeabi_dmul>
 800df22:	a33a      	add	r3, pc, #232	; (adr r3, 800e00c <__kernel_sin+0x16c>)
 800df24:	e9d3 2300 	ldrd	r2, r3, [r3]
 800df28:	f7f2 f9b6 	bl	8000298 <__aeabi_dsub>
 800df2c:	4652      	mov	r2, sl
 800df2e:	465b      	mov	r3, fp
 800df30:	f7f2 fb6a 	bl	8000608 <__aeabi_dmul>
 800df34:	a337      	add	r3, pc, #220	; (adr r3, 800e014 <__kernel_sin+0x174>)
 800df36:	e9d3 2300 	ldrd	r2, r3, [r3]
 800df3a:	f7f2 f9af 	bl	800029c <__adddf3>
 800df3e:	9b01      	ldr	r3, [sp, #4]
 800df40:	4606      	mov	r6, r0
 800df42:	460f      	mov	r7, r1
 800df44:	b9eb      	cbnz	r3, 800df82 <__kernel_sin+0xe2>
 800df46:	4602      	mov	r2, r0
 800df48:	460b      	mov	r3, r1
 800df4a:	4650      	mov	r0, sl
 800df4c:	4659      	mov	r1, fp
 800df4e:	f7f2 fb5b 	bl	8000608 <__aeabi_dmul>
 800df52:	a325      	add	r3, pc, #148	; (adr r3, 800dfe8 <__kernel_sin+0x148>)
 800df54:	e9d3 2300 	ldrd	r2, r3, [r3]
 800df58:	f7f2 f99e 	bl	8000298 <__aeabi_dsub>
 800df5c:	4642      	mov	r2, r8
 800df5e:	464b      	mov	r3, r9
 800df60:	f7f2 fb52 	bl	8000608 <__aeabi_dmul>
 800df64:	4602      	mov	r2, r0
 800df66:	460b      	mov	r3, r1
 800df68:	4620      	mov	r0, r4
 800df6a:	4629      	mov	r1, r5
 800df6c:	f7f2 f996 	bl	800029c <__adddf3>
 800df70:	4604      	mov	r4, r0
 800df72:	460d      	mov	r5, r1
 800df74:	ec45 4b10 	vmov	d0, r4, r5
 800df78:	b003      	add	sp, #12
 800df7a:	ecbd 8b04 	vpop	{d8-d9}
 800df7e:	e8bd 8ff0 	ldmia.w	sp!, {r4, r5, r6, r7, r8, r9, sl, fp, pc}
 800df82:	4b1b      	ldr	r3, [pc, #108]	; (800dff0 <__kernel_sin+0x150>)
 800df84:	ec51 0b18 	vmov	r0, r1, d8
 800df88:	2200      	movs	r2, #0
 800df8a:	f7f2 fb3d 	bl	8000608 <__aeabi_dmul>
 800df8e:	4632      	mov	r2, r6
 800df90:	ec41 0b19 	vmov	d9, r0, r1
 800df94:	463b      	mov	r3, r7
 800df96:	4640      	mov	r0, r8
 800df98:	4649      	mov	r1, r9
 800df9a:	f7f2 fb35 	bl	8000608 <__aeabi_dmul>
 800df9e:	4602      	mov	r2, r0
 800dfa0:	460b      	mov	r3, r1
 800dfa2:	ec51 0b19 	vmov	r0, r1, d9
 800dfa6:	f7f2 f977 	bl	8000298 <__aeabi_dsub>
 800dfaa:	4652      	mov	r2, sl
 800dfac:	465b      	mov	r3, fp
 800dfae:	f7f2 fb2b 	bl	8000608 <__aeabi_dmul>
 800dfb2:	ec53 2b18 	vmov	r2, r3, d8
 800dfb6:	f7f2 f96f 	bl	8000298 <__aeabi_dsub>
 800dfba:	a30b      	add	r3, pc, #44	; (adr r3, 800dfe8 <__kernel_sin+0x148>)
 800dfbc:	e9d3 2300 	ldrd	r2, r3, [r3]
 800dfc0:	4606      	mov	r6, r0
 800dfc2:	460f      	mov	r7, r1
 800dfc4:	4640      	mov	r0, r8
 800dfc6:	4649      	mov	r1, r9
 800dfc8:	f7f2 fb1e 	bl	8000608 <__aeabi_dmul>
 800dfcc:	4602      	mov	r2, r0
 800dfce:	460b      	mov	r3, r1
 800dfd0:	4630      	mov	r0, r6
 800dfd2:	4639      	mov	r1, r7
 800dfd4:	f7f2 f962 	bl	800029c <__adddf3>
 800dfd8:	4602      	mov	r2, r0
 800dfda:	460b      	mov	r3, r1
 800dfdc:	4620      	mov	r0, r4
 800dfde:	4629      	mov	r1, r5
 800dfe0:	f7f2 f95a 	bl	8000298 <__aeabi_dsub>
 800dfe4:	e7c4      	b.n	800df70 <__kernel_sin+0xd0>
 800dfe6:	bf00      	nop
 800dfe8:	55555549 	.word	0x55555549
 800dfec:	3fc55555 	.word	0x3fc55555
 800dff0:	3fe00000 	.word	0x3fe00000
 800dff4:	5acfd57c 	.word	0x5acfd57c
 800dff8:	3de5d93a 	.word	0x3de5d93a
 800dffc:	8a2b9ceb 	.word	0x8a2b9ceb
 800e000:	3e5ae5e6 	.word	0x3e5ae5e6
 800e004:	57b1fe7d 	.word	0x57b1fe7d
 800e008:	3ec71de3 	.word	0x3ec71de3
 800e00c:	19c161d5 	.word	0x19c161d5
 800e010:	3f2a01a0 	.word	0x3f2a01a0
 800e014:	1110f8a6 	.word	0x1110f8a6
 800e018:	3f811111 	.word	0x3f811111
 800e01c:	00000000 	.word	0x00000000

0800e020 <__ieee754_rem_pio2>:
 800e020:	e92d 4ff0 	stmdb	sp!, {r4, r5, r6, r7, r8, r9, sl, fp, lr}
 800e024:	ed2d 8b02 	vpush	{d8}
 800e028:	ec55 4b10 	vmov	r4, r5, d0
 800e02c:	4bca      	ldr	r3, [pc, #808]	; (800e358 <__ieee754_rem_pio2+0x338>)
 800e02e:	b08b      	sub	sp, #44	; 0x2c
 800e030:	f025 4800 	bic.w	r8, r5, #2147483648	; 0x80000000
 800e034:	4598      	cmp	r8, r3
 800e036:	4682      	mov	sl, r0
 800e038:	9502      	str	r5, [sp, #8]
 800e03a:	dc08      	bgt.n	800e04e <__ieee754_rem_pio2+0x2e>
 800e03c:	2200      	movs	r2, #0
 800e03e:	2300      	movs	r3, #0
 800e040:	ed80 0b00 	vstr	d0, [r0]
 800e044:	e9c0 2302 	strd	r2, r3, [r0, #8]
 800e048:	f04f 0b00 	mov.w	fp, #0
 800e04c:	e028      	b.n	800e0a0 <__ieee754_rem_pio2+0x80>
 800e04e:	4bc3      	ldr	r3, [pc, #780]	; (800e35c <__ieee754_rem_pio2+0x33c>)
 800e050:	4598      	cmp	r8, r3
 800e052:	dc78      	bgt.n	800e146 <__ieee754_rem_pio2+0x126>
 800e054:	9b02      	ldr	r3, [sp, #8]
 800e056:	4ec2      	ldr	r6, [pc, #776]	; (800e360 <__ieee754_rem_pio2+0x340>)
 800e058:	2b00      	cmp	r3, #0
 800e05a:	ee10 0a10 	vmov	r0, s0
 800e05e:	a3b0      	add	r3, pc, #704	; (adr r3, 800e320 <__ieee754_rem_pio2+0x300>)
 800e060:	e9d3 2300 	ldrd	r2, r3, [r3]
 800e064:	4629      	mov	r1, r5
 800e066:	dd39      	ble.n	800e0dc <__ieee754_rem_pio2+0xbc>
 800e068:	f7f2 f916 	bl	8000298 <__aeabi_dsub>
 800e06c:	45b0      	cmp	r8, r6
 800e06e:	4604      	mov	r4, r0
 800e070:	460d      	mov	r5, r1
 800e072:	d01b      	beq.n	800e0ac <__ieee754_rem_pio2+0x8c>
 800e074:	a3ac      	add	r3, pc, #688	; (adr r3, 800e328 <__ieee754_rem_pio2+0x308>)
 800e076:	e9d3 2300 	ldrd	r2, r3, [r3]
 800e07a:	f7f2 f90d 	bl	8000298 <__aeabi_dsub>
 800e07e:	4602      	mov	r2, r0
 800e080:	460b      	mov	r3, r1
 800e082:	e9ca 2300 	strd	r2, r3, [sl]
 800e086:	4620      	mov	r0, r4
 800e088:	4629      	mov	r1, r5
 800e08a:	f7f2 f905 	bl	8000298 <__aeabi_dsub>
 800e08e:	a3a6      	add	r3, pc, #664	; (adr r3, 800e328 <__ieee754_rem_pio2+0x308>)
 800e090:	e9d3 2300 	ldrd	r2, r3, [r3]
 800e094:	f7f2 f900 	bl	8000298 <__aeabi_dsub>
 800e098:	e9ca 0102 	strd	r0, r1, [sl, #8]
 800e09c:	f04f 0b01 	mov.w	fp, #1
 800e0a0:	4658      	mov	r0, fp
 800e0a2:	b00b      	add	sp, #44	; 0x2c
 800e0a4:	ecbd 8b02 	vpop	{d8}
 800e0a8:	e8bd 8ff0 	ldmia.w	sp!, {r4, r5, r6, r7, r8, r9, sl, fp, pc}
 800e0ac:	a3a0      	add	r3, pc, #640	; (adr r3, 800e330 <__ieee754_rem_pio2+0x310>)
 800e0ae:	e9d3 2300 	ldrd	r2, r3, [r3]
 800e0b2:	f7f2 f8f1 	bl	8000298 <__aeabi_dsub>
 800e0b6:	a3a0      	add	r3, pc, #640	; (adr r3, 800e338 <__ieee754_rem_pio2+0x318>)
 800e0b8:	e9d3 2300 	ldrd	r2, r3, [r3]
 800e0bc:	4604      	mov	r4, r0
 800e0be:	460d      	mov	r5, r1
 800e0c0:	f7f2 f8ea 	bl	8000298 <__aeabi_dsub>
 800e0c4:	4602      	mov	r2, r0
 800e0c6:	460b      	mov	r3, r1
 800e0c8:	e9ca 2300 	strd	r2, r3, [sl]
 800e0cc:	4620      	mov	r0, r4
 800e0ce:	4629      	mov	r1, r5
 800e0d0:	f7f2 f8e2 	bl	8000298 <__aeabi_dsub>
 800e0d4:	a398      	add	r3, pc, #608	; (adr r3, 800e338 <__ieee754_rem_pio2+0x318>)
 800e0d6:	e9d3 2300 	ldrd	r2, r3, [r3]
 800e0da:	e7db      	b.n	800e094 <__ieee754_rem_pio2+0x74>
 800e0dc:	f7f2 f8de 	bl	800029c <__adddf3>
 800e0e0:	45b0      	cmp	r8, r6
 800e0e2:	4604      	mov	r4, r0
 800e0e4:	460d      	mov	r5, r1
 800e0e6:	d016      	beq.n	800e116 <__ieee754_rem_pio2+0xf6>
 800e0e8:	a38f      	add	r3, pc, #572	; (adr r3, 800e328 <__ieee754_rem_pio2+0x308>)
 800e0ea:	e9d3 2300 	ldrd	r2, r3, [r3]
 800e0ee:	f7f2 f8d5 	bl	800029c <__adddf3>
 800e0f2:	4602      	mov	r2, r0
 800e0f4:	460b      	mov	r3, r1
 800e0f6:	e9ca 2300 	strd	r2, r3, [sl]
 800e0fa:	4620      	mov	r0, r4
 800e0fc:	4629      	mov	r1, r5
 800e0fe:	f7f2 f8cb 	bl	8000298 <__aeabi_dsub>
 800e102:	a389      	add	r3, pc, #548	; (adr r3, 800e328 <__ieee754_rem_pio2+0x308>)
 800e104:	e9d3 2300 	ldrd	r2, r3, [r3]
 800e108:	f7f2 f8c8 	bl	800029c <__adddf3>
 800e10c:	f04f 3bff 	mov.w	fp, #4294967295
 800e110:	e9ca 0102 	strd	r0, r1, [sl, #8]
 800e114:	e7c4      	b.n	800e0a0 <__ieee754_rem_pio2+0x80>
 800e116:	a386      	add	r3, pc, #536	; (adr r3, 800e330 <__ieee754_rem_pio2+0x310>)
 800e118:	e9d3 2300 	ldrd	r2, r3, [r3]
 800e11c:	f7f2 f8be 	bl	800029c <__adddf3>
 800e120:	a385      	add	r3, pc, #532	; (adr r3, 800e338 <__ieee754_rem_pio2+0x318>)
 800e122:	e9d3 2300 	ldrd	r2, r3, [r3]
 800e126:	4604      	mov	r4, r0
 800e128:	460d      	mov	r5, r1
 800e12a:	f7f2 f8b7 	bl	800029c <__adddf3>
 800e12e:	4602      	mov	r2, r0
 800e130:	460b      	mov	r3, r1
 800e132:	e9ca 2300 	strd	r2, r3, [sl]
 800e136:	4620      	mov	r0, r4
 800e138:	4629      	mov	r1, r5
 800e13a:	f7f2 f8ad 	bl	8000298 <__aeabi_dsub>
 800e13e:	a37e      	add	r3, pc, #504	; (adr r3, 800e338 <__ieee754_rem_pio2+0x318>)
 800e140:	e9d3 2300 	ldrd	r2, r3, [r3]
 800e144:	e7e0      	b.n	800e108 <__ieee754_rem_pio2+0xe8>
 800e146:	4b87      	ldr	r3, [pc, #540]	; (800e364 <__ieee754_rem_pio2+0x344>)
 800e148:	4598      	cmp	r8, r3
 800e14a:	f300 80d8 	bgt.w	800e2fe <__ieee754_rem_pio2+0x2de>
 800e14e:	f000 f96d 	bl	800e42c <fabs>
 800e152:	ec55 4b10 	vmov	r4, r5, d0
 800e156:	ee10 0a10 	vmov	r0, s0
 800e15a:	a379      	add	r3, pc, #484	; (adr r3, 800e340 <__ieee754_rem_pio2+0x320>)
 800e15c:	e9d3 2300 	ldrd	r2, r3, [r3]
 800e160:	4629      	mov	r1, r5
 800e162:	f7f2 fa51 	bl	8000608 <__aeabi_dmul>
 800e166:	4b80      	ldr	r3, [pc, #512]	; (800e368 <__ieee754_rem_pio2+0x348>)
 800e168:	2200      	movs	r2, #0
 800e16a:	f7f2 f897 	bl	800029c <__adddf3>
 800e16e:	f7f2 fce5 	bl	8000b3c <__aeabi_d2iz>
 800e172:	4683      	mov	fp, r0
 800e174:	f7f2 f9de 	bl	8000534 <__aeabi_i2d>
 800e178:	4602      	mov	r2, r0
 800e17a:	460b      	mov	r3, r1
 800e17c:	ec43 2b18 	vmov	d8, r2, r3
 800e180:	a367      	add	r3, pc, #412	; (adr r3, 800e320 <__ieee754_rem_pio2+0x300>)
 800e182:	e9d3 2300 	ldrd	r2, r3, [r3]
 800e186:	f7f2 fa3f 	bl	8000608 <__aeabi_dmul>
 800e18a:	4602      	mov	r2, r0
 800e18c:	460b      	mov	r3, r1
 800e18e:	4620      	mov	r0, r4
 800e190:	4629      	mov	r1, r5
 800e192:	f7f2 f881 	bl	8000298 <__aeabi_dsub>
 800e196:	a364      	add	r3, pc, #400	; (adr r3, 800e328 <__ieee754_rem_pio2+0x308>)
 800e198:	e9d3 2300 	ldrd	r2, r3, [r3]
 800e19c:	4606      	mov	r6, r0
 800e19e:	460f      	mov	r7, r1
 800e1a0:	ec51 0b18 	vmov	r0, r1, d8
 800e1a4:	f7f2 fa30 	bl	8000608 <__aeabi_dmul>
 800e1a8:	f1bb 0f1f 	cmp.w	fp, #31
 800e1ac:	4604      	mov	r4, r0
 800e1ae:	460d      	mov	r5, r1
 800e1b0:	dc0d      	bgt.n	800e1ce <__ieee754_rem_pio2+0x1ae>
 800e1b2:	4b6e      	ldr	r3, [pc, #440]	; (800e36c <__ieee754_rem_pio2+0x34c>)
 800e1b4:	f10b 32ff 	add.w	r2, fp, #4294967295
 800e1b8:	f853 3022 	ldr.w	r3, [r3, r2, lsl #2]
 800e1bc:	4543      	cmp	r3, r8
 800e1be:	d006      	beq.n	800e1ce <__ieee754_rem_pio2+0x1ae>
 800e1c0:	4622      	mov	r2, r4
 800e1c2:	462b      	mov	r3, r5
 800e1c4:	4630      	mov	r0, r6
 800e1c6:	4639      	mov	r1, r7
 800e1c8:	f7f2 f866 	bl	8000298 <__aeabi_dsub>
 800e1cc:	e00e      	b.n	800e1ec <__ieee754_rem_pio2+0x1cc>
 800e1ce:	462b      	mov	r3, r5
 800e1d0:	4622      	mov	r2, r4
 800e1d2:	4630      	mov	r0, r6
 800e1d4:	4639      	mov	r1, r7
 800e1d6:	f7f2 f85f 	bl	8000298 <__aeabi_dsub>
 800e1da:	ea4f 5328 	mov.w	r3, r8, asr #20
 800e1de:	9303      	str	r3, [sp, #12]
 800e1e0:	f3c1 530a 	ubfx	r3, r1, #20, #11
 800e1e4:	ebc3 5318 	rsb	r3, r3, r8, lsr #20
 800e1e8:	2b10      	cmp	r3, #16
 800e1ea:	dc02      	bgt.n	800e1f2 <__ieee754_rem_pio2+0x1d2>
 800e1ec:	e9ca 0100 	strd	r0, r1, [sl]
 800e1f0:	e039      	b.n	800e266 <__ieee754_rem_pio2+0x246>
 800e1f2:	a34f      	add	r3, pc, #316	; (adr r3, 800e330 <__ieee754_rem_pio2+0x310>)
 800e1f4:	e9d3 2300 	ldrd	r2, r3, [r3]
 800e1f8:	ec51 0b18 	vmov	r0, r1, d8
 800e1fc:	f7f2 fa04 	bl	8000608 <__aeabi_dmul>
 800e200:	4604      	mov	r4, r0
 800e202:	460d      	mov	r5, r1
 800e204:	4602      	mov	r2, r0
 800e206:	460b      	mov	r3, r1
 800e208:	4630      	mov	r0, r6
 800e20a:	4639      	mov	r1, r7
 800e20c:	f7f2 f844 	bl	8000298 <__aeabi_dsub>
 800e210:	4602      	mov	r2, r0
 800e212:	460b      	mov	r3, r1
 800e214:	4680      	mov	r8, r0
 800e216:	4689      	mov	r9, r1
 800e218:	4630      	mov	r0, r6
 800e21a:	4639      	mov	r1, r7
 800e21c:	f7f2 f83c 	bl	8000298 <__aeabi_dsub>
 800e220:	4622      	mov	r2, r4
 800e222:	462b      	mov	r3, r5
 800e224:	f7f2 f838 	bl	8000298 <__aeabi_dsub>
 800e228:	a343      	add	r3, pc, #268	; (adr r3, 800e338 <__ieee754_rem_pio2+0x318>)
 800e22a:	e9d3 2300 	ldrd	r2, r3, [r3]
 800e22e:	4604      	mov	r4, r0
 800e230:	460d      	mov	r5, r1
 800e232:	ec51 0b18 	vmov	r0, r1, d8
 800e236:	f7f2 f9e7 	bl	8000608 <__aeabi_dmul>
 800e23a:	4622      	mov	r2, r4
 800e23c:	462b      	mov	r3, r5
 800e23e:	f7f2 f82b 	bl	8000298 <__aeabi_dsub>
 800e242:	4602      	mov	r2, r0
 800e244:	460b      	mov	r3, r1
 800e246:	4604      	mov	r4, r0
 800e248:	460d      	mov	r5, r1
 800e24a:	4640      	mov	r0, r8
 800e24c:	4649      	mov	r1, r9
 800e24e:	f7f2 f823 	bl	8000298 <__aeabi_dsub>
 800e252:	9a03      	ldr	r2, [sp, #12]
 800e254:	f3c1 530a 	ubfx	r3, r1, #20, #11
 800e258:	1ad3      	subs	r3, r2, r3
 800e25a:	2b31      	cmp	r3, #49	; 0x31
 800e25c:	dc24      	bgt.n	800e2a8 <__ieee754_rem_pio2+0x288>
 800e25e:	e9ca 0100 	strd	r0, r1, [sl]
 800e262:	4646      	mov	r6, r8
 800e264:	464f      	mov	r7, r9
 800e266:	e9da 8900 	ldrd	r8, r9, [sl]
 800e26a:	4630      	mov	r0, r6
 800e26c:	4642      	mov	r2, r8
 800e26e:	464b      	mov	r3, r9
 800e270:	4639      	mov	r1, r7
 800e272:	f7f2 f811 	bl	8000298 <__aeabi_dsub>
 800e276:	462b      	mov	r3, r5
 800e278:	4622      	mov	r2, r4
 800e27a:	f7f2 f80d 	bl	8000298 <__aeabi_dsub>
 800e27e:	9b02      	ldr	r3, [sp, #8]
 800e280:	2b00      	cmp	r3, #0
 800e282:	e9ca 0102 	strd	r0, r1, [sl, #8]
 800e286:	f6bf af0b 	bge.w	800e0a0 <__ieee754_rem_pio2+0x80>
 800e28a:	f109 4300 	add.w	r3, r9, #2147483648	; 0x80000000
 800e28e:	f8ca 3004 	str.w	r3, [sl, #4]
 800e292:	f101 4300 	add.w	r3, r1, #2147483648	; 0x80000000
 800e296:	f8ca 8000 	str.w	r8, [sl]
 800e29a:	f8ca 0008 	str.w	r0, [sl, #8]
 800e29e:	f8ca 300c 	str.w	r3, [sl, #12]
 800e2a2:	f1cb 0b00 	rsb	fp, fp, #0
 800e2a6:	e6fb      	b.n	800e0a0 <__ieee754_rem_pio2+0x80>
 800e2a8:	a327      	add	r3, pc, #156	; (adr r3, 800e348 <__ieee754_rem_pio2+0x328>)
 800e2aa:	e9d3 2300 	ldrd	r2, r3, [r3]
 800e2ae:	ec51 0b18 	vmov	r0, r1, d8
 800e2b2:	f7f2 f9a9 	bl	8000608 <__aeabi_dmul>
 800e2b6:	4604      	mov	r4, r0
 800e2b8:	460d      	mov	r5, r1
 800e2ba:	4602      	mov	r2, r0
 800e2bc:	460b      	mov	r3, r1
 800e2be:	4640      	mov	r0, r8
 800e2c0:	4649      	mov	r1, r9
 800e2c2:	f7f1 ffe9 	bl	8000298 <__aeabi_dsub>
 800e2c6:	4602      	mov	r2, r0
 800e2c8:	460b      	mov	r3, r1
 800e2ca:	4606      	mov	r6, r0
 800e2cc:	460f      	mov	r7, r1
 800e2ce:	4640      	mov	r0, r8
 800e2d0:	4649      	mov	r1, r9
 800e2d2:	f7f1 ffe1 	bl	8000298 <__aeabi_dsub>
 800e2d6:	4622      	mov	r2, r4
 800e2d8:	462b      	mov	r3, r5
 800e2da:	f7f1 ffdd 	bl	8000298 <__aeabi_dsub>
 800e2de:	a31c      	add	r3, pc, #112	; (adr r3, 800e350 <__ieee754_rem_pio2+0x330>)
 800e2e0:	e9d3 2300 	ldrd	r2, r3, [r3]
 800e2e4:	4604      	mov	r4, r0
 800e2e6:	460d      	mov	r5, r1
 800e2e8:	ec51 0b18 	vmov	r0, r1, d8
 800e2ec:	f7f2 f98c 	bl	8000608 <__aeabi_dmul>
 800e2f0:	4622      	mov	r2, r4
 800e2f2:	462b      	mov	r3, r5
 800e2f4:	f7f1 ffd0 	bl	8000298 <__aeabi_dsub>
 800e2f8:	4604      	mov	r4, r0
 800e2fa:	460d      	mov	r5, r1
 800e2fc:	e760      	b.n	800e1c0 <__ieee754_rem_pio2+0x1a0>
 800e2fe:	4b1c      	ldr	r3, [pc, #112]	; (800e370 <__ieee754_rem_pio2+0x350>)
 800e300:	4598      	cmp	r8, r3
 800e302:	dd37      	ble.n	800e374 <__ieee754_rem_pio2+0x354>
 800e304:	ee10 2a10 	vmov	r2, s0
 800e308:	462b      	mov	r3, r5
 800e30a:	4620      	mov	r0, r4
 800e30c:	4629      	mov	r1, r5
 800e30e:	f7f1 ffc3 	bl	8000298 <__aeabi_dsub>
 800e312:	e9ca 0102 	strd	r0, r1, [sl, #8]
 800e316:	e9ca 0100 	strd	r0, r1, [sl]
 800e31a:	e695      	b.n	800e048 <__ieee754_rem_pio2+0x28>
 800e31c:	f3af 8000 	nop.w
 800e320:	54400000 	.word	0x54400000
 800e324:	3ff921fb 	.word	0x3ff921fb
 800e328:	1a626331 	.word	0x1a626331
 800e32c:	3dd0b461 	.word	0x3dd0b461
 800e330:	1a600000 	.word	0x1a600000
 800e334:	3dd0b461 	.word	0x3dd0b461
 800e338:	2e037073 	.word	0x2e037073
 800e33c:	3ba3198a 	.word	0x3ba3198a
 800e340:	6dc9c883 	.word	0x6dc9c883
 800e344:	3fe45f30 	.word	0x3fe45f30
 800e348:	2e000000 	.word	0x2e000000
 800e34c:	3ba3198a 	.word	0x3ba3198a
 800e350:	252049c1 	.word	0x252049c1
 800e354:	397b839a 	.word	0x397b839a
 800e358:	3fe921fb 	.word	0x3fe921fb
 800e35c:	4002d97b 	.word	0x4002d97b
 800e360:	3ff921fb 	.word	0x3ff921fb
 800e364:	413921fb 	.word	0x413921fb
 800e368:	3fe00000 	.word	0x3fe00000
 800e36c:	08010f0c 	.word	0x08010f0c
 800e370:	7fefffff 	.word	0x7fefffff
 800e374:	ea4f 5628 	mov.w	r6, r8, asr #20
 800e378:	f2a6 4616 	subw	r6, r6, #1046	; 0x416
 800e37c:	eba8 5106 	sub.w	r1, r8, r6, lsl #20
 800e380:	4620      	mov	r0, r4
 800e382:	460d      	mov	r5, r1
 800e384:	f7f2 fbda 	bl	8000b3c <__aeabi_d2iz>
 800e388:	f7f2 f8d4 	bl	8000534 <__aeabi_i2d>
 800e38c:	4602      	mov	r2, r0
 800e38e:	460b      	mov	r3, r1
 800e390:	4620      	mov	r0, r4
 800e392:	4629      	mov	r1, r5
 800e394:	e9cd 2304 	strd	r2, r3, [sp, #16]
 800e398:	f7f1 ff7e 	bl	8000298 <__aeabi_dsub>
 800e39c:	4b21      	ldr	r3, [pc, #132]	; (800e424 <__ieee754_rem_pio2+0x404>)
 800e39e:	2200      	movs	r2, #0
 800e3a0:	f7f2 f932 	bl	8000608 <__aeabi_dmul>
 800e3a4:	460d      	mov	r5, r1
 800e3a6:	4604      	mov	r4, r0
 800e3a8:	f7f2 fbc8 	bl	8000b3c <__aeabi_d2iz>
 800e3ac:	f7f2 f8c2 	bl	8000534 <__aeabi_i2d>
 800e3b0:	4602      	mov	r2, r0
 800e3b2:	460b      	mov	r3, r1
 800e3b4:	4620      	mov	r0, r4
 800e3b6:	4629      	mov	r1, r5
 800e3b8:	e9cd 2306 	strd	r2, r3, [sp, #24]
 800e3bc:	f7f1 ff6c 	bl	8000298 <__aeabi_dsub>
 800e3c0:	4b18      	ldr	r3, [pc, #96]	; (800e424 <__ieee754_rem_pio2+0x404>)
 800e3c2:	2200      	movs	r2, #0
 800e3c4:	f7f2 f920 	bl	8000608 <__aeabi_dmul>
 800e3c8:	e9cd 0108 	strd	r0, r1, [sp, #32]
 800e3cc:	f10d 0828 	add.w	r8, sp, #40	; 0x28
 800e3d0:	2703      	movs	r7, #3
 800e3d2:	2400      	movs	r4, #0
 800e3d4:	2500      	movs	r5, #0
 800e3d6:	e978 0102 	ldrd	r0, r1, [r8, #-8]!
 800e3da:	4622      	mov	r2, r4
 800e3dc:	462b      	mov	r3, r5
 800e3de:	46b9      	mov	r9, r7
 800e3e0:	3f01      	subs	r7, #1
 800e3e2:	f7f2 fb79 	bl	8000ad8 <__aeabi_dcmpeq>
 800e3e6:	2800      	cmp	r0, #0
 800e3e8:	d1f5      	bne.n	800e3d6 <__ieee754_rem_pio2+0x3b6>
 800e3ea:	4b0f      	ldr	r3, [pc, #60]	; (800e428 <__ieee754_rem_pio2+0x408>)
 800e3ec:	9301      	str	r3, [sp, #4]
 800e3ee:	2302      	movs	r3, #2
 800e3f0:	9300      	str	r3, [sp, #0]
 800e3f2:	4632      	mov	r2, r6
 800e3f4:	464b      	mov	r3, r9
 800e3f6:	4651      	mov	r1, sl
 800e3f8:	a804      	add	r0, sp, #16
 800e3fa:	f000 f821 	bl	800e440 <__kernel_rem_pio2>
 800e3fe:	9b02      	ldr	r3, [sp, #8]
 800e400:	2b00      	cmp	r3, #0
 800e402:	4683      	mov	fp, r0
 800e404:	f6bf ae4c 	bge.w	800e0a0 <__ieee754_rem_pio2+0x80>
 800e408:	e9da 2100 	ldrd	r2, r1, [sl]
 800e40c:	f101 4300 	add.w	r3, r1, #2147483648	; 0x80000000
 800e410:	e9ca 2300 	strd	r2, r3, [sl]
 800e414:	e9da 2102 	ldrd	r2, r1, [sl, #8]
 800e418:	f101 4300 	add.w	r3, r1, #2147483648	; 0x80000000
 800e41c:	e9ca 2302 	strd	r2, r3, [sl, #8]
 800e420:	e73f      	b.n	800e2a2 <__ieee754_rem_pio2+0x282>
 800e422:	bf00      	nop
 800e424:	41700000 	.word	0x41700000
 800e428:	08010f8c 	.word	0x08010f8c

0800e42c <fabs>:
 800e42c:	ec51 0b10 	vmov	r0, r1, d0
 800e430:	ee10 2a10 	vmov	r2, s0
 800e434:	f021 4300 	bic.w	r3, r1, #2147483648	; 0x80000000
 800e438:	ec43 2b10 	vmov	d0, r2, r3
 800e43c:	4770      	bx	lr
	...

0800e440 <__kernel_rem_pio2>:
 800e440:	e92d 4ff0 	stmdb	sp!, {r4, r5, r6, r7, r8, r9, sl, fp, lr}
 800e444:	ed2d 8b02 	vpush	{d8}
 800e448:	f5ad 7d19 	sub.w	sp, sp, #612	; 0x264
 800e44c:	f112 0f14 	cmn.w	r2, #20
 800e450:	9306      	str	r3, [sp, #24]
 800e452:	9104      	str	r1, [sp, #16]
 800e454:	4bc2      	ldr	r3, [pc, #776]	; (800e760 <__kernel_rem_pio2+0x320>)
 800e456:	99a4      	ldr	r1, [sp, #656]	; 0x290
 800e458:	9009      	str	r0, [sp, #36]	; 0x24
 800e45a:	f853 3021 	ldr.w	r3, [r3, r1, lsl #2]
 800e45e:	9300      	str	r3, [sp, #0]
 800e460:	9b06      	ldr	r3, [sp, #24]
 800e462:	f103 33ff 	add.w	r3, r3, #4294967295
 800e466:	bfa8      	it	ge
 800e468:	1ed4      	subge	r4, r2, #3
 800e46a:	9305      	str	r3, [sp, #20]
 800e46c:	bfb2      	itee	lt
 800e46e:	2400      	movlt	r4, #0
 800e470:	2318      	movge	r3, #24
 800e472:	fb94 f4f3 	sdivge	r4, r4, r3
 800e476:	f06f 0317 	mvn.w	r3, #23
 800e47a:	fb04 3303 	mla	r3, r4, r3, r3
 800e47e:	eb03 0a02 	add.w	sl, r3, r2
 800e482:	9b00      	ldr	r3, [sp, #0]
 800e484:	9a05      	ldr	r2, [sp, #20]
 800e486:	ed9f 8bb2 	vldr	d8, [pc, #712]	; 800e750 <__kernel_rem_pio2+0x310>
 800e48a:	eb03 0802 	add.w	r8, r3, r2
 800e48e:	9ba5      	ldr	r3, [sp, #660]	; 0x294
 800e490:	1aa7      	subs	r7, r4, r2
 800e492:	ae20      	add	r6, sp, #128	; 0x80
 800e494:	eb03 0987 	add.w	r9, r3, r7, lsl #2
 800e498:	2500      	movs	r5, #0
 800e49a:	4545      	cmp	r5, r8
 800e49c:	dd13      	ble.n	800e4c6 <__kernel_rem_pio2+0x86>
 800e49e:	9b06      	ldr	r3, [sp, #24]
 800e4a0:	aa20      	add	r2, sp, #128	; 0x80
 800e4a2:	eb02 05c3 	add.w	r5, r2, r3, lsl #3
 800e4a6:	f50d 7be0 	add.w	fp, sp, #448	; 0x1c0
 800e4aa:	f04f 0800 	mov.w	r8, #0
 800e4ae:	9b00      	ldr	r3, [sp, #0]
 800e4b0:	4598      	cmp	r8, r3
 800e4b2:	dc31      	bgt.n	800e518 <__kernel_rem_pio2+0xd8>
 800e4b4:	ed9f 7ba6 	vldr	d7, [pc, #664]	; 800e750 <__kernel_rem_pio2+0x310>
 800e4b8:	f8dd 9024 	ldr.w	r9, [sp, #36]	; 0x24
 800e4bc:	ed8d 7b02 	vstr	d7, [sp, #8]
 800e4c0:	462f      	mov	r7, r5
 800e4c2:	2600      	movs	r6, #0
 800e4c4:	e01b      	b.n	800e4fe <__kernel_rem_pio2+0xbe>
 800e4c6:	42ef      	cmn	r7, r5
 800e4c8:	d407      	bmi.n	800e4da <__kernel_rem_pio2+0x9a>
 800e4ca:	f859 0025 	ldr.w	r0, [r9, r5, lsl #2]
 800e4ce:	f7f2 f831 	bl	8000534 <__aeabi_i2d>
 800e4d2:	e8e6 0102 	strd	r0, r1, [r6], #8
 800e4d6:	3501      	adds	r5, #1
 800e4d8:	e7df      	b.n	800e49a <__kernel_rem_pio2+0x5a>
 800e4da:	ec51 0b18 	vmov	r0, r1, d8
 800e4de:	e7f8      	b.n	800e4d2 <__kernel_rem_pio2+0x92>
 800e4e0:	e9d7 2300 	ldrd	r2, r3, [r7]
 800e4e4:	e8f9 0102 	ldrd	r0, r1, [r9], #8
 800e4e8:	f7f2 f88e 	bl	8000608 <__aeabi_dmul>
 800e4ec:	4602      	mov	r2, r0
 800e4ee:	460b      	mov	r3, r1
 800e4f0:	e9dd 0102 	ldrd	r0, r1, [sp, #8]
 800e4f4:	f7f1 fed2 	bl	800029c <__adddf3>
 800e4f8:	e9cd 0102 	strd	r0, r1, [sp, #8]
 800e4fc:	3601      	adds	r6, #1
 800e4fe:	9b05      	ldr	r3, [sp, #20]
 800e500:	429e      	cmp	r6, r3
 800e502:	f1a7 0708 	sub.w	r7, r7, #8
 800e506:	ddeb      	ble.n	800e4e0 <__kernel_rem_pio2+0xa0>
 800e508:	ed9d 7b02 	vldr	d7, [sp, #8]
 800e50c:	f108 0801 	add.w	r8, r8, #1
 800e510:	ecab 7b02 	vstmia	fp!, {d7}
 800e514:	3508      	adds	r5, #8
 800e516:	e7ca      	b.n	800e4ae <__kernel_rem_pio2+0x6e>
 800e518:	9b00      	ldr	r3, [sp, #0]
 800e51a:	aa0c      	add	r2, sp, #48	; 0x30
 800e51c:	eb02 0383 	add.w	r3, r2, r3, lsl #2
 800e520:	930b      	str	r3, [sp, #44]	; 0x2c
 800e522:	9ba5      	ldr	r3, [sp, #660]	; 0x294
 800e524:	eb03 0384 	add.w	r3, r3, r4, lsl #2
 800e528:	9c00      	ldr	r4, [sp, #0]
 800e52a:	930a      	str	r3, [sp, #40]	; 0x28
 800e52c:	00e3      	lsls	r3, r4, #3
 800e52e:	9308      	str	r3, [sp, #32]
 800e530:	ab98      	add	r3, sp, #608	; 0x260
 800e532:	eb03 03c4 	add.w	r3, r3, r4, lsl #3
 800e536:	e953 6728 	ldrd	r6, r7, [r3, #-160]	; 0xa0
 800e53a:	f10d 0830 	add.w	r8, sp, #48	; 0x30
 800e53e:	ab70      	add	r3, sp, #448	; 0x1c0
 800e540:	eb03 05c4 	add.w	r5, r3, r4, lsl #3
 800e544:	46c3      	mov	fp, r8
 800e546:	46a1      	mov	r9, r4
 800e548:	f1b9 0f00 	cmp.w	r9, #0
 800e54c:	f1a5 0508 	sub.w	r5, r5, #8
 800e550:	dc77      	bgt.n	800e642 <__kernel_rem_pio2+0x202>
 800e552:	ec47 6b10 	vmov	d0, r6, r7
 800e556:	4650      	mov	r0, sl
 800e558:	f000 fac2 	bl	800eae0 <scalbn>
 800e55c:	ec57 6b10 	vmov	r6, r7, d0
 800e560:	2200      	movs	r2, #0
 800e562:	f04f 537f 	mov.w	r3, #1069547520	; 0x3fc00000
 800e566:	ee10 0a10 	vmov	r0, s0
 800e56a:	4639      	mov	r1, r7
 800e56c:	f7f2 f84c 	bl	8000608 <__aeabi_dmul>
 800e570:	ec41 0b10 	vmov	d0, r0, r1
 800e574:	f000 fb34 	bl	800ebe0 <floor>
 800e578:	4b7a      	ldr	r3, [pc, #488]	; (800e764 <__kernel_rem_pio2+0x324>)
 800e57a:	ec51 0b10 	vmov	r0, r1, d0
 800e57e:	2200      	movs	r2, #0
 800e580:	f7f2 f842 	bl	8000608 <__aeabi_dmul>
 800e584:	4602      	mov	r2, r0
 800e586:	460b      	mov	r3, r1
 800e588:	4630      	mov	r0, r6
 800e58a:	4639      	mov	r1, r7
 800e58c:	f7f1 fe84 	bl	8000298 <__aeabi_dsub>
 800e590:	460f      	mov	r7, r1
 800e592:	4606      	mov	r6, r0
 800e594:	f7f2 fad2 	bl	8000b3c <__aeabi_d2iz>
 800e598:	9002      	str	r0, [sp, #8]
 800e59a:	f7f1 ffcb 	bl	8000534 <__aeabi_i2d>
 800e59e:	4602      	mov	r2, r0
 800e5a0:	460b      	mov	r3, r1
 800e5a2:	4630      	mov	r0, r6
 800e5a4:	4639      	mov	r1, r7
 800e5a6:	f7f1 fe77 	bl	8000298 <__aeabi_dsub>
 800e5aa:	f1ba 0f00 	cmp.w	sl, #0
 800e5ae:	4606      	mov	r6, r0
 800e5b0:	460f      	mov	r7, r1
 800e5b2:	dd6d      	ble.n	800e690 <__kernel_rem_pio2+0x250>
 800e5b4:	1e61      	subs	r1, r4, #1
 800e5b6:	ab0c      	add	r3, sp, #48	; 0x30
 800e5b8:	9d02      	ldr	r5, [sp, #8]
 800e5ba:	f853 3021 	ldr.w	r3, [r3, r1, lsl #2]
 800e5be:	f1ca 0018 	rsb	r0, sl, #24
 800e5c2:	fa43 f200 	asr.w	r2, r3, r0
 800e5c6:	4415      	add	r5, r2
 800e5c8:	4082      	lsls	r2, r0
 800e5ca:	1a9b      	subs	r3, r3, r2
 800e5cc:	aa0c      	add	r2, sp, #48	; 0x30
 800e5ce:	9502      	str	r5, [sp, #8]
 800e5d0:	f842 3021 	str.w	r3, [r2, r1, lsl #2]
 800e5d4:	f1ca 0217 	rsb	r2, sl, #23
 800e5d8:	fa43 fb02 	asr.w	fp, r3, r2
 800e5dc:	f1bb 0f00 	cmp.w	fp, #0
 800e5e0:	dd65      	ble.n	800e6ae <__kernel_rem_pio2+0x26e>
 800e5e2:	9b02      	ldr	r3, [sp, #8]
 800e5e4:	2200      	movs	r2, #0
 800e5e6:	3301      	adds	r3, #1
 800e5e8:	9302      	str	r3, [sp, #8]
 800e5ea:	4615      	mov	r5, r2
 800e5ec:	f06f 417f 	mvn.w	r1, #4278190080	; 0xff000000
 800e5f0:	4294      	cmp	r4, r2
 800e5f2:	f300 809f 	bgt.w	800e734 <__kernel_rem_pio2+0x2f4>
 800e5f6:	f1ba 0f00 	cmp.w	sl, #0
 800e5fa:	dd07      	ble.n	800e60c <__kernel_rem_pio2+0x1cc>
 800e5fc:	f1ba 0f01 	cmp.w	sl, #1
 800e600:	f000 80c1 	beq.w	800e786 <__kernel_rem_pio2+0x346>
 800e604:	f1ba 0f02 	cmp.w	sl, #2
 800e608:	f000 80c7 	beq.w	800e79a <__kernel_rem_pio2+0x35a>
 800e60c:	f1bb 0f02 	cmp.w	fp, #2
 800e610:	d14d      	bne.n	800e6ae <__kernel_rem_pio2+0x26e>
 800e612:	4632      	mov	r2, r6
 800e614:	463b      	mov	r3, r7
 800e616:	4954      	ldr	r1, [pc, #336]	; (800e768 <__kernel_rem_pio2+0x328>)
 800e618:	2000      	movs	r0, #0
 800e61a:	f7f1 fe3d 	bl	8000298 <__aeabi_dsub>
 800e61e:	4606      	mov	r6, r0
 800e620:	460f      	mov	r7, r1
 800e622:	2d00      	cmp	r5, #0
 800e624:	d043      	beq.n	800e6ae <__kernel_rem_pio2+0x26e>
 800e626:	4650      	mov	r0, sl
 800e628:	ed9f 0b4b 	vldr	d0, [pc, #300]	; 800e758 <__kernel_rem_pio2+0x318>
 800e62c:	f000 fa58 	bl	800eae0 <scalbn>
 800e630:	4630      	mov	r0, r6
 800e632:	4639      	mov	r1, r7
 800e634:	ec53 2b10 	vmov	r2, r3, d0
 800e638:	f7f1 fe2e 	bl	8000298 <__aeabi_dsub>
 800e63c:	4606      	mov	r6, r0
 800e63e:	460f      	mov	r7, r1
 800e640:	e035      	b.n	800e6ae <__kernel_rem_pio2+0x26e>
 800e642:	4b4a      	ldr	r3, [pc, #296]	; (800e76c <__kernel_rem_pio2+0x32c>)
 800e644:	2200      	movs	r2, #0
 800e646:	4630      	mov	r0, r6
 800e648:	4639      	mov	r1, r7
 800e64a:	f7f1 ffdd 	bl	8000608 <__aeabi_dmul>
 800e64e:	f7f2 fa75 	bl	8000b3c <__aeabi_d2iz>
 800e652:	f7f1 ff6f 	bl	8000534 <__aeabi_i2d>
 800e656:	4602      	mov	r2, r0
 800e658:	460b      	mov	r3, r1
 800e65a:	ec43 2b18 	vmov	d8, r2, r3
 800e65e:	4b44      	ldr	r3, [pc, #272]	; (800e770 <__kernel_rem_pio2+0x330>)
 800e660:	2200      	movs	r2, #0
 800e662:	f7f1 ffd1 	bl	8000608 <__aeabi_dmul>
 800e666:	4602      	mov	r2, r0
 800e668:	460b      	mov	r3, r1
 800e66a:	4630      	mov	r0, r6
 800e66c:	4639      	mov	r1, r7
 800e66e:	f7f1 fe13 	bl	8000298 <__aeabi_dsub>
 800e672:	f7f2 fa63 	bl	8000b3c <__aeabi_d2iz>
 800e676:	e9d5 2300 	ldrd	r2, r3, [r5]
 800e67a:	f84b 0b04 	str.w	r0, [fp], #4
 800e67e:	ec51 0b18 	vmov	r0, r1, d8
 800e682:	f7f1 fe0b 	bl	800029c <__adddf3>
 800e686:	f109 39ff 	add.w	r9, r9, #4294967295
 800e68a:	4606      	mov	r6, r0
 800e68c:	460f      	mov	r7, r1
 800e68e:	e75b      	b.n	800e548 <__kernel_rem_pio2+0x108>
 800e690:	d106      	bne.n	800e6a0 <__kernel_rem_pio2+0x260>
 800e692:	1e63      	subs	r3, r4, #1
 800e694:	aa0c      	add	r2, sp, #48	; 0x30
 800e696:	f852 3023 	ldr.w	r3, [r2, r3, lsl #2]
 800e69a:	ea4f 5be3 	mov.w	fp, r3, asr #23
 800e69e:	e79d      	b.n	800e5dc <__kernel_rem_pio2+0x19c>
 800e6a0:	4b34      	ldr	r3, [pc, #208]	; (800e774 <__kernel_rem_pio2+0x334>)
 800e6a2:	2200      	movs	r2, #0
 800e6a4:	f7f2 fa36 	bl	8000b14 <__aeabi_dcmpge>
 800e6a8:	2800      	cmp	r0, #0
 800e6aa:	d140      	bne.n	800e72e <__kernel_rem_pio2+0x2ee>
 800e6ac:	4683      	mov	fp, r0
 800e6ae:	2200      	movs	r2, #0
 800e6b0:	2300      	movs	r3, #0
 800e6b2:	4630      	mov	r0, r6
 800e6b4:	4639      	mov	r1, r7
 800e6b6:	f7f2 fa0f 	bl	8000ad8 <__aeabi_dcmpeq>
 800e6ba:	2800      	cmp	r0, #0
 800e6bc:	f000 80c1 	beq.w	800e842 <__kernel_rem_pio2+0x402>
 800e6c0:	1e65      	subs	r5, r4, #1
 800e6c2:	462b      	mov	r3, r5
 800e6c4:	2200      	movs	r2, #0
 800e6c6:	9900      	ldr	r1, [sp, #0]
 800e6c8:	428b      	cmp	r3, r1
 800e6ca:	da6d      	bge.n	800e7a8 <__kernel_rem_pio2+0x368>
 800e6cc:	2a00      	cmp	r2, #0
 800e6ce:	f000 808a 	beq.w	800e7e6 <__kernel_rem_pio2+0x3a6>
 800e6d2:	ab0c      	add	r3, sp, #48	; 0x30
 800e6d4:	f1aa 0a18 	sub.w	sl, sl, #24
 800e6d8:	f853 3025 	ldr.w	r3, [r3, r5, lsl #2]
 800e6dc:	2b00      	cmp	r3, #0
 800e6de:	f000 80ae 	beq.w	800e83e <__kernel_rem_pio2+0x3fe>
 800e6e2:	4650      	mov	r0, sl
 800e6e4:	ed9f 0b1c 	vldr	d0, [pc, #112]	; 800e758 <__kernel_rem_pio2+0x318>
 800e6e8:	f000 f9fa 	bl	800eae0 <scalbn>
 800e6ec:	1c6b      	adds	r3, r5, #1
 800e6ee:	00da      	lsls	r2, r3, #3
 800e6f0:	9205      	str	r2, [sp, #20]
 800e6f2:	ec57 6b10 	vmov	r6, r7, d0
 800e6f6:	aa70      	add	r2, sp, #448	; 0x1c0
 800e6f8:	f8df 9070 	ldr.w	r9, [pc, #112]	; 800e76c <__kernel_rem_pio2+0x32c>
 800e6fc:	eb02 0ac3 	add.w	sl, r2, r3, lsl #3
 800e700:	462c      	mov	r4, r5
 800e702:	f04f 0800 	mov.w	r8, #0
 800e706:	2c00      	cmp	r4, #0
 800e708:	f280 80d4 	bge.w	800e8b4 <__kernel_rem_pio2+0x474>
 800e70c:	462c      	mov	r4, r5
 800e70e:	2c00      	cmp	r4, #0
 800e710:	f2c0 8102 	blt.w	800e918 <__kernel_rem_pio2+0x4d8>
 800e714:	4b18      	ldr	r3, [pc, #96]	; (800e778 <__kernel_rem_pio2+0x338>)
 800e716:	461e      	mov	r6, r3
 800e718:	ab70      	add	r3, sp, #448	; 0x1c0
 800e71a:	eb03 08c4 	add.w	r8, r3, r4, lsl #3
 800e71e:	1b2b      	subs	r3, r5, r4
 800e720:	f04f 0900 	mov.w	r9, #0
 800e724:	f04f 0a00 	mov.w	sl, #0
 800e728:	2700      	movs	r7, #0
 800e72a:	9306      	str	r3, [sp, #24]
 800e72c:	e0e6      	b.n	800e8fc <__kernel_rem_pio2+0x4bc>
 800e72e:	f04f 0b02 	mov.w	fp, #2
 800e732:	e756      	b.n	800e5e2 <__kernel_rem_pio2+0x1a2>
 800e734:	f8d8 3000 	ldr.w	r3, [r8]
 800e738:	bb05      	cbnz	r5, 800e77c <__kernel_rem_pio2+0x33c>
 800e73a:	b123      	cbz	r3, 800e746 <__kernel_rem_pio2+0x306>
 800e73c:	f1c3 7380 	rsb	r3, r3, #16777216	; 0x1000000
 800e740:	f8c8 3000 	str.w	r3, [r8]
 800e744:	2301      	movs	r3, #1
 800e746:	3201      	adds	r2, #1
 800e748:	f108 0804 	add.w	r8, r8, #4
 800e74c:	461d      	mov	r5, r3
 800e74e:	e74f      	b.n	800e5f0 <__kernel_rem_pio2+0x1b0>
	...
 800e75c:	3ff00000 	.word	0x3ff00000
 800e760:	080110d8 	.word	0x080110d8
 800e764:	40200000 	.word	0x40200000
 800e768:	3ff00000 	.word	0x3ff00000
 800e76c:	3e700000 	.word	0x3e700000
 800e770:	41700000 	.word	0x41700000
 800e774:	3fe00000 	.word	0x3fe00000
 800e778:	08011098 	.word	0x08011098
 800e77c:	1acb      	subs	r3, r1, r3
 800e77e:	f8c8 3000 	str.w	r3, [r8]
 800e782:	462b      	mov	r3, r5
 800e784:	e7df      	b.n	800e746 <__kernel_rem_pio2+0x306>
 800e786:	1e62      	subs	r2, r4, #1
 800e788:	ab0c      	add	r3, sp, #48	; 0x30
 800e78a:	f853 3022 	ldr.w	r3, [r3, r2, lsl #2]
 800e78e:	f3c3 0316 	ubfx	r3, r3, #0, #23
 800e792:	a90c      	add	r1, sp, #48	; 0x30
 800e794:	f841 3022 	str.w	r3, [r1, r2, lsl #2]
 800e798:	e738      	b.n	800e60c <__kernel_rem_pio2+0x1cc>
 800e79a:	1e62      	subs	r2, r4, #1
 800e79c:	ab0c      	add	r3, sp, #48	; 0x30
 800e79e:	f853 3022 	ldr.w	r3, [r3, r2, lsl #2]
 800e7a2:	f3c3 0315 	ubfx	r3, r3, #0, #22
 800e7a6:	e7f4      	b.n	800e792 <__kernel_rem_pio2+0x352>
 800e7a8:	a90c      	add	r1, sp, #48	; 0x30
 800e7aa:	f851 1023 	ldr.w	r1, [r1, r3, lsl #2]
 800e7ae:	3b01      	subs	r3, #1
 800e7b0:	430a      	orrs	r2, r1
 800e7b2:	e788      	b.n	800e6c6 <__kernel_rem_pio2+0x286>
 800e7b4:	3301      	adds	r3, #1
 800e7b6:	f852 1d04 	ldr.w	r1, [r2, #-4]!
 800e7ba:	2900      	cmp	r1, #0
 800e7bc:	d0fa      	beq.n	800e7b4 <__kernel_rem_pio2+0x374>
 800e7be:	9a08      	ldr	r2, [sp, #32]
 800e7c0:	f502 7218 	add.w	r2, r2, #608	; 0x260
 800e7c4:	446a      	add	r2, sp
 800e7c6:	3a98      	subs	r2, #152	; 0x98
 800e7c8:	9208      	str	r2, [sp, #32]
 800e7ca:	9a06      	ldr	r2, [sp, #24]
 800e7cc:	a920      	add	r1, sp, #128	; 0x80
 800e7ce:	18a2      	adds	r2, r4, r2
 800e7d0:	18e3      	adds	r3, r4, r3
 800e7d2:	f104 0801 	add.w	r8, r4, #1
 800e7d6:	eb01 05c2 	add.w	r5, r1, r2, lsl #3
 800e7da:	9302      	str	r3, [sp, #8]
 800e7dc:	9b02      	ldr	r3, [sp, #8]
 800e7de:	4543      	cmp	r3, r8
 800e7e0:	da04      	bge.n	800e7ec <__kernel_rem_pio2+0x3ac>
 800e7e2:	461c      	mov	r4, r3
 800e7e4:	e6a2      	b.n	800e52c <__kernel_rem_pio2+0xec>
 800e7e6:	9a0b      	ldr	r2, [sp, #44]	; 0x2c
 800e7e8:	2301      	movs	r3, #1
 800e7ea:	e7e4      	b.n	800e7b6 <__kernel_rem_pio2+0x376>
 800e7ec:	9b0a      	ldr	r3, [sp, #40]	; 0x28
 800e7ee:	f853 0028 	ldr.w	r0, [r3, r8, lsl #2]
 800e7f2:	f7f1 fe9f 	bl	8000534 <__aeabi_i2d>
 800e7f6:	e8e5 0102 	strd	r0, r1, [r5], #8
 800e7fa:	9b09      	ldr	r3, [sp, #36]	; 0x24
 800e7fc:	46ab      	mov	fp, r5
 800e7fe:	461c      	mov	r4, r3
 800e800:	f04f 0900 	mov.w	r9, #0
 800e804:	2600      	movs	r6, #0
 800e806:	2700      	movs	r7, #0
 800e808:	9b05      	ldr	r3, [sp, #20]
 800e80a:	4599      	cmp	r9, r3
 800e80c:	dd06      	ble.n	800e81c <__kernel_rem_pio2+0x3dc>
 800e80e:	9b08      	ldr	r3, [sp, #32]
 800e810:	e8e3 6702 	strd	r6, r7, [r3], #8
 800e814:	f108 0801 	add.w	r8, r8, #1
 800e818:	9308      	str	r3, [sp, #32]
 800e81a:	e7df      	b.n	800e7dc <__kernel_rem_pio2+0x39c>
 800e81c:	e97b 2302 	ldrd	r2, r3, [fp, #-8]!
 800e820:	e8f4 0102 	ldrd	r0, r1, [r4], #8
 800e824:	f7f1 fef0 	bl	8000608 <__aeabi_dmul>
 800e828:	4602      	mov	r2, r0
 800e82a:	460b      	mov	r3, r1
 800e82c:	4630      	mov	r0, r6
 800e82e:	4639      	mov	r1, r7
 800e830:	f7f1 fd34 	bl	800029c <__adddf3>
 800e834:	f109 0901 	add.w	r9, r9, #1
 800e838:	4606      	mov	r6, r0
 800e83a:	460f      	mov	r7, r1
 800e83c:	e7e4      	b.n	800e808 <__kernel_rem_pio2+0x3c8>
 800e83e:	3d01      	subs	r5, #1
 800e840:	e747      	b.n	800e6d2 <__kernel_rem_pio2+0x292>
 800e842:	ec47 6b10 	vmov	d0, r6, r7
 800e846:	f1ca 0000 	rsb	r0, sl, #0
 800e84a:	f000 f949 	bl	800eae0 <scalbn>
 800e84e:	ec57 6b10 	vmov	r6, r7, d0
 800e852:	4ba0      	ldr	r3, [pc, #640]	; (800ead4 <__kernel_rem_pio2+0x694>)
 800e854:	ee10 0a10 	vmov	r0, s0
 800e858:	2200      	movs	r2, #0
 800e85a:	4639      	mov	r1, r7
 800e85c:	f7f2 f95a 	bl	8000b14 <__aeabi_dcmpge>
 800e860:	b1f8      	cbz	r0, 800e8a2 <__kernel_rem_pio2+0x462>
 800e862:	4b9d      	ldr	r3, [pc, #628]	; (800ead8 <__kernel_rem_pio2+0x698>)
 800e864:	2200      	movs	r2, #0
 800e866:	4630      	mov	r0, r6
 800e868:	4639      	mov	r1, r7
 800e86a:	f7f1 fecd 	bl	8000608 <__aeabi_dmul>
 800e86e:	f7f2 f965 	bl	8000b3c <__aeabi_d2iz>
 800e872:	4680      	mov	r8, r0
 800e874:	f7f1 fe5e 	bl	8000534 <__aeabi_i2d>
 800e878:	4b96      	ldr	r3, [pc, #600]	; (800ead4 <__kernel_rem_pio2+0x694>)
 800e87a:	2200      	movs	r2, #0
 800e87c:	f7f1 fec4 	bl	8000608 <__aeabi_dmul>
 800e880:	460b      	mov	r3, r1
 800e882:	4602      	mov	r2, r0
 800e884:	4639      	mov	r1, r7
 800e886:	4630      	mov	r0, r6
 800e888:	f7f1 fd06 	bl	8000298 <__aeabi_dsub>
 800e88c:	f7f2 f956 	bl	8000b3c <__aeabi_d2iz>
 800e890:	1c65      	adds	r5, r4, #1
 800e892:	ab0c      	add	r3, sp, #48	; 0x30
 800e894:	f10a 0a18 	add.w	sl, sl, #24
 800e898:	f843 0024 	str.w	r0, [r3, r4, lsl #2]
 800e89c:	f843 8025 	str.w	r8, [r3, r5, lsl #2]
 800e8a0:	e71f      	b.n	800e6e2 <__kernel_rem_pio2+0x2a2>
 800e8a2:	4630      	mov	r0, r6
 800e8a4:	4639      	mov	r1, r7
 800e8a6:	f7f2 f949 	bl	8000b3c <__aeabi_d2iz>
 800e8aa:	ab0c      	add	r3, sp, #48	; 0x30
 800e8ac:	4625      	mov	r5, r4
 800e8ae:	f843 0024 	str.w	r0, [r3, r4, lsl #2]
 800e8b2:	e716      	b.n	800e6e2 <__kernel_rem_pio2+0x2a2>
 800e8b4:	ab0c      	add	r3, sp, #48	; 0x30
 800e8b6:	f853 0024 	ldr.w	r0, [r3, r4, lsl #2]
 800e8ba:	f7f1 fe3b 	bl	8000534 <__aeabi_i2d>
 800e8be:	4632      	mov	r2, r6
 800e8c0:	463b      	mov	r3, r7
 800e8c2:	f7f1 fea1 	bl	8000608 <__aeabi_dmul>
 800e8c6:	4642      	mov	r2, r8
 800e8c8:	e96a 0102 	strd	r0, r1, [sl, #-8]!
 800e8cc:	464b      	mov	r3, r9
 800e8ce:	4630      	mov	r0, r6
 800e8d0:	4639      	mov	r1, r7
 800e8d2:	f7f1 fe99 	bl	8000608 <__aeabi_dmul>
 800e8d6:	3c01      	subs	r4, #1
 800e8d8:	4606      	mov	r6, r0
 800e8da:	460f      	mov	r7, r1
 800e8dc:	e713      	b.n	800e706 <__kernel_rem_pio2+0x2c6>
 800e8de:	e8f8 2302 	ldrd	r2, r3, [r8], #8
 800e8e2:	e8f6 0102 	ldrd	r0, r1, [r6], #8
 800e8e6:	f7f1 fe8f 	bl	8000608 <__aeabi_dmul>
 800e8ea:	4602      	mov	r2, r0
 800e8ec:	460b      	mov	r3, r1
 800e8ee:	4648      	mov	r0, r9
 800e8f0:	4651      	mov	r1, sl
 800e8f2:	f7f1 fcd3 	bl	800029c <__adddf3>
 800e8f6:	3701      	adds	r7, #1
 800e8f8:	4681      	mov	r9, r0
 800e8fa:	468a      	mov	sl, r1
 800e8fc:	9b00      	ldr	r3, [sp, #0]
 800e8fe:	429f      	cmp	r7, r3
 800e900:	dc02      	bgt.n	800e908 <__kernel_rem_pio2+0x4c8>
 800e902:	9b06      	ldr	r3, [sp, #24]
 800e904:	429f      	cmp	r7, r3
 800e906:	ddea      	ble.n	800e8de <__kernel_rem_pio2+0x49e>
 800e908:	9a06      	ldr	r2, [sp, #24]
 800e90a:	ab48      	add	r3, sp, #288	; 0x120
 800e90c:	eb03 06c2 	add.w	r6, r3, r2, lsl #3
 800e910:	e9c6 9a00 	strd	r9, sl, [r6]
 800e914:	3c01      	subs	r4, #1
 800e916:	e6fa      	b.n	800e70e <__kernel_rem_pio2+0x2ce>
 800e918:	9ba4      	ldr	r3, [sp, #656]	; 0x290
 800e91a:	2b02      	cmp	r3, #2
 800e91c:	dc0b      	bgt.n	800e936 <__kernel_rem_pio2+0x4f6>
 800e91e:	2b00      	cmp	r3, #0
 800e920:	dc39      	bgt.n	800e996 <__kernel_rem_pio2+0x556>
 800e922:	d05d      	beq.n	800e9e0 <__kernel_rem_pio2+0x5a0>
 800e924:	9b02      	ldr	r3, [sp, #8]
 800e926:	f003 0007 	and.w	r0, r3, #7
 800e92a:	f50d 7d19 	add.w	sp, sp, #612	; 0x264
 800e92e:	ecbd 8b02 	vpop	{d8}
 800e932:	e8bd 8ff0 	ldmia.w	sp!, {r4, r5, r6, r7, r8, r9, sl, fp, pc}
 800e936:	9ba4      	ldr	r3, [sp, #656]	; 0x290
 800e938:	2b03      	cmp	r3, #3
 800e93a:	d1f3      	bne.n	800e924 <__kernel_rem_pio2+0x4e4>
 800e93c:	9b05      	ldr	r3, [sp, #20]
 800e93e:	9500      	str	r5, [sp, #0]
 800e940:	f503 7318 	add.w	r3, r3, #608	; 0x260
 800e944:	eb0d 0403 	add.w	r4, sp, r3
 800e948:	f5a4 74a4 	sub.w	r4, r4, #328	; 0x148
 800e94c:	46a2      	mov	sl, r4
 800e94e:	9b00      	ldr	r3, [sp, #0]
 800e950:	2b00      	cmp	r3, #0
 800e952:	f1aa 0a08 	sub.w	sl, sl, #8
 800e956:	dc69      	bgt.n	800ea2c <__kernel_rem_pio2+0x5ec>
 800e958:	46aa      	mov	sl, r5
 800e95a:	f1ba 0f01 	cmp.w	sl, #1
 800e95e:	f1a4 0408 	sub.w	r4, r4, #8
 800e962:	f300 8083 	bgt.w	800ea6c <__kernel_rem_pio2+0x62c>
 800e966:	9c05      	ldr	r4, [sp, #20]
 800e968:	ab48      	add	r3, sp, #288	; 0x120
 800e96a:	441c      	add	r4, r3
 800e96c:	2000      	movs	r0, #0
 800e96e:	2100      	movs	r1, #0
 800e970:	2d01      	cmp	r5, #1
 800e972:	f300 809a 	bgt.w	800eaaa <__kernel_rem_pio2+0x66a>
 800e976:	e9dd 7848 	ldrd	r7, r8, [sp, #288]	; 0x120
 800e97a:	e9dd 564a 	ldrd	r5, r6, [sp, #296]	; 0x128
 800e97e:	f1bb 0f00 	cmp.w	fp, #0
 800e982:	f040 8098 	bne.w	800eab6 <__kernel_rem_pio2+0x676>
 800e986:	9b04      	ldr	r3, [sp, #16]
 800e988:	e9c3 7800 	strd	r7, r8, [r3]
 800e98c:	e9c3 5602 	strd	r5, r6, [r3, #8]
 800e990:	e9c3 0104 	strd	r0, r1, [r3, #16]
 800e994:	e7c6      	b.n	800e924 <__kernel_rem_pio2+0x4e4>
 800e996:	9e05      	ldr	r6, [sp, #20]
 800e998:	ab48      	add	r3, sp, #288	; 0x120
 800e99a:	441e      	add	r6, r3
 800e99c:	462c      	mov	r4, r5
 800e99e:	2000      	movs	r0, #0
 800e9a0:	2100      	movs	r1, #0
 800e9a2:	2c00      	cmp	r4, #0
 800e9a4:	da33      	bge.n	800ea0e <__kernel_rem_pio2+0x5ce>
 800e9a6:	f1bb 0f00 	cmp.w	fp, #0
 800e9aa:	d036      	beq.n	800ea1a <__kernel_rem_pio2+0x5da>
 800e9ac:	4602      	mov	r2, r0
 800e9ae:	f101 4300 	add.w	r3, r1, #2147483648	; 0x80000000
 800e9b2:	9c04      	ldr	r4, [sp, #16]
 800e9b4:	e9c4 2300 	strd	r2, r3, [r4]
 800e9b8:	4602      	mov	r2, r0
 800e9ba:	460b      	mov	r3, r1
 800e9bc:	e9dd 0148 	ldrd	r0, r1, [sp, #288]	; 0x120
 800e9c0:	f7f1 fc6a 	bl	8000298 <__aeabi_dsub>
 800e9c4:	ae4a      	add	r6, sp, #296	; 0x128
 800e9c6:	2401      	movs	r4, #1
 800e9c8:	42a5      	cmp	r5, r4
 800e9ca:	da29      	bge.n	800ea20 <__kernel_rem_pio2+0x5e0>
 800e9cc:	f1bb 0f00 	cmp.w	fp, #0
 800e9d0:	d002      	beq.n	800e9d8 <__kernel_rem_pio2+0x598>
 800e9d2:	f101 4300 	add.w	r3, r1, #2147483648	; 0x80000000
 800e9d6:	4619      	mov	r1, r3
 800e9d8:	9b04      	ldr	r3, [sp, #16]
 800e9da:	e9c3 0102 	strd	r0, r1, [r3, #8]
 800e9de:	e7a1      	b.n	800e924 <__kernel_rem_pio2+0x4e4>
 800e9e0:	9c05      	ldr	r4, [sp, #20]
 800e9e2:	ab48      	add	r3, sp, #288	; 0x120
 800e9e4:	441c      	add	r4, r3
 800e9e6:	2000      	movs	r0, #0
 800e9e8:	2100      	movs	r1, #0
 800e9ea:	2d00      	cmp	r5, #0
 800e9ec:	da09      	bge.n	800ea02 <__kernel_rem_pio2+0x5c2>
 800e9ee:	f1bb 0f00 	cmp.w	fp, #0
 800e9f2:	d002      	beq.n	800e9fa <__kernel_rem_pio2+0x5ba>
 800e9f4:	f101 4300 	add.w	r3, r1, #2147483648	; 0x80000000
 800e9f8:	4619      	mov	r1, r3
 800e9fa:	9b04      	ldr	r3, [sp, #16]
 800e9fc:	e9c3 0100 	strd	r0, r1, [r3]
 800ea00:	e790      	b.n	800e924 <__kernel_rem_pio2+0x4e4>
 800ea02:	e974 2302 	ldrd	r2, r3, [r4, #-8]!
 800ea06:	f7f1 fc49 	bl	800029c <__adddf3>
 800ea0a:	3d01      	subs	r5, #1
 800ea0c:	e7ed      	b.n	800e9ea <__kernel_rem_pio2+0x5aa>
 800ea0e:	e976 2302 	ldrd	r2, r3, [r6, #-8]!
 800ea12:	f7f1 fc43 	bl	800029c <__adddf3>
 800ea16:	3c01      	subs	r4, #1
 800ea18:	e7c3      	b.n	800e9a2 <__kernel_rem_pio2+0x562>
 800ea1a:	4602      	mov	r2, r0
 800ea1c:	460b      	mov	r3, r1
 800ea1e:	e7c8      	b.n	800e9b2 <__kernel_rem_pio2+0x572>
 800ea20:	e8f6 2302 	ldrd	r2, r3, [r6], #8
 800ea24:	f7f1 fc3a 	bl	800029c <__adddf3>
 800ea28:	3401      	adds	r4, #1
 800ea2a:	e7cd      	b.n	800e9c8 <__kernel_rem_pio2+0x588>
 800ea2c:	e9da 8900 	ldrd	r8, r9, [sl]
 800ea30:	e9da 6702 	ldrd	r6, r7, [sl, #8]
 800ea34:	9b00      	ldr	r3, [sp, #0]
 800ea36:	3b01      	subs	r3, #1
 800ea38:	9300      	str	r3, [sp, #0]
 800ea3a:	4632      	mov	r2, r6
 800ea3c:	463b      	mov	r3, r7
 800ea3e:	4640      	mov	r0, r8
 800ea40:	4649      	mov	r1, r9
 800ea42:	f7f1 fc2b 	bl	800029c <__adddf3>
 800ea46:	e9cd 0106 	strd	r0, r1, [sp, #24]
 800ea4a:	4602      	mov	r2, r0
 800ea4c:	460b      	mov	r3, r1
 800ea4e:	4640      	mov	r0, r8
 800ea50:	4649      	mov	r1, r9
 800ea52:	f7f1 fc21 	bl	8000298 <__aeabi_dsub>
 800ea56:	4632      	mov	r2, r6
 800ea58:	463b      	mov	r3, r7
 800ea5a:	f7f1 fc1f 	bl	800029c <__adddf3>
 800ea5e:	ed9d 7b06 	vldr	d7, [sp, #24]
 800ea62:	e9ca 0102 	strd	r0, r1, [sl, #8]
 800ea66:	ed8a 7b00 	vstr	d7, [sl]
 800ea6a:	e770      	b.n	800e94e <__kernel_rem_pio2+0x50e>
 800ea6c:	e9d4 8900 	ldrd	r8, r9, [r4]
 800ea70:	e9d4 6702 	ldrd	r6, r7, [r4, #8]
 800ea74:	4640      	mov	r0, r8
 800ea76:	4632      	mov	r2, r6
 800ea78:	463b      	mov	r3, r7
 800ea7a:	4649      	mov	r1, r9
 800ea7c:	f7f1 fc0e 	bl	800029c <__adddf3>
 800ea80:	e9cd 0100 	strd	r0, r1, [sp]
 800ea84:	4602      	mov	r2, r0
 800ea86:	460b      	mov	r3, r1
 800ea88:	4640      	mov	r0, r8
 800ea8a:	4649      	mov	r1, r9
 800ea8c:	f7f1 fc04 	bl	8000298 <__aeabi_dsub>
 800ea90:	4632      	mov	r2, r6
 800ea92:	463b      	mov	r3, r7
 800ea94:	f7f1 fc02 	bl	800029c <__adddf3>
 800ea98:	ed9d 7b00 	vldr	d7, [sp]
 800ea9c:	e9c4 0102 	strd	r0, r1, [r4, #8]
 800eaa0:	ed84 7b00 	vstr	d7, [r4]
 800eaa4:	f10a 3aff 	add.w	sl, sl, #4294967295
 800eaa8:	e757      	b.n	800e95a <__kernel_rem_pio2+0x51a>
 800eaaa:	e974 2302 	ldrd	r2, r3, [r4, #-8]!
 800eaae:	f7f1 fbf5 	bl	800029c <__adddf3>
 800eab2:	3d01      	subs	r5, #1
 800eab4:	e75c      	b.n	800e970 <__kernel_rem_pio2+0x530>
 800eab6:	9b04      	ldr	r3, [sp, #16]
 800eab8:	9a04      	ldr	r2, [sp, #16]
 800eaba:	601f      	str	r7, [r3, #0]
 800eabc:	f108 4400 	add.w	r4, r8, #2147483648	; 0x80000000
 800eac0:	605c      	str	r4, [r3, #4]
 800eac2:	609d      	str	r5, [r3, #8]
 800eac4:	f106 4300 	add.w	r3, r6, #2147483648	; 0x80000000
 800eac8:	60d3      	str	r3, [r2, #12]
 800eaca:	f101 4300 	add.w	r3, r1, #2147483648	; 0x80000000
 800eace:	6110      	str	r0, [r2, #16]
 800ead0:	6153      	str	r3, [r2, #20]
 800ead2:	e727      	b.n	800e924 <__kernel_rem_pio2+0x4e4>
 800ead4:	41700000 	.word	0x41700000
 800ead8:	3e700000 	.word	0x3e700000
 800eadc:	00000000 	.word	0x00000000

0800eae0 <scalbn>:
 800eae0:	b570      	push	{r4, r5, r6, lr}
 800eae2:	ec55 4b10 	vmov	r4, r5, d0
 800eae6:	f3c5 510a 	ubfx	r1, r5, #20, #11
 800eaea:	4606      	mov	r6, r0
 800eaec:	462b      	mov	r3, r5
 800eaee:	b999      	cbnz	r1, 800eb18 <scalbn+0x38>
 800eaf0:	f025 4300 	bic.w	r3, r5, #2147483648	; 0x80000000
 800eaf4:	4323      	orrs	r3, r4
 800eaf6:	d03f      	beq.n	800eb78 <scalbn+0x98>
 800eaf8:	4b35      	ldr	r3, [pc, #212]	; (800ebd0 <scalbn+0xf0>)
 800eafa:	4629      	mov	r1, r5
 800eafc:	ee10 0a10 	vmov	r0, s0
 800eb00:	2200      	movs	r2, #0
 800eb02:	f7f1 fd81 	bl	8000608 <__aeabi_dmul>
 800eb06:	4b33      	ldr	r3, [pc, #204]	; (800ebd4 <scalbn+0xf4>)
 800eb08:	429e      	cmp	r6, r3
 800eb0a:	4604      	mov	r4, r0
 800eb0c:	460d      	mov	r5, r1
 800eb0e:	da10      	bge.n	800eb32 <scalbn+0x52>
 800eb10:	a327      	add	r3, pc, #156	; (adr r3, 800ebb0 <scalbn+0xd0>)
 800eb12:	e9d3 2300 	ldrd	r2, r3, [r3]
 800eb16:	e01f      	b.n	800eb58 <scalbn+0x78>
 800eb18:	f240 72ff 	movw	r2, #2047	; 0x7ff
 800eb1c:	4291      	cmp	r1, r2
 800eb1e:	d10c      	bne.n	800eb3a <scalbn+0x5a>
 800eb20:	ee10 2a10 	vmov	r2, s0
 800eb24:	4620      	mov	r0, r4
 800eb26:	4629      	mov	r1, r5
 800eb28:	f7f1 fbb8 	bl	800029c <__adddf3>
 800eb2c:	4604      	mov	r4, r0
 800eb2e:	460d      	mov	r5, r1
 800eb30:	e022      	b.n	800eb78 <scalbn+0x98>
 800eb32:	460b      	mov	r3, r1
 800eb34:	f3c1 510a 	ubfx	r1, r1, #20, #11
 800eb38:	3936      	subs	r1, #54	; 0x36
 800eb3a:	f24c 3250 	movw	r2, #50000	; 0xc350
 800eb3e:	4296      	cmp	r6, r2
 800eb40:	dd0d      	ble.n	800eb5e <scalbn+0x7e>
 800eb42:	2d00      	cmp	r5, #0
 800eb44:	a11c      	add	r1, pc, #112	; (adr r1, 800ebb8 <scalbn+0xd8>)
 800eb46:	e9d1 0100 	ldrd	r0, r1, [r1]
 800eb4a:	da02      	bge.n	800eb52 <scalbn+0x72>
 800eb4c:	a11c      	add	r1, pc, #112	; (adr r1, 800ebc0 <scalbn+0xe0>)
 800eb4e:	e9d1 0100 	ldrd	r0, r1, [r1]
 800eb52:	a319      	add	r3, pc, #100	; (adr r3, 800ebb8 <scalbn+0xd8>)
 800eb54:	e9d3 2300 	ldrd	r2, r3, [r3]
 800eb58:	f7f1 fd56 	bl	8000608 <__aeabi_dmul>
 800eb5c:	e7e6      	b.n	800eb2c <scalbn+0x4c>
 800eb5e:	1872      	adds	r2, r6, r1
 800eb60:	f240 71fe 	movw	r1, #2046	; 0x7fe
 800eb64:	428a      	cmp	r2, r1
 800eb66:	dcec      	bgt.n	800eb42 <scalbn+0x62>
 800eb68:	2a00      	cmp	r2, #0
 800eb6a:	dd08      	ble.n	800eb7e <scalbn+0x9e>
 800eb6c:	f023 43ff 	bic.w	r3, r3, #2139095040	; 0x7f800000
 800eb70:	f423 03e0 	bic.w	r3, r3, #7340032	; 0x700000
 800eb74:	ea43 5502 	orr.w	r5, r3, r2, lsl #20
 800eb78:	ec45 4b10 	vmov	d0, r4, r5
 800eb7c:	bd70      	pop	{r4, r5, r6, pc}
 800eb7e:	f112 0f35 	cmn.w	r2, #53	; 0x35
 800eb82:	da08      	bge.n	800eb96 <scalbn+0xb6>
 800eb84:	2d00      	cmp	r5, #0
 800eb86:	a10a      	add	r1, pc, #40	; (adr r1, 800ebb0 <scalbn+0xd0>)
 800eb88:	e9d1 0100 	ldrd	r0, r1, [r1]
 800eb8c:	dac0      	bge.n	800eb10 <scalbn+0x30>
 800eb8e:	a10e      	add	r1, pc, #56	; (adr r1, 800ebc8 <scalbn+0xe8>)
 800eb90:	e9d1 0100 	ldrd	r0, r1, [r1]
 800eb94:	e7bc      	b.n	800eb10 <scalbn+0x30>
 800eb96:	f023 43ff 	bic.w	r3, r3, #2139095040	; 0x7f800000
 800eb9a:	3236      	adds	r2, #54	; 0x36
 800eb9c:	f423 03e0 	bic.w	r3, r3, #7340032	; 0x700000
 800eba0:	ea43 5102 	orr.w	r1, r3, r2, lsl #20
 800eba4:	4620      	mov	r0, r4
 800eba6:	4b0c      	ldr	r3, [pc, #48]	; (800ebd8 <scalbn+0xf8>)
 800eba8:	2200      	movs	r2, #0
 800ebaa:	e7d5      	b.n	800eb58 <scalbn+0x78>
 800ebac:	f3af 8000 	nop.w
 800ebb0:	c2f8f359 	.word	0xc2f8f359
 800ebb4:	01a56e1f 	.word	0x01a56e1f
 800ebb8:	8800759c 	.word	0x8800759c
 800ebbc:	7e37e43c 	.word	0x7e37e43c
 800ebc0:	8800759c 	.word	0x8800759c
 800ebc4:	fe37e43c 	.word	0xfe37e43c
 800ebc8:	c2f8f359 	.word	0xc2f8f359
 800ebcc:	81a56e1f 	.word	0x81a56e1f
 800ebd0:	43500000 	.word	0x43500000
 800ebd4:	ffff3cb0 	.word	0xffff3cb0
 800ebd8:	3c900000 	.word	0x3c900000
 800ebdc:	00000000 	.word	0x00000000

0800ebe0 <floor>:
 800ebe0:	ec51 0b10 	vmov	r0, r1, d0
 800ebe4:	f3c1 530a 	ubfx	r3, r1, #20, #11
 800ebe8:	e92d 41f0 	stmdb	sp!, {r4, r5, r6, r7, r8, lr}
 800ebec:	f2a3 36ff 	subw	r6, r3, #1023	; 0x3ff
 800ebf0:	2e13      	cmp	r6, #19
 800ebf2:	ee10 5a10 	vmov	r5, s0
 800ebf6:	ee10 8a10 	vmov	r8, s0
 800ebfa:	460c      	mov	r4, r1
 800ebfc:	dc31      	bgt.n	800ec62 <floor+0x82>
 800ebfe:	2e00      	cmp	r6, #0
 800ec00:	da14      	bge.n	800ec2c <floor+0x4c>
 800ec02:	a333      	add	r3, pc, #204	; (adr r3, 800ecd0 <floor+0xf0>)
 800ec04:	e9d3 2300 	ldrd	r2, r3, [r3]
 800ec08:	f7f1 fb48 	bl	800029c <__adddf3>
 800ec0c:	2200      	movs	r2, #0
 800ec0e:	2300      	movs	r3, #0
 800ec10:	f7f1 ff8a 	bl	8000b28 <__aeabi_dcmpgt>
 800ec14:	b138      	cbz	r0, 800ec26 <floor+0x46>
 800ec16:	2c00      	cmp	r4, #0
 800ec18:	da53      	bge.n	800ecc2 <floor+0xe2>
 800ec1a:	f024 4400 	bic.w	r4, r4, #2147483648	; 0x80000000
 800ec1e:	4325      	orrs	r5, r4
 800ec20:	d052      	beq.n	800ecc8 <floor+0xe8>
 800ec22:	4c2d      	ldr	r4, [pc, #180]	; (800ecd8 <floor+0xf8>)
 800ec24:	2500      	movs	r5, #0
 800ec26:	4621      	mov	r1, r4
 800ec28:	4628      	mov	r0, r5
 800ec2a:	e024      	b.n	800ec76 <floor+0x96>
 800ec2c:	4f2b      	ldr	r7, [pc, #172]	; (800ecdc <floor+0xfc>)
 800ec2e:	4137      	asrs	r7, r6
 800ec30:	ea01 0307 	and.w	r3, r1, r7
 800ec34:	4303      	orrs	r3, r0
 800ec36:	d01e      	beq.n	800ec76 <floor+0x96>
 800ec38:	a325      	add	r3, pc, #148	; (adr r3, 800ecd0 <floor+0xf0>)
 800ec3a:	e9d3 2300 	ldrd	r2, r3, [r3]
 800ec3e:	f7f1 fb2d 	bl	800029c <__adddf3>
 800ec42:	2200      	movs	r2, #0
 800ec44:	2300      	movs	r3, #0
 800ec46:	f7f1 ff6f 	bl	8000b28 <__aeabi_dcmpgt>
 800ec4a:	2800      	cmp	r0, #0
 800ec4c:	d0eb      	beq.n	800ec26 <floor+0x46>
 800ec4e:	2c00      	cmp	r4, #0
 800ec50:	bfbe      	ittt	lt
 800ec52:	f44f 1380 	movlt.w	r3, #1048576	; 0x100000
 800ec56:	4133      	asrlt	r3, r6
 800ec58:	18e4      	addlt	r4, r4, r3
 800ec5a:	ea24 0407 	bic.w	r4, r4, r7
 800ec5e:	2500      	movs	r5, #0
 800ec60:	e7e1      	b.n	800ec26 <floor+0x46>
 800ec62:	2e33      	cmp	r6, #51	; 0x33
 800ec64:	dd0b      	ble.n	800ec7e <floor+0x9e>
 800ec66:	f5b6 6f80 	cmp.w	r6, #1024	; 0x400
 800ec6a:	d104      	bne.n	800ec76 <floor+0x96>
 800ec6c:	ee10 2a10 	vmov	r2, s0
 800ec70:	460b      	mov	r3, r1
 800ec72:	f7f1 fb13 	bl	800029c <__adddf3>
 800ec76:	ec41 0b10 	vmov	d0, r0, r1
 800ec7a:	e8bd 81f0 	ldmia.w	sp!, {r4, r5, r6, r7, r8, pc}
 800ec7e:	f2a3 4313 	subw	r3, r3, #1043	; 0x413
 800ec82:	f04f 37ff 	mov.w	r7, #4294967295
 800ec86:	40df      	lsrs	r7, r3
 800ec88:	4238      	tst	r0, r7
 800ec8a:	d0f4      	beq.n	800ec76 <floor+0x96>
 800ec8c:	a310      	add	r3, pc, #64	; (adr r3, 800ecd0 <floor+0xf0>)
 800ec8e:	e9d3 2300 	ldrd	r2, r3, [r3]
 800ec92:	f7f1 fb03 	bl	800029c <__adddf3>
 800ec96:	2200      	movs	r2, #0
 800ec98:	2300      	movs	r3, #0
 800ec9a:	f7f1 ff45 	bl	8000b28 <__aeabi_dcmpgt>
 800ec9e:	2800      	cmp	r0, #0
 800eca0:	d0c1      	beq.n	800ec26 <floor+0x46>
 800eca2:	2c00      	cmp	r4, #0
 800eca4:	da0a      	bge.n	800ecbc <floor+0xdc>
 800eca6:	2e14      	cmp	r6, #20
 800eca8:	d101      	bne.n	800ecae <floor+0xce>
 800ecaa:	3401      	adds	r4, #1
 800ecac:	e006      	b.n	800ecbc <floor+0xdc>
 800ecae:	f1c6 0634 	rsb	r6, r6, #52	; 0x34
 800ecb2:	2301      	movs	r3, #1
 800ecb4:	40b3      	lsls	r3, r6
 800ecb6:	441d      	add	r5, r3
 800ecb8:	45a8      	cmp	r8, r5
 800ecba:	d8f6      	bhi.n	800ecaa <floor+0xca>
 800ecbc:	ea25 0507 	bic.w	r5, r5, r7
 800ecc0:	e7b1      	b.n	800ec26 <floor+0x46>
 800ecc2:	2500      	movs	r5, #0
 800ecc4:	462c      	mov	r4, r5
 800ecc6:	e7ae      	b.n	800ec26 <floor+0x46>
 800ecc8:	f04f 4400 	mov.w	r4, #2147483648	; 0x80000000
 800eccc:	e7ab      	b.n	800ec26 <floor+0x46>
 800ecce:	bf00      	nop
 800ecd0:	8800759c 	.word	0x8800759c
 800ecd4:	7e37e43c 	.word	0x7e37e43c
 800ecd8:	bff00000 	.word	0xbff00000
 800ecdc:	000fffff 	.word	0x000fffff

0800ece0 <_init>:
 800ece0:	b5f8      	push	{r3, r4, r5, r6, r7, lr}
 800ece2:	bf00      	nop
 800ece4:	bcf8      	pop	{r3, r4, r5, r6, r7}
 800ece6:	bc08      	pop	{r3}
 800ece8:	469e      	mov	lr, r3
 800ecea:	4770      	bx	lr

0800ecec <_fini>:
 800ecec:	b5f8      	push	{r3, r4, r5, r6, r7, lr}
 800ecee:	bf00      	nop
 800ecf0:	bcf8      	pop	{r3, r4, r5, r6, r7}
 800ecf2:	bc08      	pop	{r3}
 800ecf4:	469e      	mov	lr, r3
 800ecf6:	4770      	bx	lr
